ARM GAS  C:\Users\ZShuai\AppData\Local\Temp\ccMlV4KV.s 			page 1


   1              		.cpu cortex-m4
   2              		.arch armv7e-m
   3              		.fpu fpv4-sp-d16
   4              		.eabi_attribute 27, 1
   5              		.eabi_attribute 28, 1
   6              		.eabi_attribute 20, 1
   7              		.eabi_attribute 21, 1
   8              		.eabi_attribute 23, 3
   9              		.eabi_attribute 24, 1
  10              		.eabi_attribute 25, 1
  11              		.eabi_attribute 26, 1
  12              		.eabi_attribute 30, 6
  13              		.eabi_attribute 34, 1
  14              		.eabi_attribute 18, 4
  15              		.file	"arm_cos_f32.c"
  16              		.text
  17              	.Ltext0:
  18              		.cfi_sections	.debug_frame
  19              		.file 1 "../User/DSP/arm_cos_f32.c"
  20              		.section	.text.arm_cos_f32,"ax",%progbits
  21              		.align	1
  22              		.global	arm_cos_f32
  23              		.syntax unified
  24              		.thumb
  25              		.thumb_func
  27              	arm_cos_f32:
  28              	.LFB103:
   1:../User/DSP/arm_cos_f32.c **** /* ----------------------------------------------------------------------
   2:../User/DSP/arm_cos_f32.c ****  * Project:      CMSIS DSP Library
   3:../User/DSP/arm_cos_f32.c ****  * Title:        arm_cos_f32.c
   4:../User/DSP/arm_cos_f32.c ****  * Description:  Fast cosine calculation for floating-point values
   5:../User/DSP/arm_cos_f32.c ****  *
   6:../User/DSP/arm_cos_f32.c ****  * $Date:        23 April 2021
   7:../User/DSP/arm_cos_f32.c ****  * $Revision:    V1.9.0
   8:../User/DSP/arm_cos_f32.c ****  *
   9:../User/DSP/arm_cos_f32.c ****  * Target Processor: Cortex-M and Cortex-A cores
  10:../User/DSP/arm_cos_f32.c ****  * -------------------------------------------------------------------- */
  11:../User/DSP/arm_cos_f32.c **** /*
  12:../User/DSP/arm_cos_f32.c ****  * Copyright (C) 2010-2021 ARM Limited or its affiliates. All rights reserved.
  13:../User/DSP/arm_cos_f32.c ****  *
  14:../User/DSP/arm_cos_f32.c ****  * SPDX-License-Identifier: Apache-2.0
  15:../User/DSP/arm_cos_f32.c ****  *
  16:../User/DSP/arm_cos_f32.c ****  * Licensed under the Apache License, Version 2.0 (the License); you may
  17:../User/DSP/arm_cos_f32.c ****  * not use this file except in compliance with the License.
  18:../User/DSP/arm_cos_f32.c ****  * You may obtain a copy of the License at
  19:../User/DSP/arm_cos_f32.c ****  *
  20:../User/DSP/arm_cos_f32.c ****  * www.apache.org/licenses/LICENSE-2.0
  21:../User/DSP/arm_cos_f32.c ****  *
  22:../User/DSP/arm_cos_f32.c ****  * Unless required by applicable law or agreed to in writing, software
  23:../User/DSP/arm_cos_f32.c ****  * distributed under the License is distributed on an AS IS BASIS, WITHOUT
  24:../User/DSP/arm_cos_f32.c ****  * WARRANTIES OR CONDITIONS OF ANY KIND, either express or implied.
  25:../User/DSP/arm_cos_f32.c ****  * See the License for the specific language governing permissions and
  26:../User/DSP/arm_cos_f32.c ****  * limitations under the License.
  27:../User/DSP/arm_cos_f32.c ****  */
  28:../User/DSP/arm_cos_f32.c **** 
  29:../User/DSP/arm_cos_f32.c **** #include "fast_math_functions.h"
  30:../User/DSP/arm_cos_f32.c **** #include "arm_common_tables.h"
ARM GAS  C:\Users\ZShuai\AppData\Local\Temp\ccMlV4KV.s 			page 2


  31:../User/DSP/arm_cos_f32.c **** 
  32:../User/DSP/arm_cos_f32.c **** /**
  33:../User/DSP/arm_cos_f32.c ****   @ingroup groupFastMath
  34:../User/DSP/arm_cos_f32.c ****  */
  35:../User/DSP/arm_cos_f32.c **** 
  36:../User/DSP/arm_cos_f32.c **** /**
  37:../User/DSP/arm_cos_f32.c ****   @defgroup cos Cosine
  38:../User/DSP/arm_cos_f32.c **** 
  39:../User/DSP/arm_cos_f32.c ****   Computes the trigonometric cosine function using a combination of table lookup
  40:../User/DSP/arm_cos_f32.c ****   and linear interpolation.  There are separate functions for
  41:../User/DSP/arm_cos_f32.c ****   Q15, Q31, and floating-point data types.
  42:../User/DSP/arm_cos_f32.c ****   The input to the floating-point version is in radians while the
  43:../User/DSP/arm_cos_f32.c ****   fixed-point Q15 and Q31 have a scaled input with the range
  44:../User/DSP/arm_cos_f32.c ****   [0 +0.9999] mapping to [0 2*pi).  The fixed-point range is chosen so that a
  45:../User/DSP/arm_cos_f32.c ****   value of 2*pi wraps around to 0.
  46:../User/DSP/arm_cos_f32.c **** 
  47:../User/DSP/arm_cos_f32.c ****   The implementation is based on table lookup using 512 values together with linear interpolation.
  48:../User/DSP/arm_cos_f32.c ****   The steps used are:
  49:../User/DSP/arm_cos_f32.c ****    -# Calculation of the nearest integer table index
  50:../User/DSP/arm_cos_f32.c ****    -# Compute the fractional portion (fract) of the table index.
  51:../User/DSP/arm_cos_f32.c ****    -# The final result equals <code>(1.0f-fract)*a + fract*b;</code>
  52:../User/DSP/arm_cos_f32.c **** 
  53:../User/DSP/arm_cos_f32.c ****   where
  54:../User/DSP/arm_cos_f32.c ****   <pre>
  55:../User/DSP/arm_cos_f32.c ****      a = Table[index];
  56:../User/DSP/arm_cos_f32.c ****      b = Table[index+1];
  57:../User/DSP/arm_cos_f32.c ****   </pre>
  58:../User/DSP/arm_cos_f32.c ****  */
  59:../User/DSP/arm_cos_f32.c **** 
  60:../User/DSP/arm_cos_f32.c **** /**
  61:../User/DSP/arm_cos_f32.c ****   @addtogroup cos
  62:../User/DSP/arm_cos_f32.c ****   @{
  63:../User/DSP/arm_cos_f32.c ****  */
  64:../User/DSP/arm_cos_f32.c **** 
  65:../User/DSP/arm_cos_f32.c **** /**
  66:../User/DSP/arm_cos_f32.c ****   @brief         Fast approximation to the trigonometric cosine function for floating-point data.
  67:../User/DSP/arm_cos_f32.c ****   @param[in]     x  input value in radians
  68:../User/DSP/arm_cos_f32.c ****   @return        cos(x)
  69:../User/DSP/arm_cos_f32.c ****  */
  70:../User/DSP/arm_cos_f32.c **** float32_t arm_cos_f32(
  71:../User/DSP/arm_cos_f32.c ****   float32_t x)
  72:../User/DSP/arm_cos_f32.c **** {
  29              		.loc 1 72 1
  30              		.cfi_startproc
  31              		@ args = 0, pretend = 0, frame = 40
  32              		@ frame_needed = 1, uses_anonymous_args = 0
  33              		@ link register save eliminated.
  34 0000 80B4     		push	{r7}
  35              	.LCFI0:
  36              		.cfi_def_cfa_offset 4
  37              		.cfi_offset 7, -4
  38 0002 8BB0     		sub	sp, sp, #44
  39              	.LCFI1:
  40              		.cfi_def_cfa_offset 48
  41 0004 00AF     		add	r7, sp, #0
  42              	.LCFI2:
  43              		.cfi_def_cfa_register 7
ARM GAS  C:\Users\ZShuai\AppData\Local\Temp\ccMlV4KV.s 			page 3


  44 0006 87ED010A 		vstr.32	s0, [r7, #4]
  73:../User/DSP/arm_cos_f32.c ****   float32_t cosVal, fract, in;                   /* Temporary input, output variables */
  74:../User/DSP/arm_cos_f32.c ****   uint16_t index;                                /* Index variable */
  75:../User/DSP/arm_cos_f32.c ****   float32_t a, b;                                /* Two nearest output values */
  76:../User/DSP/arm_cos_f32.c ****   int32_t n;
  77:../User/DSP/arm_cos_f32.c ****   float32_t findex;
  78:../User/DSP/arm_cos_f32.c **** 
  79:../User/DSP/arm_cos_f32.c ****   /* input x is in radians */
  80:../User/DSP/arm_cos_f32.c ****   /* Scale input to [0 1] range from [0 2*PI] , divide input by 2*pi, add 0.25 (pi/2) to read sine 
  81:../User/DSP/arm_cos_f32.c ****   in = x * 0.159154943092f + 0.25f;
  45              		.loc 1 81 10
  46 000a D7ED017A 		vldr.32	s15, [r7, #4]
  47 000e 9FED3C7A 		vldr.32	s14, .L7
  48 0012 67EE877A 		vmul.f32	s15, s15, s14
  49              		.loc 1 81 6
  50 0016 B5EE007A 		vmov.f32	s14, #2.5e-1
  51 001a 77EE877A 		vadd.f32	s15, s15, s14
  52 001e C7ED067A 		vstr.32	s15, [r7, #24]
  82:../User/DSP/arm_cos_f32.c **** 
  83:../User/DSP/arm_cos_f32.c ****   /* Calculation of floor value of input */
  84:../User/DSP/arm_cos_f32.c ****   n = (int32_t) in;
  53              		.loc 1 84 5
  54 0022 D7ED067A 		vldr.32	s15, [r7, #24]
  55 0026 FDEEE77A 		vcvt.s32.f32	s15, s15
  56 002a 17EE903A 		vmov	r3, s15	@ int
  57 002e 3B62     		str	r3, [r7, #32]
  85:../User/DSP/arm_cos_f32.c **** 
  86:../User/DSP/arm_cos_f32.c ****   /* Make negative values towards -infinity */
  87:../User/DSP/arm_cos_f32.c ****   if (in < 0.0f)
  58              		.loc 1 87 6
  59 0030 D7ED067A 		vldr.32	s15, [r7, #24]
  60 0034 F5EEC07A 		vcmpe.f32	s15, #0
  61 0038 F1EE10FA 		vmrs	APSR_nzcv, FPSCR
  62 003c 02D5     		bpl	.L2
  88:../User/DSP/arm_cos_f32.c ****   {
  89:../User/DSP/arm_cos_f32.c ****     n--;
  63              		.loc 1 89 6
  64 003e 3B6A     		ldr	r3, [r7, #32]
  65 0040 013B     		subs	r3, r3, #1
  66 0042 3B62     		str	r3, [r7, #32]
  67              	.L2:
  90:../User/DSP/arm_cos_f32.c ****   }
  91:../User/DSP/arm_cos_f32.c **** 
  92:../User/DSP/arm_cos_f32.c ****   /* Map input value to [0 1] */
  93:../User/DSP/arm_cos_f32.c ****   in = in - (float32_t) n;
  68              		.loc 1 93 13
  69 0044 3B6A     		ldr	r3, [r7, #32]
  70 0046 07EE903A 		vmov	s15, r3	@ int
  71 004a F8EEE77A 		vcvt.f32.s32	s15, s15
  72              		.loc 1 93 6
  73 004e 97ED067A 		vldr.32	s14, [r7, #24]
  74 0052 77EE677A 		vsub.f32	s15, s14, s15
  75 0056 C7ED067A 		vstr.32	s15, [r7, #24]
  94:../User/DSP/arm_cos_f32.c **** 
  95:../User/DSP/arm_cos_f32.c ****   /* Calculation of index of the table */
  96:../User/DSP/arm_cos_f32.c ****   findex = (float32_t)FAST_MATH_TABLE_SIZE * in;
  76              		.loc 1 96 10
ARM GAS  C:\Users\ZShuai\AppData\Local\Temp\ccMlV4KV.s 			page 4


  77 005a D7ED067A 		vldr.32	s15, [r7, #24]
  78 005e 9FED297A 		vldr.32	s14, .L7+4
  79 0062 67EE877A 		vmul.f32	s15, s15, s14
  80 0066 C7ED077A 		vstr.32	s15, [r7, #28]
  97:../User/DSP/arm_cos_f32.c ****   index = (uint16_t)findex;
  81              		.loc 1 97 9
  82 006a D7ED077A 		vldr.32	s15, [r7, #28]
  83 006e FCEEE77A 		vcvt.u32.f32	s15, s15
  84 0072 17EE903A 		vmov	r3, s15	@ int
  85 0076 FB84     		strh	r3, [r7, #38]	@ movhi
  98:../User/DSP/arm_cos_f32.c **** 
  99:../User/DSP/arm_cos_f32.c ****   /* when "in" is exactly 1, we need to rotate the index down to 0 */
 100:../User/DSP/arm_cos_f32.c ****   if (index >= FAST_MATH_TABLE_SIZE) {
  86              		.loc 1 100 6
  87 0078 FB8C     		ldrh	r3, [r7, #38]
  88 007a B3F5007F 		cmp	r3, #512
  89 007e 09D3     		bcc	.L4
 101:../User/DSP/arm_cos_f32.c ****     index = 0;
  90              		.loc 1 101 11
  91 0080 0023     		movs	r3, #0
  92 0082 FB84     		strh	r3, [r7, #38]	@ movhi
 102:../User/DSP/arm_cos_f32.c ****     findex -= (float32_t)FAST_MATH_TABLE_SIZE;
  93              		.loc 1 102 12
  94 0084 D7ED077A 		vldr.32	s15, [r7, #28]
  95 0088 9FED1E7A 		vldr.32	s14, .L7+4
  96 008c 77EEC77A 		vsub.f32	s15, s15, s14
  97 0090 C7ED077A 		vstr.32	s15, [r7, #28]
  98              	.L4:
 103:../User/DSP/arm_cos_f32.c ****   }
 104:../User/DSP/arm_cos_f32.c **** 
 105:../User/DSP/arm_cos_f32.c ****   /* fractional value calculation */
 106:../User/DSP/arm_cos_f32.c ****   fract = findex - (float32_t) index;
  99              		.loc 1 106 20
 100 0094 FB8C     		ldrh	r3, [r7, #38]
 101 0096 07EE903A 		vmov	s15, r3	@ int
 102 009a F8EE677A 		vcvt.f32.u32	s15, s15
 103              		.loc 1 106 9
 104 009e 97ED077A 		vldr.32	s14, [r7, #28]
 105 00a2 77EE677A 		vsub.f32	s15, s14, s15
 106 00a6 C7ED057A 		vstr.32	s15, [r7, #20]
 107:../User/DSP/arm_cos_f32.c **** 
 108:../User/DSP/arm_cos_f32.c ****   /* Read two nearest values of input value from the cos table */
 109:../User/DSP/arm_cos_f32.c ****   a = sinTable_f32[index];
 107              		.loc 1 109 19
 108 00aa FB8C     		ldrh	r3, [r7, #38]
 109              		.loc 1 109 5
 110 00ac 164A     		ldr	r2, .L7+8
 111 00ae 9B00     		lsls	r3, r3, #2
 112 00b0 1344     		add	r3, r3, r2
 113 00b2 1B68     		ldr	r3, [r3]	@ float
 114 00b4 3B61     		str	r3, [r7, #16]	@ float
 110:../User/DSP/arm_cos_f32.c ****   b = sinTable_f32[index+1];
 115              		.loc 1 110 25
 116 00b6 FB8C     		ldrh	r3, [r7, #38]
 117 00b8 0133     		adds	r3, r3, #1
 118              		.loc 1 110 5
 119 00ba 134A     		ldr	r2, .L7+8
ARM GAS  C:\Users\ZShuai\AppData\Local\Temp\ccMlV4KV.s 			page 5


 120 00bc 9B00     		lsls	r3, r3, #2
 121 00be 1344     		add	r3, r3, r2
 122 00c0 1B68     		ldr	r3, [r3]	@ float
 123 00c2 FB60     		str	r3, [r7, #12]	@ float
 111:../User/DSP/arm_cos_f32.c **** 
 112:../User/DSP/arm_cos_f32.c ****   /* Linear interpolation process */
 113:../User/DSP/arm_cos_f32.c ****   cosVal = (1.0f - fract) * a + fract * b;
 124              		.loc 1 113 18
 125 00c4 B7EE007A 		vmov.f32	s14, #1.0e+0
 126 00c8 D7ED057A 		vldr.32	s15, [r7, #20]
 127 00cc 37EE677A 		vsub.f32	s14, s14, s15
 128              		.loc 1 113 27
 129 00d0 D7ED047A 		vldr.32	s15, [r7, #16]
 130 00d4 27EE277A 		vmul.f32	s14, s14, s15
 131              		.loc 1 113 39
 132 00d8 D7ED056A 		vldr.32	s13, [r7, #20]
 133 00dc D7ED037A 		vldr.32	s15, [r7, #12]
 134 00e0 66EEA77A 		vmul.f32	s15, s13, s15
 135              		.loc 1 113 10
 136 00e4 77EE277A 		vadd.f32	s15, s14, s15
 137 00e8 C7ED027A 		vstr.32	s15, [r7, #8]
 114:../User/DSP/arm_cos_f32.c **** 
 115:../User/DSP/arm_cos_f32.c ****   /* Return output value */
 116:../User/DSP/arm_cos_f32.c ****   return (cosVal);
 138              		.loc 1 116 10
 139 00ec BB68     		ldr	r3, [r7, #8]	@ float
 140 00ee 07EE903A 		vmov	s15, r3
 117:../User/DSP/arm_cos_f32.c **** }
 141              		.loc 1 117 1
 142 00f2 B0EE670A 		vmov.f32	s0, s15
 143 00f6 2C37     		adds	r7, r7, #44
 144              	.LCFI3:
 145              		.cfi_def_cfa_offset 4
 146 00f8 BD46     		mov	sp, r7
 147              	.LCFI4:
 148              		.cfi_def_cfa_register 13
 149              		@ sp needed
 150 00fa 5DF8047B 		ldr	r7, [sp], #4
 151              	.LCFI5:
 152              		.cfi_restore 7
 153              		.cfi_def_cfa_offset 0
 154 00fe 7047     		bx	lr
 155              	.L8:
 156              		.align	2
 157              	.L7:
 158 0100 83F9223E 		.word	1042479491
 159 0104 00000044 		.word	1140850688
 160 0108 00000000 		.word	sinTable_f32
 161              		.cfi_endproc
 162              	.LFE103:
 164              		.text
 165              	.Letext0:
 166              		.file 2 "d:\\program files (x86)\\arm gnu toolchain arm-none-eabi\\12.3 rel1\\arm-none-eabi\\inclu
 167              		.file 3 "d:\\program files (x86)\\arm gnu toolchain arm-none-eabi\\12.3 rel1\\arm-none-eabi\\inclu
 168              		.file 4 "../User/DSP/arm_math_types.h"
 169              		.file 5 "../User/DSP/arm_common_tables.h"
ARM GAS  C:\Users\ZShuai\AppData\Local\Temp\ccMlV4KV.s 			page 6

