ARM GAS  C:\Users\ZShuai\AppData\Local\Temp\ccWUQRFS.s 			page 1


   1              		.cpu cortex-m4
   2              		.arch armv7e-m
   3              		.fpu fpv4-sp-d16
   4              		.eabi_attribute 27, 1
   5              		.eabi_attribute 28, 1
   6              		.eabi_attribute 20, 1
   7              		.eabi_attribute 21, 1
   8              		.eabi_attribute 23, 3
   9              		.eabi_attribute 24, 1
  10              		.eabi_attribute 25, 1
  11              		.eabi_attribute 26, 1
  12              		.eabi_attribute 30, 6
  13              		.eabi_attribute 34, 1
  14              		.eabi_attribute 18, 4
  15              		.file	"arm_atan2_f32.c"
  16              		.text
  17              	.Ltext0:
  18              		.cfi_sections	.debug_frame
  19              		.file 1 "../User/DSP/arm_atan2_f32.c"
  20              		.section	.rodata.atan2_coefs_f32,"a"
  21              		.align	2
  24              	atan2_coefs_f32:
  25 0000 00000000 		.word	0
  26 0004 0100803F 		.word	1065353217
  27 0008 C90CC0B7 		.word	-1212150583
  28 000c E565AABE 		.word	-1096129051
  29 0010 435690BB 		.word	-1148168637
  30 0014 3C695D3E 		.word	1046309180
  31 0018 EBFCA9BC 		.word	-1129710357
  32 001c 08B732BE 		.word	-1103972600
  33 0020 E745093E 		.word	1040795111
  34 0024 A59204BD 		.word	-1123773787
  35              		.section	.text.arm_atan2_f32,"ax",%progbits
  36              		.align	1
  37              		.global	arm_atan2_f32
  38              		.syntax unified
  39              		.thumb
  40              		.thumb_func
  42              	arm_atan2_f32:
  43              	.LFB105:
   1:../User/DSP/arm_atan2_f32.c **** /* ----------------------------------------------------------------------
   2:../User/DSP/arm_atan2_f32.c ****  * Project:      CMSIS DSP Library
   3:../User/DSP/arm_atan2_f32.c ****  * Title:        arm_atan2_f32.c
   4:../User/DSP/arm_atan2_f32.c ****  * Description:  float32 Arc tangent of y/x
   5:../User/DSP/arm_atan2_f32.c ****  *
   6:../User/DSP/arm_atan2_f32.c ****  * $Date:        22 April 2022
   7:../User/DSP/arm_atan2_f32.c ****  * $Revision:    V1.10.0
   8:../User/DSP/arm_atan2_f32.c ****  *
   9:../User/DSP/arm_atan2_f32.c ****  * Target Processor: Cortex-M and Cortex-A cores
  10:../User/DSP/arm_atan2_f32.c ****  * -------------------------------------------------------------------- */
  11:../User/DSP/arm_atan2_f32.c **** /*
  12:../User/DSP/arm_atan2_f32.c ****  * Copyright (C) 2010-2022 ARM Limited or its affiliates. All rights reserved.
  13:../User/DSP/arm_atan2_f32.c ****  *
  14:../User/DSP/arm_atan2_f32.c ****  * SPDX-License-Identifier: Apache-2.0
  15:../User/DSP/arm_atan2_f32.c ****  *
  16:../User/DSP/arm_atan2_f32.c ****  * Licensed under the Apache License, Version 2.0 (the License); you may
  17:../User/DSP/arm_atan2_f32.c ****  * not use this file except in compliance with the License.
ARM GAS  C:\Users\ZShuai\AppData\Local\Temp\ccWUQRFS.s 			page 2


  18:../User/DSP/arm_atan2_f32.c ****  * You may obtain a copy of the License at
  19:../User/DSP/arm_atan2_f32.c ****  *
  20:../User/DSP/arm_atan2_f32.c ****  * www.apache.org/licenses/LICENSE-2.0
  21:../User/DSP/arm_atan2_f32.c ****  *
  22:../User/DSP/arm_atan2_f32.c ****  * Unless required by applicable law or agreed to in writing, software
  23:../User/DSP/arm_atan2_f32.c ****  * distributed under the License is distributed on an AS IS BASIS, WITHOUT
  24:../User/DSP/arm_atan2_f32.c ****  * WARRANTIES OR CONDITIONS OF ANY KIND, either express or implied.
  25:../User/DSP/arm_atan2_f32.c ****  * See the License for the specific language governing permissions and
  26:../User/DSP/arm_atan2_f32.c ****  * limitations under the License.
  27:../User/DSP/arm_atan2_f32.c ****  */
  28:../User/DSP/arm_atan2_f32.c **** 
  29:../User/DSP/arm_atan2_f32.c **** #include "dsp/fast_math_functions.h"        
  30:../User/DSP/arm_atan2_f32.c **** 
  31:../User/DSP/arm_atan2_f32.c **** /*
  32:../User/DSP/arm_atan2_f32.c **** 
  33:../User/DSP/arm_atan2_f32.c **** atan for argument between in [0, 1.0]
  34:../User/DSP/arm_atan2_f32.c **** 
  35:../User/DSP/arm_atan2_f32.c **** 
  36:../User/DSP/arm_atan2_f32.c **** */
  37:../User/DSP/arm_atan2_f32.c **** 
  38:../User/DSP/arm_atan2_f32.c **** #define ATANHALFF32 0.463648f
  39:../User/DSP/arm_atan2_f32.c **** #define PIHALFF32 1.5707963267948966192313f
  40:../User/DSP/arm_atan2_f32.c **** 
  41:../User/DSP/arm_atan2_f32.c **** #define ATAN2_NB_COEFS_F32 10
  42:../User/DSP/arm_atan2_f32.c **** 
  43:../User/DSP/arm_atan2_f32.c **** static const float32_t atan2_coefs_f32[ATAN2_NB_COEFS_F32]={0.0f
  44:../User/DSP/arm_atan2_f32.c **** ,1.0000001638308195518f
  45:../User/DSP/arm_atan2_f32.c **** ,-0.0000228941363602264f
  46:../User/DSP/arm_atan2_f32.c **** ,-0.3328086544578890873f
  47:../User/DSP/arm_atan2_f32.c **** ,-0.004404814619311061f
  48:../User/DSP/arm_atan2_f32.c **** ,0.2162217461808173258f
  49:../User/DSP/arm_atan2_f32.c **** ,-0.0207504842057097504f
  50:../User/DSP/arm_atan2_f32.c **** ,-0.1745263362250363339f
  51:../User/DSP/arm_atan2_f32.c **** ,0.1340557235283553386f
  52:../User/DSP/arm_atan2_f32.c **** ,-0.0323664125927477625f
  53:../User/DSP/arm_atan2_f32.c **** };
  54:../User/DSP/arm_atan2_f32.c **** 
  55:../User/DSP/arm_atan2_f32.c **** __STATIC_FORCEINLINE float32_t arm_atan_limited_f32(float32_t x)
  56:../User/DSP/arm_atan2_f32.c **** {
  57:../User/DSP/arm_atan2_f32.c ****     float32_t res=atan2_coefs_f32[ATAN2_NB_COEFS_F32-1];
  58:../User/DSP/arm_atan2_f32.c ****     int i=1;
  59:../User/DSP/arm_atan2_f32.c ****     for(i=1;i<ATAN2_NB_COEFS_F32;i++)
  60:../User/DSP/arm_atan2_f32.c ****     {
  61:../User/DSP/arm_atan2_f32.c ****         res = x*res + atan2_coefs_f32[ATAN2_NB_COEFS_F32-1-i];
  62:../User/DSP/arm_atan2_f32.c ****     }
  63:../User/DSP/arm_atan2_f32.c **** 
  64:../User/DSP/arm_atan2_f32.c **** 
  65:../User/DSP/arm_atan2_f32.c ****     return(res);
  66:../User/DSP/arm_atan2_f32.c **** }
  67:../User/DSP/arm_atan2_f32.c **** 
  68:../User/DSP/arm_atan2_f32.c **** __STATIC_FORCEINLINE float32_t arm_atan_f32(float32_t x)
  69:../User/DSP/arm_atan2_f32.c **** {
  70:../User/DSP/arm_atan2_f32.c ****    int sign=0;
  71:../User/DSP/arm_atan2_f32.c ****    float32_t res=0.0f;
  72:../User/DSP/arm_atan2_f32.c **** 
  73:../User/DSP/arm_atan2_f32.c ****    if (x < 0.0f)
  74:../User/DSP/arm_atan2_f32.c ****    {
ARM GAS  C:\Users\ZShuai\AppData\Local\Temp\ccWUQRFS.s 			page 3


  75:../User/DSP/arm_atan2_f32.c ****       sign=1;
  76:../User/DSP/arm_atan2_f32.c ****       x=-x;
  77:../User/DSP/arm_atan2_f32.c ****    }
  78:../User/DSP/arm_atan2_f32.c **** 
  79:../User/DSP/arm_atan2_f32.c ****    if (x > 1.0f)
  80:../User/DSP/arm_atan2_f32.c ****    {
  81:../User/DSP/arm_atan2_f32.c ****       x = 1.0f / x;
  82:../User/DSP/arm_atan2_f32.c ****       res = PIHALFF32 - arm_atan_limited_f32(x);
  83:../User/DSP/arm_atan2_f32.c ****    }
  84:../User/DSP/arm_atan2_f32.c ****    else
  85:../User/DSP/arm_atan2_f32.c ****    {
  86:../User/DSP/arm_atan2_f32.c ****      res += arm_atan_limited_f32(x);
  87:../User/DSP/arm_atan2_f32.c ****    }
  88:../User/DSP/arm_atan2_f32.c **** 
  89:../User/DSP/arm_atan2_f32.c **** 
  90:../User/DSP/arm_atan2_f32.c ****    if (sign)
  91:../User/DSP/arm_atan2_f32.c ****    {
  92:../User/DSP/arm_atan2_f32.c ****      res = -res;
  93:../User/DSP/arm_atan2_f32.c ****    }
  94:../User/DSP/arm_atan2_f32.c **** 
  95:../User/DSP/arm_atan2_f32.c ****    return(res);
  96:../User/DSP/arm_atan2_f32.c **** }
  97:../User/DSP/arm_atan2_f32.c **** 
  98:../User/DSP/arm_atan2_f32.c **** 
  99:../User/DSP/arm_atan2_f32.c **** /**
 100:../User/DSP/arm_atan2_f32.c ****   @ingroup groupFastMath
 101:../User/DSP/arm_atan2_f32.c ****  */
 102:../User/DSP/arm_atan2_f32.c **** 
 103:../User/DSP/arm_atan2_f32.c **** /**
 104:../User/DSP/arm_atan2_f32.c ****   @defgroup atan2 ArcTan2
 105:../User/DSP/arm_atan2_f32.c **** 
 106:../User/DSP/arm_atan2_f32.c ****   Computing Arc tangent only using the ratio y/x is not enough to determine the angle
 107:../User/DSP/arm_atan2_f32.c ****   since there is an indeterminacy. Opposite quadrants are giving the same ratio.
 108:../User/DSP/arm_atan2_f32.c **** 
 109:../User/DSP/arm_atan2_f32.c ****   ArcTan2 is not using y/x to compute the angle but y and x and use the sign of y and x
 110:../User/DSP/arm_atan2_f32.c ****   to determine the quadrant.
 111:../User/DSP/arm_atan2_f32.c **** 
 112:../User/DSP/arm_atan2_f32.c ****  */
 113:../User/DSP/arm_atan2_f32.c **** 
 114:../User/DSP/arm_atan2_f32.c **** /**
 115:../User/DSP/arm_atan2_f32.c ****   @addtogroup atan2
 116:../User/DSP/arm_atan2_f32.c ****   @{
 117:../User/DSP/arm_atan2_f32.c ****  */
 118:../User/DSP/arm_atan2_f32.c **** 
 119:../User/DSP/arm_atan2_f32.c **** /**
 120:../User/DSP/arm_atan2_f32.c ****   @brief       Arc Tangent of y/x using sign of y and x to get right quadrant
 121:../User/DSP/arm_atan2_f32.c ****   @param[in]   y  y coordinate
 122:../User/DSP/arm_atan2_f32.c ****   @param[in]   x  x coordinate
 123:../User/DSP/arm_atan2_f32.c ****   @param[out]  result  Result
 124:../User/DSP/arm_atan2_f32.c ****   @return  error status.
 125:../User/DSP/arm_atan2_f32.c ****  
 126:../User/DSP/arm_atan2_f32.c ****   @par         Compute the Arc tangent of y/x:
 127:../User/DSP/arm_atan2_f32.c ****                    The sign of y and x are used to determine the right quadrant
 128:../User/DSP/arm_atan2_f32.c ****                    and compute the right angle.
 129:../User/DSP/arm_atan2_f32.c **** */
 130:../User/DSP/arm_atan2_f32.c **** 
 131:../User/DSP/arm_atan2_f32.c **** 
ARM GAS  C:\Users\ZShuai\AppData\Local\Temp\ccWUQRFS.s 			page 4


 132:../User/DSP/arm_atan2_f32.c **** arm_status arm_atan2_f32(float32_t y,float32_t x,float32_t *result)
 133:../User/DSP/arm_atan2_f32.c **** {
  44              		.loc 1 133 1
  45              		.cfi_startproc
  46              		@ args = 0, pretend = 0, frame = 128
  47              		@ frame_needed = 1, uses_anonymous_args = 0
  48              		@ link register save eliminated.
  49 0000 80B4     		push	{r7}
  50              	.LCFI0:
  51              		.cfi_def_cfa_offset 4
  52              		.cfi_offset 7, -4
  53 0002 A1B0     		sub	sp, sp, #132
  54              	.LCFI1:
  55              		.cfi_def_cfa_offset 136
  56 0004 00AF     		add	r7, sp, #0
  57              	.LCFI2:
  58              		.cfi_def_cfa_register 7
  59 0006 87ED030A 		vstr.32	s0, [r7, #12]
  60 000a C7ED020A 		vstr.32	s1, [r7, #8]
  61 000e 7860     		str	r0, [r7, #4]
 134:../User/DSP/arm_atan2_f32.c ****     if (x > 0.0f)
  62              		.loc 1 134 8
  63 0010 D7ED027A 		vldr.32	s15, [r7, #8]
  64 0014 F5EEC07A 		vcmpe.f32	s15, #0
  65 0018 F1EE10FA 		vmrs	APSR_nzcv, FPSCR
  66 001c 40F38E80 		ble	.L68
 135:../User/DSP/arm_atan2_f32.c ****     {
 136:../User/DSP/arm_atan2_f32.c ****         *result=arm_atan_f32(y/x);
  67              		.loc 1 136 17
  68 0020 D7ED036A 		vldr.32	s13, [r7, #12]
  69 0024 97ED027A 		vldr.32	s14, [r7, #8]
  70 0028 C6EE877A 		vdiv.f32	s15, s13, s14
  71 002c C7ED1F7A 		vstr.32	s15, [r7, #124]
  72              	.LBB24:
  73              	.LBB25:
  70:../User/DSP/arm_atan2_f32.c ****    float32_t res=0.0f;
  74              		.loc 1 70 8
  75 0030 0023     		movs	r3, #0
  76 0032 BB67     		str	r3, [r7, #120]
  71:../User/DSP/arm_atan2_f32.c **** 
  77              		.loc 1 71 14
  78 0034 4FF00003 		mov	r3, #0
  79 0038 7B67     		str	r3, [r7, #116]	@ float
  73:../User/DSP/arm_atan2_f32.c ****    {
  80              		.loc 1 73 7
  81 003a D7ED1F7A 		vldr.32	s15, [r7, #124]
  82 003e F5EEC07A 		vcmpe.f32	s15, #0
  83 0042 F1EE10FA 		vmrs	APSR_nzcv, FPSCR
  84 0046 07D5     		bpl	.L4
  75:../User/DSP/arm_atan2_f32.c ****       x=-x;
  85              		.loc 1 75 11
  86 0048 0123     		movs	r3, #1
  87 004a BB67     		str	r3, [r7, #120]
  76:../User/DSP/arm_atan2_f32.c ****    }
  88              		.loc 1 76 8
  89 004c D7ED1F7A 		vldr.32	s15, [r7, #124]
  90 0050 F1EE677A 		vneg.f32	s15, s15
ARM GAS  C:\Users\ZShuai\AppData\Local\Temp\ccWUQRFS.s 			page 5


  91 0054 C7ED1F7A 		vstr.32	s15, [r7, #124]
  92              	.L4:
  79:../User/DSP/arm_atan2_f32.c ****    {
  93              		.loc 1 79 7
  94 0058 D7ED1F7A 		vldr.32	s15, [r7, #124]
  95 005c B7EE007A 		vmov.f32	s14, #1.0e+0
  96 0060 F4EEC77A 		vcmpe.f32	s15, s14
  97 0064 F1EE10FA 		vmrs	APSR_nzcv, FPSCR
  98 0068 31DD     		ble	.L69
  81:../User/DSP/arm_atan2_f32.c ****       res = PIHALFF32 - arm_atan_limited_f32(x);
  99              		.loc 1 81 9
 100 006a F7EE006A 		vmov.f32	s13, #1.0e+0
 101 006e 97ED1F7A 		vldr.32	s14, [r7, #124]
 102 0072 C6EE877A 		vdiv.f32	s15, s13, s14
 103 0076 C7ED1F7A 		vstr.32	s15, [r7, #124]
 104 007a FB6F     		ldr	r3, [r7, #124]	@ float
 105 007c 3B67     		str	r3, [r7, #112]	@ float
 106              	.LBB26:
 107              	.LBB27:
  57:../User/DSP/arm_atan2_f32.c ****     int i=1;
 108              		.loc 1 57 15
 109 007e B54B     		ldr	r3, .L76
 110 0080 FB66     		str	r3, [r7, #108]	@ float
  58:../User/DSP/arm_atan2_f32.c ****     for(i=1;i<ATAN2_NB_COEFS_F32;i++)
 111              		.loc 1 58 9
 112 0082 0123     		movs	r3, #1
 113 0084 BB66     		str	r3, [r7, #104]
  59:../User/DSP/arm_atan2_f32.c ****     {
 114              		.loc 1 59 10
 115 0086 0123     		movs	r3, #1
 116 0088 BB66     		str	r3, [r7, #104]
  59:../User/DSP/arm_atan2_f32.c ****     {
 117              		.loc 1 59 5
 118 008a 14E0     		b	.L8
 119              	.L9:
  61:../User/DSP/arm_atan2_f32.c ****     }
 120              		.loc 1 61 16
 121 008c 97ED1C7A 		vldr.32	s14, [r7, #112]
 122 0090 D7ED1B7A 		vldr.32	s15, [r7, #108]
 123 0094 27EE277A 		vmul.f32	s14, s14, s15
  61:../User/DSP/arm_atan2_f32.c ****     }
 124              		.loc 1 61 59
 125 0098 BB6E     		ldr	r3, [r7, #104]
 126 009a C3F10903 		rsb	r3, r3, #9
  61:../User/DSP/arm_atan2_f32.c ****     }
 127              		.loc 1 61 38
 128 009e AE4A     		ldr	r2, .L76+4
 129 00a0 9B00     		lsls	r3, r3, #2
 130 00a2 1344     		add	r3, r3, r2
 131 00a4 D3ED007A 		vldr.32	s15, [r3]
  61:../User/DSP/arm_atan2_f32.c ****     }
 132              		.loc 1 61 13
 133 00a8 77EE277A 		vadd.f32	s15, s14, s15
 134 00ac C7ED1B7A 		vstr.32	s15, [r7, #108]
  59:../User/DSP/arm_atan2_f32.c ****     {
 135              		.loc 1 59 35
 136 00b0 BB6E     		ldr	r3, [r7, #104]
ARM GAS  C:\Users\ZShuai\AppData\Local\Temp\ccWUQRFS.s 			page 6


 137 00b2 0133     		adds	r3, r3, #1
 138 00b4 BB66     		str	r3, [r7, #104]
 139              	.L8:
  59:../User/DSP/arm_atan2_f32.c ****     {
 140              		.loc 1 59 14
 141 00b6 BB6E     		ldr	r3, [r7, #104]
 142 00b8 092B     		cmp	r3, #9
 143 00ba E7DD     		ble	.L9
  65:../User/DSP/arm_atan2_f32.c **** }
 144              		.loc 1 65 11
 145 00bc D7ED1B7A 		vldr.32	s15, [r7, #108]
 146              	.LBE27:
 147              	.LBE26:
  82:../User/DSP/arm_atan2_f32.c ****    }
 148              		.loc 1 82 11
 149 00c0 9FEDA67A 		vldr.32	s14, .L76+8
 150 00c4 77EE677A 		vsub.f32	s15, s14, s15
 151 00c8 C7ED1D7A 		vstr.32	s15, [r7, #116]
 152 00cc 28E0     		b	.L11
 153              	.L69:
 154 00ce FB6F     		ldr	r3, [r7, #124]	@ float
 155 00d0 7B66     		str	r3, [r7, #100]	@ float
 156              	.LBB28:
 157              	.LBB29:
  57:../User/DSP/arm_atan2_f32.c ****     int i=1;
 158              		.loc 1 57 15
 159 00d2 A04B     		ldr	r3, .L76
 160 00d4 3B66     		str	r3, [r7, #96]	@ float
  58:../User/DSP/arm_atan2_f32.c ****     for(i=1;i<ATAN2_NB_COEFS_F32;i++)
 161              		.loc 1 58 9
 162 00d6 0123     		movs	r3, #1
 163 00d8 FB65     		str	r3, [r7, #92]
  59:../User/DSP/arm_atan2_f32.c ****     {
 164              		.loc 1 59 10
 165 00da 0123     		movs	r3, #1
 166 00dc FB65     		str	r3, [r7, #92]
  59:../User/DSP/arm_atan2_f32.c ****     {
 167              		.loc 1 59 5
 168 00de 14E0     		b	.L12
 169              	.L13:
  61:../User/DSP/arm_atan2_f32.c ****     }
 170              		.loc 1 61 16
 171 00e0 97ED197A 		vldr.32	s14, [r7, #100]
 172 00e4 D7ED187A 		vldr.32	s15, [r7, #96]
 173 00e8 27EE277A 		vmul.f32	s14, s14, s15
  61:../User/DSP/arm_atan2_f32.c ****     }
 174              		.loc 1 61 59
 175 00ec FB6D     		ldr	r3, [r7, #92]
 176 00ee C3F10903 		rsb	r3, r3, #9
  61:../User/DSP/arm_atan2_f32.c ****     }
 177              		.loc 1 61 38
 178 00f2 994A     		ldr	r2, .L76+4
 179 00f4 9B00     		lsls	r3, r3, #2
 180 00f6 1344     		add	r3, r3, r2
 181 00f8 D3ED007A 		vldr.32	s15, [r3]
  61:../User/DSP/arm_atan2_f32.c ****     }
 182              		.loc 1 61 13
ARM GAS  C:\Users\ZShuai\AppData\Local\Temp\ccWUQRFS.s 			page 7


 183 00fc 77EE277A 		vadd.f32	s15, s14, s15
 184 0100 C7ED187A 		vstr.32	s15, [r7, #96]
  59:../User/DSP/arm_atan2_f32.c ****     {
 185              		.loc 1 59 35
 186 0104 FB6D     		ldr	r3, [r7, #92]
 187 0106 0133     		adds	r3, r3, #1
 188 0108 FB65     		str	r3, [r7, #92]
 189              	.L12:
  59:../User/DSP/arm_atan2_f32.c ****     {
 190              		.loc 1 59 14
 191 010a FB6D     		ldr	r3, [r7, #92]
 192 010c 092B     		cmp	r3, #9
 193 010e E7DD     		ble	.L13
  65:../User/DSP/arm_atan2_f32.c **** }
 194              		.loc 1 65 11
 195 0110 D7ED187A 		vldr.32	s15, [r7, #96]
 196              	.LBE29:
 197              	.LBE28:
  86:../User/DSP/arm_atan2_f32.c ****    }
 198              		.loc 1 86 10
 199 0114 97ED1D7A 		vldr.32	s14, [r7, #116]
 200 0118 77EE277A 		vadd.f32	s15, s14, s15
 201 011c C7ED1D7A 		vstr.32	s15, [r7, #116]
 202              	.L11:
  90:../User/DSP/arm_atan2_f32.c ****    {
 203              		.loc 1 90 7
 204 0120 BB6F     		ldr	r3, [r7, #120]
 205 0122 002B     		cmp	r3, #0
 206 0124 05D0     		beq	.L15
  92:../User/DSP/arm_atan2_f32.c ****    }
 207              		.loc 1 92 10
 208 0126 D7ED1D7A 		vldr.32	s15, [r7, #116]
 209 012a F1EE677A 		vneg.f32	s15, s15
 210 012e C7ED1D7A 		vstr.32	s15, [r7, #116]
 211              	.L15:
  95:../User/DSP/arm_atan2_f32.c **** }
 212              		.loc 1 95 10
 213 0132 7A6F     		ldr	r2, [r7, #116]	@ float
 214              	.LBE25:
 215              	.LBE24:
 216              		.loc 1 136 16
 217 0134 7B68     		ldr	r3, [r7, #4]
 218 0136 1A60     		str	r2, [r3]	@ float
 137:../User/DSP/arm_atan2_f32.c ****         return(ARM_MATH_SUCCESS);
 219              		.loc 1 137 15
 220 0138 0023     		movs	r3, #0
 221 013a 75E1     		b	.L17
 222              	.L68:
 138:../User/DSP/arm_atan2_f32.c ****     }
 139:../User/DSP/arm_atan2_f32.c ****     if (x < 0.0f)
 223              		.loc 1 139 8
 224 013c D7ED027A 		vldr.32	s15, [r7, #8]
 225 0140 F5EEC07A 		vcmpe.f32	s15, #0
 226 0144 F1EE10FA 		vmrs	APSR_nzcv, FPSCR
 227 0148 40F14D81 		bpl	.L70
 140:../User/DSP/arm_atan2_f32.c ****     {
 141:../User/DSP/arm_atan2_f32.c ****         if (y > 0.0f)
ARM GAS  C:\Users\ZShuai\AppData\Local\Temp\ccWUQRFS.s 			page 8


 228              		.loc 1 141 12
 229 014c D7ED037A 		vldr.32	s15, [r7, #12]
 230 0150 F5EEC07A 		vcmpe.f32	s15, #0
 231 0154 F1EE10FA 		vmrs	APSR_nzcv, FPSCR
 232 0158 40F39380 		ble	.L71
 142:../User/DSP/arm_atan2_f32.c ****         {
 143:../User/DSP/arm_atan2_f32.c ****            *result=arm_atan_f32(y/x) + PI;
 233              		.loc 1 143 20
 234 015c D7ED036A 		vldr.32	s13, [r7, #12]
 235 0160 97ED027A 		vldr.32	s14, [r7, #8]
 236 0164 C6EE877A 		vdiv.f32	s15, s13, s14
 237 0168 C7ED167A 		vstr.32	s15, [r7, #88]
 238              	.LBB30:
 239              	.LBB31:
  70:../User/DSP/arm_atan2_f32.c ****    float32_t res=0.0f;
 240              		.loc 1 70 8
 241 016c 0023     		movs	r3, #0
 242 016e 7B65     		str	r3, [r7, #84]
  71:../User/DSP/arm_atan2_f32.c **** 
 243              		.loc 1 71 14
 244 0170 4FF00003 		mov	r3, #0
 245 0174 3B65     		str	r3, [r7, #80]	@ float
  73:../User/DSP/arm_atan2_f32.c ****    {
 246              		.loc 1 73 7
 247 0176 D7ED167A 		vldr.32	s15, [r7, #88]
 248 017a F5EEC07A 		vcmpe.f32	s15, #0
 249 017e F1EE10FA 		vmrs	APSR_nzcv, FPSCR
 250 0182 07D5     		bpl	.L22
  75:../User/DSP/arm_atan2_f32.c ****       x=-x;
 251              		.loc 1 75 11
 252 0184 0123     		movs	r3, #1
 253 0186 7B65     		str	r3, [r7, #84]
  76:../User/DSP/arm_atan2_f32.c ****    }
 254              		.loc 1 76 8
 255 0188 D7ED167A 		vldr.32	s15, [r7, #88]
 256 018c F1EE677A 		vneg.f32	s15, s15
 257 0190 C7ED167A 		vstr.32	s15, [r7, #88]
 258              	.L22:
  79:../User/DSP/arm_atan2_f32.c ****    {
 259              		.loc 1 79 7
 260 0194 D7ED167A 		vldr.32	s15, [r7, #88]
 261 0198 B7EE007A 		vmov.f32	s14, #1.0e+0
 262 019c F4EEC77A 		vcmpe.f32	s15, s14
 263 01a0 F1EE10FA 		vmrs	APSR_nzcv, FPSCR
 264 01a4 31DD     		ble	.L72
  81:../User/DSP/arm_atan2_f32.c ****       res = PIHALFF32 - arm_atan_limited_f32(x);
 265              		.loc 1 81 9
 266 01a6 F7EE006A 		vmov.f32	s13, #1.0e+0
 267 01aa 97ED167A 		vldr.32	s14, [r7, #88]
 268 01ae C6EE877A 		vdiv.f32	s15, s13, s14
 269 01b2 C7ED167A 		vstr.32	s15, [r7, #88]
 270 01b6 BB6D     		ldr	r3, [r7, #88]	@ float
 271 01b8 FB64     		str	r3, [r7, #76]	@ float
 272              	.LBB32:
 273              	.LBB33:
  57:../User/DSP/arm_atan2_f32.c ****     int i=1;
 274              		.loc 1 57 15
ARM GAS  C:\Users\ZShuai\AppData\Local\Temp\ccWUQRFS.s 			page 9


 275 01ba 664B     		ldr	r3, .L76
 276 01bc BB64     		str	r3, [r7, #72]	@ float
  58:../User/DSP/arm_atan2_f32.c ****     for(i=1;i<ATAN2_NB_COEFS_F32;i++)
 277              		.loc 1 58 9
 278 01be 0123     		movs	r3, #1
 279 01c0 7B64     		str	r3, [r7, #68]
  59:../User/DSP/arm_atan2_f32.c ****     {
 280              		.loc 1 59 10
 281 01c2 0123     		movs	r3, #1
 282 01c4 7B64     		str	r3, [r7, #68]
  59:../User/DSP/arm_atan2_f32.c ****     {
 283              		.loc 1 59 5
 284 01c6 14E0     		b	.L26
 285              	.L27:
  61:../User/DSP/arm_atan2_f32.c ****     }
 286              		.loc 1 61 16
 287 01c8 97ED137A 		vldr.32	s14, [r7, #76]
 288 01cc D7ED127A 		vldr.32	s15, [r7, #72]
 289 01d0 27EE277A 		vmul.f32	s14, s14, s15
  61:../User/DSP/arm_atan2_f32.c ****     }
 290              		.loc 1 61 59
 291 01d4 7B6C     		ldr	r3, [r7, #68]
 292 01d6 C3F10903 		rsb	r3, r3, #9
  61:../User/DSP/arm_atan2_f32.c ****     }
 293              		.loc 1 61 38
 294 01da 5F4A     		ldr	r2, .L76+4
 295 01dc 9B00     		lsls	r3, r3, #2
 296 01de 1344     		add	r3, r3, r2
 297 01e0 D3ED007A 		vldr.32	s15, [r3]
  61:../User/DSP/arm_atan2_f32.c ****     }
 298              		.loc 1 61 13
 299 01e4 77EE277A 		vadd.f32	s15, s14, s15
 300 01e8 C7ED127A 		vstr.32	s15, [r7, #72]
  59:../User/DSP/arm_atan2_f32.c ****     {
 301              		.loc 1 59 35
 302 01ec 7B6C     		ldr	r3, [r7, #68]
 303 01ee 0133     		adds	r3, r3, #1
 304 01f0 7B64     		str	r3, [r7, #68]
 305              	.L26:
  59:../User/DSP/arm_atan2_f32.c ****     {
 306              		.loc 1 59 14
 307 01f2 7B6C     		ldr	r3, [r7, #68]
 308 01f4 092B     		cmp	r3, #9
 309 01f6 E7DD     		ble	.L27
  65:../User/DSP/arm_atan2_f32.c **** }
 310              		.loc 1 65 11
 311 01f8 D7ED127A 		vldr.32	s15, [r7, #72]
 312              	.LBE33:
 313              	.LBE32:
  82:../User/DSP/arm_atan2_f32.c ****    }
 314              		.loc 1 82 11
 315 01fc 9FED577A 		vldr.32	s14, .L76+8
 316 0200 77EE677A 		vsub.f32	s15, s14, s15
 317 0204 C7ED147A 		vstr.32	s15, [r7, #80]
 318 0208 28E0     		b	.L29
 319              	.L72:
 320 020a BB6D     		ldr	r3, [r7, #88]	@ float
ARM GAS  C:\Users\ZShuai\AppData\Local\Temp\ccWUQRFS.s 			page 10


 321 020c 3B64     		str	r3, [r7, #64]	@ float
 322              	.LBB34:
 323              	.LBB35:
  57:../User/DSP/arm_atan2_f32.c ****     int i=1;
 324              		.loc 1 57 15
 325 020e 514B     		ldr	r3, .L76
 326 0210 FB63     		str	r3, [r7, #60]	@ float
  58:../User/DSP/arm_atan2_f32.c ****     for(i=1;i<ATAN2_NB_COEFS_F32;i++)
 327              		.loc 1 58 9
 328 0212 0123     		movs	r3, #1
 329 0214 BB63     		str	r3, [r7, #56]
  59:../User/DSP/arm_atan2_f32.c ****     {
 330              		.loc 1 59 10
 331 0216 0123     		movs	r3, #1
 332 0218 BB63     		str	r3, [r7, #56]
  59:../User/DSP/arm_atan2_f32.c ****     {
 333              		.loc 1 59 5
 334 021a 14E0     		b	.L30
 335              	.L31:
  61:../User/DSP/arm_atan2_f32.c ****     }
 336              		.loc 1 61 16
 337 021c 97ED107A 		vldr.32	s14, [r7, #64]
 338 0220 D7ED0F7A 		vldr.32	s15, [r7, #60]
 339 0224 27EE277A 		vmul.f32	s14, s14, s15
  61:../User/DSP/arm_atan2_f32.c ****     }
 340              		.loc 1 61 59
 341 0228 BB6B     		ldr	r3, [r7, #56]
 342 022a C3F10903 		rsb	r3, r3, #9
  61:../User/DSP/arm_atan2_f32.c ****     }
 343              		.loc 1 61 38
 344 022e 4A4A     		ldr	r2, .L76+4
 345 0230 9B00     		lsls	r3, r3, #2
 346 0232 1344     		add	r3, r3, r2
 347 0234 D3ED007A 		vldr.32	s15, [r3]
  61:../User/DSP/arm_atan2_f32.c ****     }
 348              		.loc 1 61 13
 349 0238 77EE277A 		vadd.f32	s15, s14, s15
 350 023c C7ED0F7A 		vstr.32	s15, [r7, #60]
  59:../User/DSP/arm_atan2_f32.c ****     {
 351              		.loc 1 59 35
 352 0240 BB6B     		ldr	r3, [r7, #56]
 353 0242 0133     		adds	r3, r3, #1
 354 0244 BB63     		str	r3, [r7, #56]
 355              	.L30:
  59:../User/DSP/arm_atan2_f32.c ****     {
 356              		.loc 1 59 14
 357 0246 BB6B     		ldr	r3, [r7, #56]
 358 0248 092B     		cmp	r3, #9
 359 024a E7DD     		ble	.L31
  65:../User/DSP/arm_atan2_f32.c **** }
 360              		.loc 1 65 11
 361 024c D7ED0F7A 		vldr.32	s15, [r7, #60]
 362              	.LBE35:
 363              	.LBE34:
  86:../User/DSP/arm_atan2_f32.c ****    }
 364              		.loc 1 86 10
 365 0250 97ED147A 		vldr.32	s14, [r7, #80]
ARM GAS  C:\Users\ZShuai\AppData\Local\Temp\ccWUQRFS.s 			page 11


 366 0254 77EE277A 		vadd.f32	s15, s14, s15
 367 0258 C7ED147A 		vstr.32	s15, [r7, #80]
 368              	.L29:
  90:../User/DSP/arm_atan2_f32.c ****    {
 369              		.loc 1 90 7
 370 025c 7B6D     		ldr	r3, [r7, #84]
 371 025e 002B     		cmp	r3, #0
 372 0260 05D0     		beq	.L33
  92:../User/DSP/arm_atan2_f32.c ****    }
 373              		.loc 1 92 10
 374 0262 D7ED147A 		vldr.32	s15, [r7, #80]
 375 0266 F1EE677A 		vneg.f32	s15, s15
 376 026a C7ED147A 		vstr.32	s15, [r7, #80]
 377              	.L33:
  95:../User/DSP/arm_atan2_f32.c **** }
 378              		.loc 1 95 10
 379 026e D7ED147A 		vldr.32	s15, [r7, #80]
 380              	.LBE31:
 381              	.LBE30:
 382              		.loc 1 143 38
 383 0272 9FED3B7A 		vldr.32	s14, .L76+12
 384 0276 77EE877A 		vadd.f32	s15, s15, s14
 385              		.loc 1 143 19
 386 027a 7B68     		ldr	r3, [r7, #4]
 387 027c C3ED007A 		vstr.32	s15, [r3]
 388 0280 AFE0     		b	.L35
 389              	.L71:
 144:../User/DSP/arm_atan2_f32.c ****         }
 145:../User/DSP/arm_atan2_f32.c ****         else if (y < 0.0f)
 390              		.loc 1 145 17
 391 0282 D7ED037A 		vldr.32	s15, [r7, #12]
 392 0286 F5EEC07A 		vcmpe.f32	s15, #0
 393 028a F1EE10FA 		vmrs	APSR_nzcv, FPSCR
 394 028e 40F19C80 		bpl	.L73
 146:../User/DSP/arm_atan2_f32.c ****         {
 147:../User/DSP/arm_atan2_f32.c ****            *result=arm_atan_f32(y/x) - PI;
 395              		.loc 1 147 20
 396 0292 D7ED036A 		vldr.32	s13, [r7, #12]
 397 0296 97ED027A 		vldr.32	s14, [r7, #8]
 398 029a C6EE877A 		vdiv.f32	s15, s13, s14
 399 029e C7ED0D7A 		vstr.32	s15, [r7, #52]
 400              	.LBB36:
 401              	.LBB37:
  70:../User/DSP/arm_atan2_f32.c ****    float32_t res=0.0f;
 402              		.loc 1 70 8
 403 02a2 0023     		movs	r3, #0
 404 02a4 3B63     		str	r3, [r7, #48]
  71:../User/DSP/arm_atan2_f32.c **** 
 405              		.loc 1 71 14
 406 02a6 4FF00003 		mov	r3, #0
 407 02aa FB62     		str	r3, [r7, #44]	@ float
  73:../User/DSP/arm_atan2_f32.c ****    {
 408              		.loc 1 73 7
 409 02ac D7ED0D7A 		vldr.32	s15, [r7, #52]
 410 02b0 F5EEC07A 		vcmpe.f32	s15, #0
 411 02b4 F1EE10FA 		vmrs	APSR_nzcv, FPSCR
 412 02b8 07D5     		bpl	.L38
ARM GAS  C:\Users\ZShuai\AppData\Local\Temp\ccWUQRFS.s 			page 12


  75:../User/DSP/arm_atan2_f32.c ****       x=-x;
 413              		.loc 1 75 11
 414 02ba 0123     		movs	r3, #1
 415 02bc 3B63     		str	r3, [r7, #48]
  76:../User/DSP/arm_atan2_f32.c ****    }
 416              		.loc 1 76 8
 417 02be D7ED0D7A 		vldr.32	s15, [r7, #52]
 418 02c2 F1EE677A 		vneg.f32	s15, s15
 419 02c6 C7ED0D7A 		vstr.32	s15, [r7, #52]
 420              	.L38:
  79:../User/DSP/arm_atan2_f32.c ****    {
 421              		.loc 1 79 7
 422 02ca D7ED0D7A 		vldr.32	s15, [r7, #52]
 423 02ce B7EE007A 		vmov.f32	s14, #1.0e+0
 424 02d2 F4EEC77A 		vcmpe.f32	s15, s14
 425 02d6 F1EE10FA 		vmrs	APSR_nzcv, FPSCR
 426 02da 31DD     		ble	.L74
  81:../User/DSP/arm_atan2_f32.c ****       res = PIHALFF32 - arm_atan_limited_f32(x);
 427              		.loc 1 81 9
 428 02dc F7EE006A 		vmov.f32	s13, #1.0e+0
 429 02e0 97ED0D7A 		vldr.32	s14, [r7, #52]
 430 02e4 C6EE877A 		vdiv.f32	s15, s13, s14
 431 02e8 C7ED0D7A 		vstr.32	s15, [r7, #52]
 432 02ec 7B6B     		ldr	r3, [r7, #52]	@ float
 433 02ee BB62     		str	r3, [r7, #40]	@ float
 434              	.LBB38:
 435              	.LBB39:
  57:../User/DSP/arm_atan2_f32.c ****     int i=1;
 436              		.loc 1 57 15
 437 02f0 184B     		ldr	r3, .L76
 438 02f2 7B62     		str	r3, [r7, #36]	@ float
  58:../User/DSP/arm_atan2_f32.c ****     for(i=1;i<ATAN2_NB_COEFS_F32;i++)
 439              		.loc 1 58 9
 440 02f4 0123     		movs	r3, #1
 441 02f6 3B62     		str	r3, [r7, #32]
  59:../User/DSP/arm_atan2_f32.c ****     {
 442              		.loc 1 59 10
 443 02f8 0123     		movs	r3, #1
 444 02fa 3B62     		str	r3, [r7, #32]
  59:../User/DSP/arm_atan2_f32.c ****     {
 445              		.loc 1 59 5
 446 02fc 14E0     		b	.L42
 447              	.L43:
  61:../User/DSP/arm_atan2_f32.c ****     }
 448              		.loc 1 61 16
 449 02fe 97ED0A7A 		vldr.32	s14, [r7, #40]
 450 0302 D7ED097A 		vldr.32	s15, [r7, #36]
 451 0306 27EE277A 		vmul.f32	s14, s14, s15
  61:../User/DSP/arm_atan2_f32.c ****     }
 452              		.loc 1 61 59
 453 030a 3B6A     		ldr	r3, [r7, #32]
 454 030c C3F10903 		rsb	r3, r3, #9
  61:../User/DSP/arm_atan2_f32.c ****     }
 455              		.loc 1 61 38
 456 0310 114A     		ldr	r2, .L76+4
 457 0312 9B00     		lsls	r3, r3, #2
 458 0314 1344     		add	r3, r3, r2
ARM GAS  C:\Users\ZShuai\AppData\Local\Temp\ccWUQRFS.s 			page 13


 459 0316 D3ED007A 		vldr.32	s15, [r3]
  61:../User/DSP/arm_atan2_f32.c ****     }
 460              		.loc 1 61 13
 461 031a 77EE277A 		vadd.f32	s15, s14, s15
 462 031e C7ED097A 		vstr.32	s15, [r7, #36]
  59:../User/DSP/arm_atan2_f32.c ****     {
 463              		.loc 1 59 35
 464 0322 3B6A     		ldr	r3, [r7, #32]
 465 0324 0133     		adds	r3, r3, #1
 466 0326 3B62     		str	r3, [r7, #32]
 467              	.L42:
  59:../User/DSP/arm_atan2_f32.c ****     {
 468              		.loc 1 59 14
 469 0328 3B6A     		ldr	r3, [r7, #32]
 470 032a 092B     		cmp	r3, #9
 471 032c E7DD     		ble	.L43
  65:../User/DSP/arm_atan2_f32.c **** }
 472              		.loc 1 65 11
 473 032e D7ED097A 		vldr.32	s15, [r7, #36]
 474              	.LBE39:
 475              	.LBE38:
  82:../User/DSP/arm_atan2_f32.c ****    }
 476              		.loc 1 82 11
 477 0332 9FED0A7A 		vldr.32	s14, .L76+8
 478 0336 77EE677A 		vsub.f32	s15, s14, s15
 479 033a C7ED0B7A 		vstr.32	s15, [r7, #44]
 480 033e 31E0     		b	.L45
 481              	.L74:
 482 0340 7B6B     		ldr	r3, [r7, #52]	@ float
 483 0342 FB61     		str	r3, [r7, #28]	@ float
 484              	.LBB40:
 485              	.LBB41:
  57:../User/DSP/arm_atan2_f32.c ****     int i=1;
 486              		.loc 1 57 15
 487 0344 034B     		ldr	r3, .L76
 488 0346 BB61     		str	r3, [r7, #24]	@ float
  58:../User/DSP/arm_atan2_f32.c ****     for(i=1;i<ATAN2_NB_COEFS_F32;i++)
 489              		.loc 1 58 9
 490 0348 0123     		movs	r3, #1
 491 034a 7B61     		str	r3, [r7, #20]
  59:../User/DSP/arm_atan2_f32.c ****     {
 492              		.loc 1 59 10
 493 034c 0123     		movs	r3, #1
 494 034e 7B61     		str	r3, [r7, #20]
  59:../User/DSP/arm_atan2_f32.c ****     {
 495              		.loc 1 59 5
 496 0350 1DE0     		b	.L46
 497              	.L77:
 498 0352 00BF     		.align	2
 499              	.L76:
 500 0354 A59204BD 		.word	-1123773787
 501 0358 00000000 		.word	atan2_coefs_f32
 502 035c DB0FC93F 		.word	1070141403
 503 0360 DB0F4940 		.word	1078530011
 504              	.L47:
  61:../User/DSP/arm_atan2_f32.c ****     }
 505              		.loc 1 61 16
ARM GAS  C:\Users\ZShuai\AppData\Local\Temp\ccWUQRFS.s 			page 14


 506 0364 97ED077A 		vldr.32	s14, [r7, #28]
 507 0368 D7ED067A 		vldr.32	s15, [r7, #24]
 508 036c 27EE277A 		vmul.f32	s14, s14, s15
  61:../User/DSP/arm_atan2_f32.c ****     }
 509              		.loc 1 61 59
 510 0370 7B69     		ldr	r3, [r7, #20]
 511 0372 C3F10903 		rsb	r3, r3, #9
  61:../User/DSP/arm_atan2_f32.c ****     }
 512              		.loc 1 61 38
 513 0376 2F4A     		ldr	r2, .L78
 514 0378 9B00     		lsls	r3, r3, #2
 515 037a 1344     		add	r3, r3, r2
 516 037c D3ED007A 		vldr.32	s15, [r3]
  61:../User/DSP/arm_atan2_f32.c ****     }
 517              		.loc 1 61 13
 518 0380 77EE277A 		vadd.f32	s15, s14, s15
 519 0384 C7ED067A 		vstr.32	s15, [r7, #24]
  59:../User/DSP/arm_atan2_f32.c ****     {
 520              		.loc 1 59 35
 521 0388 7B69     		ldr	r3, [r7, #20]
 522 038a 0133     		adds	r3, r3, #1
 523 038c 7B61     		str	r3, [r7, #20]
 524              	.L46:
  59:../User/DSP/arm_atan2_f32.c ****     {
 525              		.loc 1 59 14
 526 038e 7B69     		ldr	r3, [r7, #20]
 527 0390 092B     		cmp	r3, #9
 528 0392 E7DD     		ble	.L47
  65:../User/DSP/arm_atan2_f32.c **** }
 529              		.loc 1 65 11
 530 0394 D7ED067A 		vldr.32	s15, [r7, #24]
 531              	.LBE41:
 532              	.LBE40:
  86:../User/DSP/arm_atan2_f32.c ****    }
 533              		.loc 1 86 10
 534 0398 97ED0B7A 		vldr.32	s14, [r7, #44]
 535 039c 77EE277A 		vadd.f32	s15, s14, s15
 536 03a0 C7ED0B7A 		vstr.32	s15, [r7, #44]
 537              	.L45:
  90:../User/DSP/arm_atan2_f32.c ****    {
 538              		.loc 1 90 7
 539 03a4 3B6B     		ldr	r3, [r7, #48]
 540 03a6 002B     		cmp	r3, #0
 541 03a8 05D0     		beq	.L49
  92:../User/DSP/arm_atan2_f32.c ****    }
 542              		.loc 1 92 10
 543 03aa D7ED0B7A 		vldr.32	s15, [r7, #44]
 544 03ae F1EE677A 		vneg.f32	s15, s15
 545 03b2 C7ED0B7A 		vstr.32	s15, [r7, #44]
 546              	.L49:
  95:../User/DSP/arm_atan2_f32.c **** }
 547              		.loc 1 95 10
 548 03b6 D7ED0B7A 		vldr.32	s15, [r7, #44]
 549              	.LBE37:
 550              	.LBE36:
 551              		.loc 1 147 38
 552 03ba 9FED1F7A 		vldr.32	s14, .L78+4
ARM GAS  C:\Users\ZShuai\AppData\Local\Temp\ccWUQRFS.s 			page 15


 553 03be 77EEC77A 		vsub.f32	s15, s15, s14
 554              		.loc 1 147 19
 555 03c2 7B68     		ldr	r3, [r7, #4]
 556 03c4 C3ED007A 		vstr.32	s15, [r3]
 557 03c8 0BE0     		b	.L35
 558              	.L73:
 148:../User/DSP/arm_atan2_f32.c ****         }
 149:../User/DSP/arm_atan2_f32.c ****         else
 150:../User/DSP/arm_atan2_f32.c ****         {
 151:../User/DSP/arm_atan2_f32.c ****             if (signbit(y))
 559              		.loc 1 151 17
 560 03ca FB68     		ldr	r3, [r7, #12]
 561 03cc 03F00043 		and	r3, r3, #-2147483648
 562              		.loc 1 151 16
 563 03d0 002B     		cmp	r3, #0
 564 03d2 03D0     		beq	.L51
 152:../User/DSP/arm_atan2_f32.c ****             {
 153:../User/DSP/arm_atan2_f32.c ****                *result= -PI;
 565              		.loc 1 153 23
 566 03d4 7B68     		ldr	r3, [r7, #4]
 567 03d6 194A     		ldr	r2, .L78+8
 568 03d8 1A60     		str	r2, [r3]	@ float
 569 03da 02E0     		b	.L35
 570              	.L51:
 154:../User/DSP/arm_atan2_f32.c ****             }
 155:../User/DSP/arm_atan2_f32.c ****             else
 156:../User/DSP/arm_atan2_f32.c ****             {
 157:../User/DSP/arm_atan2_f32.c ****                *result= PI;
 571              		.loc 1 157 23
 572 03dc 7B68     		ldr	r3, [r7, #4]
 573 03de 184A     		ldr	r2, .L78+12
 574 03e0 1A60     		str	r2, [r3]	@ float
 575              	.L35:
 158:../User/DSP/arm_atan2_f32.c ****             }
 159:../User/DSP/arm_atan2_f32.c ****         }
 160:../User/DSP/arm_atan2_f32.c ****         return(ARM_MATH_SUCCESS);
 576              		.loc 1 160 15
 577 03e2 0023     		movs	r3, #0
 578 03e4 20E0     		b	.L17
 579              	.L70:
 161:../User/DSP/arm_atan2_f32.c ****     }
 162:../User/DSP/arm_atan2_f32.c ****     if (x == 0.0f)
 580              		.loc 1 162 8
 581 03e6 D7ED027A 		vldr.32	s15, [r7, #8]
 582 03ea F5EE407A 		vcmp.f32	s15, #0
 583 03ee F1EE10FA 		vmrs	APSR_nzcv, FPSCR
 584 03f2 17D1     		bne	.L52
 163:../User/DSP/arm_atan2_f32.c ****     {
 164:../User/DSP/arm_atan2_f32.c ****         if (y > 0.0f)
 585              		.loc 1 164 12
 586 03f4 D7ED037A 		vldr.32	s15, [r7, #12]
 587 03f8 F5EEC07A 		vcmpe.f32	s15, #0
 588 03fc F1EE10FA 		vmrs	APSR_nzcv, FPSCR
 589 0400 04DD     		ble	.L75
 165:../User/DSP/arm_atan2_f32.c ****         {
 166:../User/DSP/arm_atan2_f32.c ****             *result=PIHALFF32;
 590              		.loc 1 166 20
ARM GAS  C:\Users\ZShuai\AppData\Local\Temp\ccWUQRFS.s 			page 16


 591 0402 7B68     		ldr	r3, [r7, #4]
 592 0404 0F4A     		ldr	r2, .L78+16
 593 0406 1A60     		str	r2, [r3]	@ float
 167:../User/DSP/arm_atan2_f32.c ****             return(ARM_MATH_SUCCESS);
 594              		.loc 1 167 19
 595 0408 0023     		movs	r3, #0
 596 040a 0DE0     		b	.L17
 597              	.L75:
 168:../User/DSP/arm_atan2_f32.c ****         }
 169:../User/DSP/arm_atan2_f32.c ****         if (y < 0.0f)
 598              		.loc 1 169 12
 599 040c D7ED037A 		vldr.32	s15, [r7, #12]
 600 0410 F5EEC07A 		vcmpe.f32	s15, #0
 601 0414 F1EE10FA 		vmrs	APSR_nzcv, FPSCR
 602 0418 04D5     		bpl	.L52
 170:../User/DSP/arm_atan2_f32.c ****         {
 171:../User/DSP/arm_atan2_f32.c ****             *result=-PIHALFF32;
 603              		.loc 1 171 20
 604 041a 7B68     		ldr	r3, [r7, #4]
 605 041c 0A4A     		ldr	r2, .L78+20
 606 041e 1A60     		str	r2, [r3]	@ float
 172:../User/DSP/arm_atan2_f32.c ****             return(ARM_MATH_SUCCESS);
 607              		.loc 1 172 19
 608 0420 0023     		movs	r3, #0
 609 0422 01E0     		b	.L17
 610              	.L52:
 173:../User/DSP/arm_atan2_f32.c ****         }
 174:../User/DSP/arm_atan2_f32.c ****     }
 175:../User/DSP/arm_atan2_f32.c ****     
 176:../User/DSP/arm_atan2_f32.c **** 
 177:../User/DSP/arm_atan2_f32.c ****     return(ARM_MATH_NANINF);
 611              		.loc 1 177 11
 612 0424 6FF00303 		mvn	r3, #3
 613              	.L17:
 178:../User/DSP/arm_atan2_f32.c **** 
 179:../User/DSP/arm_atan2_f32.c **** }
 614              		.loc 1 179 1
 615 0428 1846     		mov	r0, r3
 616 042a 8437     		adds	r7, r7, #132
 617              	.LCFI3:
 618              		.cfi_def_cfa_offset 4
 619 042c BD46     		mov	sp, r7
 620              	.LCFI4:
 621              		.cfi_def_cfa_register 13
 622              		@ sp needed
 623 042e 5DF8047B 		ldr	r7, [sp], #4
 624              	.LCFI5:
 625              		.cfi_restore 7
 626              		.cfi_def_cfa_offset 0
 627 0432 7047     		bx	lr
 628              	.L79:
 629              		.align	2
 630              	.L78:
 631 0434 00000000 		.word	atan2_coefs_f32
 632 0438 DB0F4940 		.word	1078530011
 633 043c DB0F49C0 		.word	-1068953637
 634 0440 DB0F4940 		.word	1078530011
ARM GAS  C:\Users\ZShuai\AppData\Local\Temp\ccWUQRFS.s 			page 17


 635 0444 DB0FC93F 		.word	1070141403
 636 0448 DB0FC9BF 		.word	-1077342245
 637              		.cfi_endproc
 638              	.LFE105:
 640              		.text
 641              	.Letext0:
 642              		.file 2 "../User/dsp/arm_math_types.h"
ARM GAS  C:\Users\ZShuai\AppData\Local\Temp\ccWUQRFS.s 			page 18

