ARM GAS  C:\Users\ZShuai\AppData\Local\Temp\ccswPVQl.s 			page 1


   1              		.cpu cortex-m4
   2              		.arch armv7e-m
   3              		.fpu fpv4-sp-d16
   4              		.eabi_attribute 27, 1
   5              		.eabi_attribute 28, 1
   6              		.eabi_attribute 20, 1
   7              		.eabi_attribute 21, 1
   8              		.eabi_attribute 23, 3
   9              		.eabi_attribute 24, 1
  10              		.eabi_attribute 25, 1
  11              		.eabi_attribute 26, 1
  12              		.eabi_attribute 30, 6
  13              		.eabi_attribute 34, 1
  14              		.eabi_attribute 18, 4
  15              		.file	"n32g430_spi.c"
  16              		.text
  17              	.Ltext0:
  18              		.cfi_sections	.debug_frame
  19              		.file 1 "../firmware/n32g430_std_periph_driver/src/n32g430_spi.c"
  20              		.section	.text.SPI_I2S_Reset,"ax",%progbits
  21              		.align	1
  22              		.global	SPI_I2S_Reset
  23              		.syntax unified
  24              		.thumb
  25              		.thumb_func
  27              	SPI_I2S_Reset:
  28              	.LFB130:
   1:../firmware/n32g430_std_periph_driver/src/n32g430_spi.c **** /**
   2:../firmware/n32g430_std_periph_driver/src/n32g430_spi.c **** *     Copyright (c) 2022, Nations Technologies Inc.
   3:../firmware/n32g430_std_periph_driver/src/n32g430_spi.c **** * 
   4:../firmware/n32g430_std_periph_driver/src/n32g430_spi.c **** *     All rights reserved.
   5:../firmware/n32g430_std_periph_driver/src/n32g430_spi.c **** *
   6:../firmware/n32g430_std_periph_driver/src/n32g430_spi.c **** *     This software is the exclusive property of Nations Technologies Inc. (Hereinafter 
   7:../firmware/n32g430_std_periph_driver/src/n32g430_spi.c **** * referred to as NATIONS). This software, and the product of NATIONS described herein 
   8:../firmware/n32g430_std_periph_driver/src/n32g430_spi.c **** * (Hereinafter referred to as the Product) are owned by NATIONS under the laws and treaties
   9:../firmware/n32g430_std_periph_driver/src/n32g430_spi.c **** * of the People's Republic of China and other applicable jurisdictions worldwide.
  10:../firmware/n32g430_std_periph_driver/src/n32g430_spi.c **** *
  11:../firmware/n32g430_std_periph_driver/src/n32g430_spi.c **** *     NATIONS does not grant any license under its patents, copyrights, trademarks, or other 
  12:../firmware/n32g430_std_periph_driver/src/n32g430_spi.c **** * intellectual property rights. Names and brands of third party may be mentioned or referred 
  13:../firmware/n32g430_std_periph_driver/src/n32g430_spi.c **** * thereto (if any) for identification purposes only.
  14:../firmware/n32g430_std_periph_driver/src/n32g430_spi.c **** *
  15:../firmware/n32g430_std_periph_driver/src/n32g430_spi.c **** *     NATIONS reserves the right to make changes, corrections, enhancements, modifications, and 
  16:../firmware/n32g430_std_periph_driver/src/n32g430_spi.c **** * improvements to this software at any time without notice. Please contact NATIONS and obtain 
  17:../firmware/n32g430_std_periph_driver/src/n32g430_spi.c **** * the latest version of this software before placing orders.
  18:../firmware/n32g430_std_periph_driver/src/n32g430_spi.c **** 
  19:../firmware/n32g430_std_periph_driver/src/n32g430_spi.c **** *     Although NATIONS has attempted to provide accurate and reliable information, NATIONS assumes 
  20:../firmware/n32g430_std_periph_driver/src/n32g430_spi.c **** * no responsibility for the accuracy and reliability of this software.
  21:../firmware/n32g430_std_periph_driver/src/n32g430_spi.c **** * 
  22:../firmware/n32g430_std_periph_driver/src/n32g430_spi.c **** *     It is the responsibility of the user of this software to properly design, program, and test 
  23:../firmware/n32g430_std_periph_driver/src/n32g430_spi.c **** * the functionality and safety of any application made of this information and any resulting produc
  24:../firmware/n32g430_std_periph_driver/src/n32g430_spi.c **** * In no event shall NATIONS be liable for any direct, indirect, incidental, special,exemplary, or 
  25:../firmware/n32g430_std_periph_driver/src/n32g430_spi.c **** * consequential damages arising in any way out of the use of this software or the Product.
  26:../firmware/n32g430_std_periph_driver/src/n32g430_spi.c **** *
  27:../firmware/n32g430_std_periph_driver/src/n32g430_spi.c **** *     NATIONS Products are neither intended nor warranted for usage in systems or equipment, any
  28:../firmware/n32g430_std_periph_driver/src/n32g430_spi.c **** * malfunction or failure of which may cause loss of human life, bodily injury or severe property 
  29:../firmware/n32g430_std_periph_driver/src/n32g430_spi.c **** * damage. Such applications are deemed, "Insecure Usage".
  30:../firmware/n32g430_std_periph_driver/src/n32g430_spi.c **** *
ARM GAS  C:\Users\ZShuai\AppData\Local\Temp\ccswPVQl.s 			page 2


  31:../firmware/n32g430_std_periph_driver/src/n32g430_spi.c **** *     All Insecure Usage shall be made at user's risk. User shall indemnify NATIONS and hold NATION
  32:../firmware/n32g430_std_periph_driver/src/n32g430_spi.c **** * harmless from and against all claims, costs, damages, and other liabilities, arising from or rela
  33:../firmware/n32g430_std_periph_driver/src/n32g430_spi.c **** * to any customer's Insecure Usage.
  34:../firmware/n32g430_std_periph_driver/src/n32g430_spi.c **** 
  35:../firmware/n32g430_std_periph_driver/src/n32g430_spi.c **** *     Any express or implied warranty with regard to this software or the Product, including,but no
  36:../firmware/n32g430_std_periph_driver/src/n32g430_spi.c **** * limited to, the warranties of merchantability, fitness for a particular purpose and non-infringem
  37:../firmware/n32g430_std_periph_driver/src/n32g430_spi.c **** * are disclaimed to the fullest extent permitted by law.
  38:../firmware/n32g430_std_periph_driver/src/n32g430_spi.c **** 
  39:../firmware/n32g430_std_periph_driver/src/n32g430_spi.c **** *     Unless otherwise explicitly permitted by NATIONS, anyone may not duplicate, modify, transcrib
  40:../firmware/n32g430_std_periph_driver/src/n32g430_spi.c **** * or otherwise distribute this software for any purposes, in whole or in part.
  41:../firmware/n32g430_std_periph_driver/src/n32g430_spi.c **** *
  42:../firmware/n32g430_std_periph_driver/src/n32g430_spi.c **** *     NATIONS products and technologies shall not be used for or incorporated into any products or 
  43:../firmware/n32g430_std_periph_driver/src/n32g430_spi.c **** * whose manufacture, use, or sale is prohibited under any applicable domestic or foreign laws or re
  44:../firmware/n32g430_std_periph_driver/src/n32g430_spi.c **** * User shall comply with any applicable export control laws and regulations promulgated and adminis
  45:../firmware/n32g430_std_periph_driver/src/n32g430_spi.c **** * the governments of any countries asserting jurisdiction over the parties or transactions.
  46:../firmware/n32g430_std_periph_driver/src/n32g430_spi.c **** **/
  47:../firmware/n32g430_std_periph_driver/src/n32g430_spi.c **** 
  48:../firmware/n32g430_std_periph_driver/src/n32g430_spi.c **** /**
  49:../firmware/n32g430_std_periph_driver/src/n32g430_spi.c **** *\*\file      n32g430_spi.c
  50:../firmware/n32g430_std_periph_driver/src/n32g430_spi.c **** *\*\author    Nations
  51:../firmware/n32g430_std_periph_driver/src/n32g430_spi.c **** *\*\version   v1.0.2
  52:../firmware/n32g430_std_periph_driver/src/n32g430_spi.c **** *\*\copyright Copyright (c) 2022, Nations Technologies Inc. All rights reserved. 
  53:../firmware/n32g430_std_periph_driver/src/n32g430_spi.c **** **/
  54:../firmware/n32g430_std_periph_driver/src/n32g430_spi.c **** 
  55:../firmware/n32g430_std_periph_driver/src/n32g430_spi.c **** #include "n32g430_spi.h"
  56:../firmware/n32g430_std_periph_driver/src/n32g430_spi.c **** #include "n32g430_rcc.h"
  57:../firmware/n32g430_std_periph_driver/src/n32g430_spi.c **** 
  58:../firmware/n32g430_std_periph_driver/src/n32g430_spi.c **** /* SPI Driving Functions Declaration */
  59:../firmware/n32g430_std_periph_driver/src/n32g430_spi.c **** 
  60:../firmware/n32g430_std_periph_driver/src/n32g430_spi.c **** /**
  61:../firmware/n32g430_std_periph_driver/src/n32g430_spi.c **** *\*\name    SPI_I2S_Reset.
  62:../firmware/n32g430_std_periph_driver/src/n32g430_spi.c **** *\*\fun     Reset the SPIx registers.
  63:../firmware/n32g430_std_periph_driver/src/n32g430_spi.c **** *\*\param   SPIx :
  64:../firmware/n32g430_std_periph_driver/src/n32g430_spi.c **** *\*\          - SPI1
  65:../firmware/n32g430_std_periph_driver/src/n32g430_spi.c **** *\*\          - SPI2
  66:../firmware/n32g430_std_periph_driver/src/n32g430_spi.c **** *\*\return  none
  67:../firmware/n32g430_std_periph_driver/src/n32g430_spi.c **** **/
  68:../firmware/n32g430_std_periph_driver/src/n32g430_spi.c **** void SPI_I2S_Reset(SPI_Module* SPIx)
  69:../firmware/n32g430_std_periph_driver/src/n32g430_spi.c **** {
  29              		.loc 1 69 1
  30              		.cfi_startproc
  31              		@ args = 0, pretend = 0, frame = 8
  32              		@ frame_needed = 1, uses_anonymous_args = 0
  33 0000 80B5     		push	{r7, lr}
  34              	.LCFI0:
  35              		.cfi_def_cfa_offset 8
  36              		.cfi_offset 7, -8
  37              		.cfi_offset 14, -4
  38 0002 82B0     		sub	sp, sp, #8
  39              	.LCFI1:
  40              		.cfi_def_cfa_offset 16
  41 0004 00AF     		add	r7, sp, #0
  42              	.LCFI2:
  43              		.cfi_def_cfa_register 7
  44 0006 7860     		str	r0, [r7, #4]
  70:../firmware/n32g430_std_periph_driver/src/n32g430_spi.c ****     if (SPIx == SPI1)
  45              		.loc 1 70 8
ARM GAS  C:\Users\ZShuai\AppData\Local\Temp\ccswPVQl.s 			page 3


  46 0008 7B68     		ldr	r3, [r7, #4]
  47 000a 0A4A     		ldr	r2, .L5
  48 000c 9342     		cmp	r3, r2
  49 000e 04D1     		bne	.L2
  71:../firmware/n32g430_std_periph_driver/src/n32g430_spi.c ****     {
  72:../firmware/n32g430_std_periph_driver/src/n32g430_spi.c ****         /* SPI1 Reset */
  73:../firmware/n32g430_std_periph_driver/src/n32g430_spi.c ****         RCC_APB2_Peripheral_Reset(RCC_APB2_PERIPH_SPI1);
  50              		.loc 1 73 9
  51 0010 4FF48050 		mov	r0, #4096
  52 0014 FFF7FEFF 		bl	RCC_APB2_Peripheral_Reset
  74:../firmware/n32g430_std_periph_driver/src/n32g430_spi.c ****     }
  75:../firmware/n32g430_std_periph_driver/src/n32g430_spi.c ****     else if (SPIx == SPI2)
  76:../firmware/n32g430_std_periph_driver/src/n32g430_spi.c ****     {
  77:../firmware/n32g430_std_periph_driver/src/n32g430_spi.c ****         /* SPI2 Reset */
  78:../firmware/n32g430_std_periph_driver/src/n32g430_spi.c ****         RCC_APB2_Peripheral_Reset(RCC_APB2_PERIPH_SPI2);
  79:../firmware/n32g430_std_periph_driver/src/n32g430_spi.c ****     }
  80:../firmware/n32g430_std_periph_driver/src/n32g430_spi.c ****     else
  81:../firmware/n32g430_std_periph_driver/src/n32g430_spi.c ****     {
  82:../firmware/n32g430_std_periph_driver/src/n32g430_spi.c ****         /* none */
  83:../firmware/n32g430_std_periph_driver/src/n32g430_spi.c ****     }
  84:../firmware/n32g430_std_periph_driver/src/n32g430_spi.c **** }
  53              		.loc 1 84 1
  54 0018 07E0     		b	.L4
  55              	.L2:
  75:../firmware/n32g430_std_periph_driver/src/n32g430_spi.c ****     {
  56              		.loc 1 75 13
  57 001a 7B68     		ldr	r3, [r7, #4]
  58 001c 064A     		ldr	r2, .L5+4
  59 001e 9342     		cmp	r3, r2
  60 0020 03D1     		bne	.L4
  78:../firmware/n32g430_std_periph_driver/src/n32g430_spi.c ****     }
  61              		.loc 1 78 9
  62 0022 4FF40020 		mov	r0, #524288
  63 0026 FFF7FEFF 		bl	RCC_APB2_Peripheral_Reset
  64              	.L4:
  65              		.loc 1 84 1
  66 002a 00BF     		nop
  67 002c 0837     		adds	r7, r7, #8
  68              	.LCFI3:
  69              		.cfi_def_cfa_offset 8
  70 002e BD46     		mov	sp, r7
  71              	.LCFI4:
  72              		.cfi_def_cfa_register 13
  73              		@ sp needed
  74 0030 80BD     		pop	{r7, pc}
  75              	.L6:
  76 0032 00BF     		.align	2
  77              	.L5:
  78 0034 00300140 		.word	1073819648
  79 0038 003C0140 		.word	1073822720
  80              		.cfi_endproc
  81              	.LFE130:
  83              		.section	.text.SPI_ON,"ax",%progbits
  84              		.align	1
  85              		.global	SPI_ON
  86              		.syntax unified
  87              		.thumb
ARM GAS  C:\Users\ZShuai\AppData\Local\Temp\ccswPVQl.s 			page 4


  88              		.thumb_func
  90              	SPI_ON:
  91              	.LFB131:
  85:../firmware/n32g430_std_periph_driver/src/n32g430_spi.c **** 
  86:../firmware/n32g430_std_periph_driver/src/n32g430_spi.c **** 
  87:../firmware/n32g430_std_periph_driver/src/n32g430_spi.c **** /**
  88:../firmware/n32g430_std_periph_driver/src/n32g430_spi.c **** *\*\name    SPI_ON.
  89:../firmware/n32g430_std_periph_driver/src/n32g430_spi.c **** *\*\fun     SPIx turn ON.
  90:../firmware/n32g430_std_periph_driver/src/n32g430_spi.c **** *\*\param   SPIx :
  91:../firmware/n32g430_std_periph_driver/src/n32g430_spi.c **** *\*\          - SPI1
  92:../firmware/n32g430_std_periph_driver/src/n32g430_spi.c **** *\*\          - SPI2
  93:../firmware/n32g430_std_periph_driver/src/n32g430_spi.c **** *\*\return  none
  94:../firmware/n32g430_std_periph_driver/src/n32g430_spi.c **** **/
  95:../firmware/n32g430_std_periph_driver/src/n32g430_spi.c **** void SPI_ON(SPI_Module* SPIx)
  96:../firmware/n32g430_std_periph_driver/src/n32g430_spi.c **** {
  92              		.loc 1 96 1
  93              		.cfi_startproc
  94              		@ args = 0, pretend = 0, frame = 8
  95              		@ frame_needed = 1, uses_anonymous_args = 0
  96              		@ link register save eliminated.
  97 0000 80B4     		push	{r7}
  98              	.LCFI5:
  99              		.cfi_def_cfa_offset 4
 100              		.cfi_offset 7, -4
 101 0002 83B0     		sub	sp, sp, #12
 102              	.LCFI6:
 103              		.cfi_def_cfa_offset 16
 104 0004 00AF     		add	r7, sp, #0
 105              	.LCFI7:
 106              		.cfi_def_cfa_register 7
 107 0006 7860     		str	r0, [r7, #4]
  97:../firmware/n32g430_std_periph_driver/src/n32g430_spi.c ****     /* Set the SPI_CTRL1 ON bit to wake up the SPI from power down mode */
  98:../firmware/n32g430_std_periph_driver/src/n32g430_spi.c ****     SPIx->CTRL1 |= SPI_TURN_ON;
 108              		.loc 1 98 9
 109 0008 7B68     		ldr	r3, [r7, #4]
 110 000a 1B88     		ldrh	r3, [r3]	@ movhi
 111 000c 9BB2     		uxth	r3, r3
 112              		.loc 1 98 17
 113 000e 43F04003 		orr	r3, r3, #64
 114 0012 9AB2     		uxth	r2, r3
 115 0014 7B68     		ldr	r3, [r7, #4]
 116 0016 1A80     		strh	r2, [r3]	@ movhi
  99:../firmware/n32g430_std_periph_driver/src/n32g430_spi.c **** }
 117              		.loc 1 99 1
 118 0018 00BF     		nop
 119 001a 0C37     		adds	r7, r7, #12
 120              	.LCFI8:
 121              		.cfi_def_cfa_offset 4
 122 001c BD46     		mov	sp, r7
 123              	.LCFI9:
 124              		.cfi_def_cfa_register 13
 125              		@ sp needed
 126 001e 5DF8047B 		ldr	r7, [sp], #4
 127              	.LCFI10:
 128              		.cfi_restore 7
 129              		.cfi_def_cfa_offset 0
 130 0022 7047     		bx	lr
ARM GAS  C:\Users\ZShuai\AppData\Local\Temp\ccswPVQl.s 			page 5


 131              		.cfi_endproc
 132              	.LFE131:
 134              		.section	.text.SPI_OFF,"ax",%progbits
 135              		.align	1
 136              		.global	SPI_OFF
 137              		.syntax unified
 138              		.thumb
 139              		.thumb_func
 141              	SPI_OFF:
 142              	.LFB132:
 100:../firmware/n32g430_std_periph_driver/src/n32g430_spi.c **** 
 101:../firmware/n32g430_std_periph_driver/src/n32g430_spi.c **** 
 102:../firmware/n32g430_std_periph_driver/src/n32g430_spi.c **** /**
 103:../firmware/n32g430_std_periph_driver/src/n32g430_spi.c **** *\*\name    SPI_OFF.
 104:../firmware/n32g430_std_periph_driver/src/n32g430_spi.c **** *\*\fun     SPIx turn OFF.
 105:../firmware/n32g430_std_periph_driver/src/n32g430_spi.c **** *\*\param   SPIx :
 106:../firmware/n32g430_std_periph_driver/src/n32g430_spi.c **** *\*\          - SPI1
 107:../firmware/n32g430_std_periph_driver/src/n32g430_spi.c **** *\*\          - SPI2
 108:../firmware/n32g430_std_periph_driver/src/n32g430_spi.c **** *\*\return  none
 109:../firmware/n32g430_std_periph_driver/src/n32g430_spi.c **** **/
 110:../firmware/n32g430_std_periph_driver/src/n32g430_spi.c **** void SPI_OFF(SPI_Module* SPIx)
 111:../firmware/n32g430_std_periph_driver/src/n32g430_spi.c **** {
 143              		.loc 1 111 1
 144              		.cfi_startproc
 145              		@ args = 0, pretend = 0, frame = 8
 146              		@ frame_needed = 1, uses_anonymous_args = 0
 147              		@ link register save eliminated.
 148 0000 80B4     		push	{r7}
 149              	.LCFI11:
 150              		.cfi_def_cfa_offset 4
 151              		.cfi_offset 7, -4
 152 0002 83B0     		sub	sp, sp, #12
 153              	.LCFI12:
 154              		.cfi_def_cfa_offset 16
 155 0004 00AF     		add	r7, sp, #0
 156              	.LCFI13:
 157              		.cfi_def_cfa_register 7
 158 0006 7860     		str	r0, [r7, #4]
 112:../firmware/n32g430_std_periph_driver/src/n32g430_spi.c ****     /* Clear the SPI_CTRL1 ON bit, The SPI go to power down mode */
 113:../firmware/n32g430_std_periph_driver/src/n32g430_spi.c ****     SPIx->CTRL1 &= SPI_TURN_OFF;
 159              		.loc 1 113 9
 160 0008 7B68     		ldr	r3, [r7, #4]
 161 000a 1B88     		ldrh	r3, [r3]	@ movhi
 162 000c 9BB2     		uxth	r3, r3
 163              		.loc 1 113 17
 164 000e 23F04003 		bic	r3, r3, #64
 165 0012 9AB2     		uxth	r2, r3
 166 0014 7B68     		ldr	r3, [r7, #4]
 167 0016 1A80     		strh	r2, [r3]	@ movhi
 114:../firmware/n32g430_std_periph_driver/src/n32g430_spi.c **** }
 168              		.loc 1 114 1
 169 0018 00BF     		nop
 170 001a 0C37     		adds	r7, r7, #12
 171              	.LCFI14:
 172              		.cfi_def_cfa_offset 4
 173 001c BD46     		mov	sp, r7
 174              	.LCFI15:
ARM GAS  C:\Users\ZShuai\AppData\Local\Temp\ccswPVQl.s 			page 6


 175              		.cfi_def_cfa_register 13
 176              		@ sp needed
 177 001e 5DF8047B 		ldr	r7, [sp], #4
 178              	.LCFI16:
 179              		.cfi_restore 7
 180              		.cfi_def_cfa_offset 0
 181 0022 7047     		bx	lr
 182              		.cfi_endproc
 183              	.LFE132:
 185              		.section	.text.SPI_Initializes_Structure,"ax",%progbits
 186              		.align	1
 187              		.global	SPI_Initializes_Structure
 188              		.syntax unified
 189              		.thumb
 190              		.thumb_func
 192              	SPI_Initializes_Structure:
 193              	.LFB133:
 115:../firmware/n32g430_std_periph_driver/src/n32g430_spi.c **** 
 116:../firmware/n32g430_std_periph_driver/src/n32g430_spi.c **** 
 117:../firmware/n32g430_std_periph_driver/src/n32g430_spi.c **** /**
 118:../firmware/n32g430_std_periph_driver/src/n32g430_spi.c **** *\*\name    SPI_Initializes_Structure.
 119:../firmware/n32g430_std_periph_driver/src/n32g430_spi.c **** *\*\fun     Fills each SPI_InitStruct member with its default value.
 120:../firmware/n32g430_std_periph_driver/src/n32g430_spi.c **** *\*\param   SPI_InitStruct :
 121:../firmware/n32g430_std_periph_driver/src/n32g430_spi.c **** *\*\          - DataDirection
 122:../firmware/n32g430_std_periph_driver/src/n32g430_spi.c **** *\*\          - SpiMode
 123:../firmware/n32g430_std_periph_driver/src/n32g430_spi.c **** *\*\          - DataLen
 124:../firmware/n32g430_std_periph_driver/src/n32g430_spi.c **** *\*\          - CLKPOL
 125:../firmware/n32g430_std_periph_driver/src/n32g430_spi.c **** *\*\          - CLKPHA
 126:../firmware/n32g430_std_periph_driver/src/n32g430_spi.c **** *\*\          - NSS
 127:../firmware/n32g430_std_periph_driver/src/n32g430_spi.c **** *\*\          - BaudRatePres
 128:../firmware/n32g430_std_periph_driver/src/n32g430_spi.c **** *\*\          - FirstBit
 129:../firmware/n32g430_std_periph_driver/src/n32g430_spi.c **** *\*\          - CRCPoly
 130:../firmware/n32g430_std_periph_driver/src/n32g430_spi.c **** *\*\return  none
 131:../firmware/n32g430_std_periph_driver/src/n32g430_spi.c **** **/
 132:../firmware/n32g430_std_periph_driver/src/n32g430_spi.c **** void SPI_Initializes_Structure(SPI_InitType* SPI_InitStruct)
 133:../firmware/n32g430_std_periph_driver/src/n32g430_spi.c **** {
 194              		.loc 1 133 1
 195              		.cfi_startproc
 196              		@ args = 0, pretend = 0, frame = 8
 197              		@ frame_needed = 1, uses_anonymous_args = 0
 198              		@ link register save eliminated.
 199 0000 80B4     		push	{r7}
 200              	.LCFI17:
 201              		.cfi_def_cfa_offset 4
 202              		.cfi_offset 7, -4
 203 0002 83B0     		sub	sp, sp, #12
 204              	.LCFI18:
 205              		.cfi_def_cfa_offset 16
 206 0004 00AF     		add	r7, sp, #0
 207              	.LCFI19:
 208              		.cfi_def_cfa_register 7
 209 0006 7860     		str	r0, [r7, #4]
 134:../firmware/n32g430_std_periph_driver/src/n32g430_spi.c ****     /*--------------- Reset SPI init structure parameters values -----------------*/
 135:../firmware/n32g430_std_periph_driver/src/n32g430_spi.c ****     /* Initialize the DataDirection member */
 136:../firmware/n32g430_std_periph_driver/src/n32g430_spi.c ****     SPI_InitStruct->DataDirection = SPI_DIR_DOUBLELINE_FULLDUPLEX;
 210              		.loc 1 136 35
 211 0008 7B68     		ldr	r3, [r7, #4]
ARM GAS  C:\Users\ZShuai\AppData\Local\Temp\ccswPVQl.s 			page 7


 212 000a 0022     		movs	r2, #0
 213 000c 1A80     		strh	r2, [r3]	@ movhi
 137:../firmware/n32g430_std_periph_driver/src/n32g430_spi.c ****     /* initialize the SpiMode member */
 138:../firmware/n32g430_std_periph_driver/src/n32g430_spi.c ****     SPI_InitStruct->SpiMode = SPI_MODE_SLAVE;
 214              		.loc 1 138 29
 215 000e 7B68     		ldr	r3, [r7, #4]
 216 0010 0022     		movs	r2, #0
 217 0012 5A80     		strh	r2, [r3, #2]	@ movhi
 139:../firmware/n32g430_std_periph_driver/src/n32g430_spi.c ****     /* initialize the DataLen member */
 140:../firmware/n32g430_std_periph_driver/src/n32g430_spi.c ****     SPI_InitStruct->DataLen = SPI_DATA_SIZE_8BITS;
 218              		.loc 1 140 29
 219 0014 7B68     		ldr	r3, [r7, #4]
 220 0016 0022     		movs	r2, #0
 221 0018 9A80     		strh	r2, [r3, #4]	@ movhi
 141:../firmware/n32g430_std_periph_driver/src/n32g430_spi.c ****     /* Initialize the CLKPOL member */
 142:../firmware/n32g430_std_periph_driver/src/n32g430_spi.c ****     SPI_InitStruct->CLKPOL = SPI_CLKPOL_LOW;
 222              		.loc 1 142 28
 223 001a 7B68     		ldr	r3, [r7, #4]
 224 001c 0022     		movs	r2, #0
 225 001e DA80     		strh	r2, [r3, #6]	@ movhi
 143:../firmware/n32g430_std_periph_driver/src/n32g430_spi.c ****     /* Initialize the CLKPHA member */
 144:../firmware/n32g430_std_periph_driver/src/n32g430_spi.c ****     SPI_InitStruct->CLKPHA = SPI_CLKPHA_FIRST_EDGE;
 226              		.loc 1 144 28
 227 0020 7B68     		ldr	r3, [r7, #4]
 228 0022 0022     		movs	r2, #0
 229 0024 1A81     		strh	r2, [r3, #8]	@ movhi
 145:../firmware/n32g430_std_periph_driver/src/n32g430_spi.c ****     /* Initialize the NSS member */
 146:../firmware/n32g430_std_periph_driver/src/n32g430_spi.c ****     SPI_InitStruct->NSS = SPI_NSS_HARD;
 230              		.loc 1 146 25
 231 0026 7B68     		ldr	r3, [r7, #4]
 232 0028 0022     		movs	r2, #0
 233 002a 5A81     		strh	r2, [r3, #10]	@ movhi
 147:../firmware/n32g430_std_periph_driver/src/n32g430_spi.c ****     /* Initialize the BaudRatePres member */
 148:../firmware/n32g430_std_periph_driver/src/n32g430_spi.c ****     SPI_InitStruct->BaudRatePres = SPI_BR_PRESCALER_2;
 234              		.loc 1 148 34
 235 002c 7B68     		ldr	r3, [r7, #4]
 236 002e 0022     		movs	r2, #0
 237 0030 9A81     		strh	r2, [r3, #12]	@ movhi
 149:../firmware/n32g430_std_periph_driver/src/n32g430_spi.c ****     /* Initialize the FirstBit member */
 150:../firmware/n32g430_std_periph_driver/src/n32g430_spi.c ****     SPI_InitStruct->FirstBit = SPI_FB_MSB;
 238              		.loc 1 150 30
 239 0032 7B68     		ldr	r3, [r7, #4]
 240 0034 0022     		movs	r2, #0
 241 0036 DA81     		strh	r2, [r3, #14]	@ movhi
 151:../firmware/n32g430_std_periph_driver/src/n32g430_spi.c ****     /* Initialize the CRCPoly member */
 152:../firmware/n32g430_std_periph_driver/src/n32g430_spi.c ****     SPI_InitStruct->CRCPoly = 7;
 242              		.loc 1 152 29
 243 0038 7B68     		ldr	r3, [r7, #4]
 244 003a 0722     		movs	r2, #7
 245 003c 1A82     		strh	r2, [r3, #16]	@ movhi
 153:../firmware/n32g430_std_periph_driver/src/n32g430_spi.c **** }
 246              		.loc 1 153 1
 247 003e 00BF     		nop
 248 0040 0C37     		adds	r7, r7, #12
 249              	.LCFI20:
 250              		.cfi_def_cfa_offset 4
 251 0042 BD46     		mov	sp, r7
ARM GAS  C:\Users\ZShuai\AppData\Local\Temp\ccswPVQl.s 			page 8


 252              	.LCFI21:
 253              		.cfi_def_cfa_register 13
 254              		@ sp needed
 255 0044 5DF8047B 		ldr	r7, [sp], #4
 256              	.LCFI22:
 257              		.cfi_restore 7
 258              		.cfi_def_cfa_offset 0
 259 0048 7047     		bx	lr
 260              		.cfi_endproc
 261              	.LFE133:
 263              		.section	.text.SPI_Initializes,"ax",%progbits
 264              		.align	1
 265              		.global	SPI_Initializes
 266              		.syntax unified
 267              		.thumb
 268              		.thumb_func
 270              	SPI_Initializes:
 271              	.LFB134:
 154:../firmware/n32g430_std_periph_driver/src/n32g430_spi.c **** 
 155:../firmware/n32g430_std_periph_driver/src/n32g430_spi.c **** 
 156:../firmware/n32g430_std_periph_driver/src/n32g430_spi.c **** /**
 157:../firmware/n32g430_std_periph_driver/src/n32g430_spi.c **** *\*\name    SPI_Initializes.
 158:../firmware/n32g430_std_periph_driver/src/n32g430_spi.c **** *\*\fun     Initializes the SPIx according to SPI_InitStruct.
 159:../firmware/n32g430_std_periph_driver/src/n32g430_spi.c **** *\*\param   SPIx :
 160:../firmware/n32g430_std_periph_driver/src/n32g430_spi.c **** *\*\          - SPI1
 161:../firmware/n32g430_std_periph_driver/src/n32g430_spi.c **** *\*\          - SPI2
 162:../firmware/n32g430_std_periph_driver/src/n32g430_spi.c **** *\*\param   SPI_InitStruct :
 163:../firmware/n32g430_std_periph_driver/src/n32g430_spi.c **** *\*\          - DataDirection
 164:../firmware/n32g430_std_periph_driver/src/n32g430_spi.c **** *\*\            - SPI_DIR_DOUBLELINE_FULLDUPLEX
 165:../firmware/n32g430_std_periph_driver/src/n32g430_spi.c **** *\*\            - SPI_DIR_DOUBLELINE_RONLY
 166:../firmware/n32g430_std_periph_driver/src/n32g430_spi.c **** *\*\            - SPI_DIR_SINGLELINE_RX
 167:../firmware/n32g430_std_periph_driver/src/n32g430_spi.c **** *\*\            - SPI_DIR_SINGLELINE_TX
 168:../firmware/n32g430_std_periph_driver/src/n32g430_spi.c **** *\*\          - SpiMode
 169:../firmware/n32g430_std_periph_driver/src/n32g430_spi.c **** *\*\            - SPI_MODE_MASTER
 170:../firmware/n32g430_std_periph_driver/src/n32g430_spi.c **** *\*\            - SPI_MODE_SLAVE
 171:../firmware/n32g430_std_periph_driver/src/n32g430_spi.c **** *\*\          - DataLen
 172:../firmware/n32g430_std_periph_driver/src/n32g430_spi.c **** *\*\            - SPI_DATA_SIZE_16BITS
 173:../firmware/n32g430_std_periph_driver/src/n32g430_spi.c **** *\*\            - SPI_DATA_SIZE_8BITS
 174:../firmware/n32g430_std_periph_driver/src/n32g430_spi.c **** *\*\          - CLKPOL
 175:../firmware/n32g430_std_periph_driver/src/n32g430_spi.c **** *\*\            - SPI_CLKPOL_LOW
 176:../firmware/n32g430_std_periph_driver/src/n32g430_spi.c **** *\*\            - SPI_CLKPOL_HIGH
 177:../firmware/n32g430_std_periph_driver/src/n32g430_spi.c **** *\*\          - CLKPHA
 178:../firmware/n32g430_std_periph_driver/src/n32g430_spi.c **** *\*\            - SPI_CLKPHA_FIRST_EDGE
 179:../firmware/n32g430_std_periph_driver/src/n32g430_spi.c **** *\*\            - SPI_CLKPHA_SECOND_EDGE
 180:../firmware/n32g430_std_periph_driver/src/n32g430_spi.c **** *\*\          - NSS
 181:../firmware/n32g430_std_periph_driver/src/n32g430_spi.c **** *\*\            - SPI_NSS_SOFT
 182:../firmware/n32g430_std_periph_driver/src/n32g430_spi.c **** *\*\            - SPI_NSS_HARD
 183:../firmware/n32g430_std_periph_driver/src/n32g430_spi.c **** *\*\          - BaudRatePres
 184:../firmware/n32g430_std_periph_driver/src/n32g430_spi.c **** *\*\            - SPI_BR_PRESCALER_2
 185:../firmware/n32g430_std_periph_driver/src/n32g430_spi.c **** *\*\            - SPI_BR_PRESCALER_4
 186:../firmware/n32g430_std_periph_driver/src/n32g430_spi.c **** *\*\            - SPI_BR_PRESCALER_8
 187:../firmware/n32g430_std_periph_driver/src/n32g430_spi.c **** *\*\            - SPI_BR_PRESCALER_16
 188:../firmware/n32g430_std_periph_driver/src/n32g430_spi.c **** *\*\            - SPI_BR_PRESCALER_32
 189:../firmware/n32g430_std_periph_driver/src/n32g430_spi.c **** *\*\            - SPI_BR_PRESCALER_64
 190:../firmware/n32g430_std_periph_driver/src/n32g430_spi.c **** *\*\            - SPI_BR_PRESCALER_128
 191:../firmware/n32g430_std_periph_driver/src/n32g430_spi.c **** *\*\            - SPI_BR_PRESCALER_256
 192:../firmware/n32g430_std_periph_driver/src/n32g430_spi.c **** *\*\          - FirstBit
ARM GAS  C:\Users\ZShuai\AppData\Local\Temp\ccswPVQl.s 			page 9


 193:../firmware/n32g430_std_periph_driver/src/n32g430_spi.c **** *\*\            - SPI_FB_MSB
 194:../firmware/n32g430_std_periph_driver/src/n32g430_spi.c **** *\*\            - SPI_FB_LSB
 195:../firmware/n32g430_std_periph_driver/src/n32g430_spi.c **** *\*\          - CRCPoly      default 0x0007, max 0xffff
 196:../firmware/n32g430_std_periph_driver/src/n32g430_spi.c **** *\*\return  none
 197:../firmware/n32g430_std_periph_driver/src/n32g430_spi.c **** **/
 198:../firmware/n32g430_std_periph_driver/src/n32g430_spi.c **** void SPI_Initializes(SPI_Module* SPIx, SPI_InitType* SPI_InitStruct)
 199:../firmware/n32g430_std_periph_driver/src/n32g430_spi.c **** {
 272              		.loc 1 199 1
 273              		.cfi_startproc
 274              		@ args = 0, pretend = 0, frame = 8
 275              		@ frame_needed = 1, uses_anonymous_args = 0
 276 0000 80B5     		push	{r7, lr}
 277              	.LCFI23:
 278              		.cfi_def_cfa_offset 8
 279              		.cfi_offset 7, -8
 280              		.cfi_offset 14, -4
 281 0002 82B0     		sub	sp, sp, #8
 282              	.LCFI24:
 283              		.cfi_def_cfa_offset 16
 284 0004 00AF     		add	r7, sp, #0
 285              	.LCFI25:
 286              		.cfi_def_cfa_register 7
 287 0006 7860     		str	r0, [r7, #4]
 288 0008 3960     		str	r1, [r7]
 200:../firmware/n32g430_std_periph_driver/src/n32g430_spi.c ****     SPI_DataDirection_Config(SPIx, SPI_InitStruct->DataDirection);
 289              		.loc 1 200 5
 290 000a 3B68     		ldr	r3, [r7]
 291 000c 1B88     		ldrh	r3, [r3]
 292 000e 1946     		mov	r1, r3
 293 0010 7868     		ldr	r0, [r7, #4]
 294 0012 FFF7FEFF 		bl	SPI_DataDirection_Config
 201:../firmware/n32g430_std_periph_driver/src/n32g430_spi.c ****     SPI_SpiMode_Config(SPIx, SPI_InitStruct->SpiMode);
 295              		.loc 1 201 5
 296 0016 3B68     		ldr	r3, [r7]
 297 0018 5B88     		ldrh	r3, [r3, #2]
 298 001a 1946     		mov	r1, r3
 299 001c 7868     		ldr	r0, [r7, #4]
 300 001e FFF7FEFF 		bl	SPI_SpiMode_Config
 202:../firmware/n32g430_std_periph_driver/src/n32g430_spi.c ****     SPI_DataLen_Config(SPIx, SPI_InitStruct->DataLen);
 301              		.loc 1 202 5
 302 0022 3B68     		ldr	r3, [r7]
 303 0024 9B88     		ldrh	r3, [r3, #4]
 304 0026 1946     		mov	r1, r3
 305 0028 7868     		ldr	r0, [r7, #4]
 306 002a FFF7FEFF 		bl	SPI_DataLen_Config
 203:../firmware/n32g430_std_periph_driver/src/n32g430_spi.c ****     SPI_CLKPHA_Config(SPIx, SPI_InitStruct->CLKPHA);
 307              		.loc 1 203 5
 308 002e 3B68     		ldr	r3, [r7]
 309 0030 1B89     		ldrh	r3, [r3, #8]
 310 0032 1946     		mov	r1, r3
 311 0034 7868     		ldr	r0, [r7, #4]
 312 0036 FFF7FEFF 		bl	SPI_CLKPHA_Config
 204:../firmware/n32g430_std_periph_driver/src/n32g430_spi.c ****     SPI_CLKPOL_Config(SPIx, SPI_InitStruct->CLKPOL);
 313              		.loc 1 204 5
 314 003a 3B68     		ldr	r3, [r7]
 315 003c DB88     		ldrh	r3, [r3, #6]
 316 003e 1946     		mov	r1, r3
ARM GAS  C:\Users\ZShuai\AppData\Local\Temp\ccswPVQl.s 			page 10


 317 0040 7868     		ldr	r0, [r7, #4]
 318 0042 FFF7FEFF 		bl	SPI_CLKPOL_Config
 205:../firmware/n32g430_std_periph_driver/src/n32g430_spi.c ****     SPI_NSS_Config(SPIx, SPI_InitStruct->NSS);
 319              		.loc 1 205 5
 320 0046 3B68     		ldr	r3, [r7]
 321 0048 5B89     		ldrh	r3, [r3, #10]
 322 004a 1946     		mov	r1, r3
 323 004c 7868     		ldr	r0, [r7, #4]
 324 004e FFF7FEFF 		bl	SPI_NSS_Config
 206:../firmware/n32g430_std_periph_driver/src/n32g430_spi.c ****     SPI_BaudRatePres_Config(SPIx, SPI_InitStruct->BaudRatePres);
 325              		.loc 1 206 5
 326 0052 3B68     		ldr	r3, [r7]
 327 0054 9B89     		ldrh	r3, [r3, #12]
 328 0056 1946     		mov	r1, r3
 329 0058 7868     		ldr	r0, [r7, #4]
 330 005a FFF7FEFF 		bl	SPI_BaudRatePres_Config
 207:../firmware/n32g430_std_periph_driver/src/n32g430_spi.c ****     SPI_FirstBit_Config(SPIx, SPI_InitStruct->FirstBit);
 331              		.loc 1 207 5
 332 005e 3B68     		ldr	r3, [r7]
 333 0060 DB89     		ldrh	r3, [r3, #14]
 334 0062 1946     		mov	r1, r3
 335 0064 7868     		ldr	r0, [r7, #4]
 336 0066 FFF7FEFF 		bl	SPI_FirstBit_Config
 208:../firmware/n32g430_std_periph_driver/src/n32g430_spi.c ****     SPI_CRC_Polynomial_Set(SPIx, SPI_InitStruct->CRCPoly);
 337              		.loc 1 208 5
 338 006a 3B68     		ldr	r3, [r7]
 339 006c 1B8A     		ldrh	r3, [r3, #16]
 340 006e 1946     		mov	r1, r3
 341 0070 7868     		ldr	r0, [r7, #4]
 342 0072 FFF7FEFF 		bl	SPI_CRC_Polynomial_Set
 209:../firmware/n32g430_std_periph_driver/src/n32g430_spi.c **** }
 343              		.loc 1 209 1
 344 0076 00BF     		nop
 345 0078 0837     		adds	r7, r7, #8
 346              	.LCFI26:
 347              		.cfi_def_cfa_offset 8
 348 007a BD46     		mov	sp, r7
 349              	.LCFI27:
 350              		.cfi_def_cfa_register 13
 351              		@ sp needed
 352 007c 80BD     		pop	{r7, pc}
 353              		.cfi_endproc
 354              	.LFE134:
 356              		.section	.text.SPI_DataDirection_Config,"ax",%progbits
 357              		.align	1
 358              		.global	SPI_DataDirection_Config
 359              		.syntax unified
 360              		.thumb
 361              		.thumb_func
 363              	SPI_DataDirection_Config:
 364              	.LFB135:
 210:../firmware/n32g430_std_periph_driver/src/n32g430_spi.c **** 
 211:../firmware/n32g430_std_periph_driver/src/n32g430_spi.c **** 
 212:../firmware/n32g430_std_periph_driver/src/n32g430_spi.c **** /**
 213:../firmware/n32g430_std_periph_driver/src/n32g430_spi.c **** *\*\name    SPI_DataDirection_Config.
 214:../firmware/n32g430_std_periph_driver/src/n32g430_spi.c **** *\*\fun     Configure SPIx data transfer direction.
 215:../firmware/n32g430_std_periph_driver/src/n32g430_spi.c **** *\*\param   SPIx :
ARM GAS  C:\Users\ZShuai\AppData\Local\Temp\ccswPVQl.s 			page 11


 216:../firmware/n32g430_std_periph_driver/src/n32g430_spi.c **** *\*\          - SPI1
 217:../firmware/n32g430_std_periph_driver/src/n32g430_spi.c **** *\*\          - SPI2
 218:../firmware/n32g430_std_periph_driver/src/n32g430_spi.c **** *\*\param   DataDirection :
 219:../firmware/n32g430_std_periph_driver/src/n32g430_spi.c **** *\*\          - SPI_DIR_DOUBLELINE_FULLDUPLEX
 220:../firmware/n32g430_std_periph_driver/src/n32g430_spi.c **** *\*\          - SPI_DIR_DOUBLELINE_RONLY
 221:../firmware/n32g430_std_periph_driver/src/n32g430_spi.c **** *\*\          - SPI_DIR_SINGLELINE_RX
 222:../firmware/n32g430_std_periph_driver/src/n32g430_spi.c **** *\*\          - SPI_DIR_SINGLELINE_TX
 223:../firmware/n32g430_std_periph_driver/src/n32g430_spi.c **** *\*\return  none
 224:../firmware/n32g430_std_periph_driver/src/n32g430_spi.c **** **/
 225:../firmware/n32g430_std_periph_driver/src/n32g430_spi.c **** void SPI_DataDirection_Config(SPI_Module* SPIx, uint16_t DataDirection)
 226:../firmware/n32g430_std_periph_driver/src/n32g430_spi.c **** {  
 365              		.loc 1 226 1
 366              		.cfi_startproc
 367              		@ args = 0, pretend = 0, frame = 8
 368              		@ frame_needed = 1, uses_anonymous_args = 0
 369              		@ link register save eliminated.
 370 0000 80B4     		push	{r7}
 371              	.LCFI28:
 372              		.cfi_def_cfa_offset 4
 373              		.cfi_offset 7, -4
 374 0002 83B0     		sub	sp, sp, #12
 375              	.LCFI29:
 376              		.cfi_def_cfa_offset 16
 377 0004 00AF     		add	r7, sp, #0
 378              	.LCFI30:
 379              		.cfi_def_cfa_register 7
 380 0006 7860     		str	r0, [r7, #4]
 381 0008 0B46     		mov	r3, r1
 382 000a 7B80     		strh	r3, [r7, #2]	@ movhi
 227:../firmware/n32g430_std_periph_driver/src/n32g430_spi.c ****     /* Clear SPI_CTRL1[15:14] and [10] bits */
 228:../firmware/n32g430_std_periph_driver/src/n32g430_spi.c ****     SPIx->CTRL1 &= SPI_DATADIRECTION_MASK;
 383              		.loc 1 228 9
 384 000c 7B68     		ldr	r3, [r7, #4]
 385 000e 1B88     		ldrh	r3, [r3]	@ movhi
 386 0010 9AB2     		uxth	r2, r3
 387              		.loc 1 228 17
 388 0012 43F6FF33 		movw	r3, #15359
 389 0016 1340     		ands	r3, r3, r2
 390 0018 9AB2     		uxth	r2, r3
 391 001a 7B68     		ldr	r3, [r7, #4]
 392 001c 1A80     		strh	r2, [r3]	@ movhi
 229:../firmware/n32g430_std_periph_driver/src/n32g430_spi.c ****     /* Set SPI_CTRL1[15:14] and [10] bits */
 230:../firmware/n32g430_std_periph_driver/src/n32g430_spi.c ****     SPIx->CTRL1 |= DataDirection;
 393              		.loc 1 230 9
 394 001e 7B68     		ldr	r3, [r7, #4]
 395 0020 1B88     		ldrh	r3, [r3]	@ movhi
 396 0022 9AB2     		uxth	r2, r3
 397              		.loc 1 230 17
 398 0024 7B88     		ldrh	r3, [r7, #2]	@ movhi
 399 0026 1343     		orrs	r3, r3, r2
 400 0028 9AB2     		uxth	r2, r3
 401 002a 7B68     		ldr	r3, [r7, #4]
 402 002c 1A80     		strh	r2, [r3]	@ movhi
 231:../firmware/n32g430_std_periph_driver/src/n32g430_spi.c **** }
 403              		.loc 1 231 1
 404 002e 00BF     		nop
 405 0030 0C37     		adds	r7, r7, #12
ARM GAS  C:\Users\ZShuai\AppData\Local\Temp\ccswPVQl.s 			page 12


 406              	.LCFI31:
 407              		.cfi_def_cfa_offset 4
 408 0032 BD46     		mov	sp, r7
 409              	.LCFI32:
 410              		.cfi_def_cfa_register 13
 411              		@ sp needed
 412 0034 5DF8047B 		ldr	r7, [sp], #4
 413              	.LCFI33:
 414              		.cfi_restore 7
 415              		.cfi_def_cfa_offset 0
 416 0038 7047     		bx	lr
 417              		.cfi_endproc
 418              	.LFE135:
 420              		.section	.text.SPI_SpiMode_Config,"ax",%progbits
 421              		.align	1
 422              		.global	SPI_SpiMode_Config
 423              		.syntax unified
 424              		.thumb
 425              		.thumb_func
 427              	SPI_SpiMode_Config:
 428              	.LFB136:
 232:../firmware/n32g430_std_periph_driver/src/n32g430_spi.c **** 
 233:../firmware/n32g430_std_periph_driver/src/n32g430_spi.c **** 
 234:../firmware/n32g430_std_periph_driver/src/n32g430_spi.c **** /**
 235:../firmware/n32g430_std_periph_driver/src/n32g430_spi.c **** *\*\name    SPI_SpiMode_Config.
 236:../firmware/n32g430_std_periph_driver/src/n32g430_spi.c **** *\*\fun     Configure SPIx to work in master or slave mode.
 237:../firmware/n32g430_std_periph_driver/src/n32g430_spi.c **** *\*\param   SPIx :
 238:../firmware/n32g430_std_periph_driver/src/n32g430_spi.c **** *\*\          - SPI1
 239:../firmware/n32g430_std_periph_driver/src/n32g430_spi.c **** *\*\          - SPI2
 240:../firmware/n32g430_std_periph_driver/src/n32g430_spi.c **** *\*\param   SpiMode :
 241:../firmware/n32g430_std_periph_driver/src/n32g430_spi.c **** *\*\          - SPI_MODE_MASTER
 242:../firmware/n32g430_std_periph_driver/src/n32g430_spi.c **** *\*\          - SPI_MODE_SLAVE
 243:../firmware/n32g430_std_periph_driver/src/n32g430_spi.c **** *\*\return  none
 244:../firmware/n32g430_std_periph_driver/src/n32g430_spi.c **** **/
 245:../firmware/n32g430_std_periph_driver/src/n32g430_spi.c **** void SPI_SpiMode_Config(SPI_Module* SPIx, uint16_t SpiMode)
 246:../firmware/n32g430_std_periph_driver/src/n32g430_spi.c **** {
 429              		.loc 1 246 1
 430              		.cfi_startproc
 431              		@ args = 0, pretend = 0, frame = 8
 432              		@ frame_needed = 1, uses_anonymous_args = 0
 433              		@ link register save eliminated.
 434 0000 80B4     		push	{r7}
 435              	.LCFI34:
 436              		.cfi_def_cfa_offset 4
 437              		.cfi_offset 7, -4
 438 0002 83B0     		sub	sp, sp, #12
 439              	.LCFI35:
 440              		.cfi_def_cfa_offset 16
 441 0004 00AF     		add	r7, sp, #0
 442              	.LCFI36:
 443              		.cfi_def_cfa_register 7
 444 0006 7860     		str	r0, [r7, #4]
 445 0008 0B46     		mov	r3, r1
 446 000a 7B80     		strh	r3, [r7, #2]	@ movhi
 247:../firmware/n32g430_std_periph_driver/src/n32g430_spi.c ****     /* Clear SPI_CTRL1 MSEL bits */
 248:../firmware/n32g430_std_periph_driver/src/n32g430_spi.c ****     SPIx->CTRL1 &= SPI_MODE_MASK;
 447              		.loc 1 248 9
ARM GAS  C:\Users\ZShuai\AppData\Local\Temp\ccswPVQl.s 			page 13


 448 000c 7B68     		ldr	r3, [r7, #4]
 449 000e 1B88     		ldrh	r3, [r3]	@ movhi
 450 0010 9BB2     		uxth	r3, r3
 451              		.loc 1 248 17
 452 0012 23F00403 		bic	r3, r3, #4
 453 0016 9AB2     		uxth	r2, r3
 454 0018 7B68     		ldr	r3, [r7, #4]
 455 001a 1A80     		strh	r2, [r3]	@ movhi
 249:../firmware/n32g430_std_periph_driver/src/n32g430_spi.c ****     /* Set SPI_CTRL1 MSEL bits */
 250:../firmware/n32g430_std_periph_driver/src/n32g430_spi.c ****     SPIx->CTRL1 |= SpiMode;
 456              		.loc 1 250 9
 457 001c 7B68     		ldr	r3, [r7, #4]
 458 001e 1B88     		ldrh	r3, [r3]	@ movhi
 459 0020 9AB2     		uxth	r2, r3
 460              		.loc 1 250 17
 461 0022 7B88     		ldrh	r3, [r7, #2]	@ movhi
 462 0024 1343     		orrs	r3, r3, r2
 463 0026 9AB2     		uxth	r2, r3
 464 0028 7B68     		ldr	r3, [r7, #4]
 465 002a 1A80     		strh	r2, [r3]	@ movhi
 251:../firmware/n32g430_std_periph_driver/src/n32g430_spi.c **** }
 466              		.loc 1 251 1
 467 002c 00BF     		nop
 468 002e 0C37     		adds	r7, r7, #12
 469              	.LCFI37:
 470              		.cfi_def_cfa_offset 4
 471 0030 BD46     		mov	sp, r7
 472              	.LCFI38:
 473              		.cfi_def_cfa_register 13
 474              		@ sp needed
 475 0032 5DF8047B 		ldr	r7, [sp], #4
 476              	.LCFI39:
 477              		.cfi_restore 7
 478              		.cfi_def_cfa_offset 0
 479 0036 7047     		bx	lr
 480              		.cfi_endproc
 481              	.LFE136:
 483              		.section	.text.SPI_DataLen_Config,"ax",%progbits
 484              		.align	1
 485              		.global	SPI_DataLen_Config
 486              		.syntax unified
 487              		.thumb
 488              		.thumb_func
 490              	SPI_DataLen_Config:
 491              	.LFB137:
 252:../firmware/n32g430_std_periph_driver/src/n32g430_spi.c **** 
 253:../firmware/n32g430_std_periph_driver/src/n32g430_spi.c **** 
 254:../firmware/n32g430_std_periph_driver/src/n32g430_spi.c **** /**
 255:../firmware/n32g430_std_periph_driver/src/n32g430_spi.c **** *\*\name    SPI_DataLen_Config.
 256:../firmware/n32g430_std_periph_driver/src/n32g430_spi.c **** *\*\fun     Configure SPIx data length.
 257:../firmware/n32g430_std_periph_driver/src/n32g430_spi.c **** *\*\param   SPIx :
 258:../firmware/n32g430_std_periph_driver/src/n32g430_spi.c **** *\*\          - SPI1
 259:../firmware/n32g430_std_periph_driver/src/n32g430_spi.c **** *\*\          - SPI2
 260:../firmware/n32g430_std_periph_driver/src/n32g430_spi.c **** *\*\param   DataLen :
 261:../firmware/n32g430_std_periph_driver/src/n32g430_spi.c **** *\*\          - SPI_DATA_SIZE_16BITS
 262:../firmware/n32g430_std_periph_driver/src/n32g430_spi.c **** *\*\          - SPI_DATA_SIZE_8BITS
 263:../firmware/n32g430_std_periph_driver/src/n32g430_spi.c **** *\*\return  none
ARM GAS  C:\Users\ZShuai\AppData\Local\Temp\ccswPVQl.s 			page 14


 264:../firmware/n32g430_std_periph_driver/src/n32g430_spi.c **** *\*\note    Must be used with SPI OFF.
 265:../firmware/n32g430_std_periph_driver/src/n32g430_spi.c **** **/
 266:../firmware/n32g430_std_periph_driver/src/n32g430_spi.c **** void SPI_DataLen_Config(SPI_Module* SPIx, uint16_t DataLen)
 267:../firmware/n32g430_std_periph_driver/src/n32g430_spi.c **** {
 492              		.loc 1 267 1
 493              		.cfi_startproc
 494              		@ args = 0, pretend = 0, frame = 8
 495              		@ frame_needed = 1, uses_anonymous_args = 0
 496              		@ link register save eliminated.
 497 0000 80B4     		push	{r7}
 498              	.LCFI40:
 499              		.cfi_def_cfa_offset 4
 500              		.cfi_offset 7, -4
 501 0002 83B0     		sub	sp, sp, #12
 502              	.LCFI41:
 503              		.cfi_def_cfa_offset 16
 504 0004 00AF     		add	r7, sp, #0
 505              	.LCFI42:
 506              		.cfi_def_cfa_register 7
 507 0006 7860     		str	r0, [r7, #4]
 508 0008 0B46     		mov	r3, r1
 509 000a 7B80     		strh	r3, [r7, #2]	@ movhi
 268:../firmware/n32g430_std_periph_driver/src/n32g430_spi.c ****     /* Clear SPI_CTRL1 DATFF bits */
 269:../firmware/n32g430_std_periph_driver/src/n32g430_spi.c ****     SPIx->CTRL1 &= SPI_DATALEN_MASK;
 510              		.loc 1 269 9
 511 000c 7B68     		ldr	r3, [r7, #4]
 512 000e 1B88     		ldrh	r3, [r3]	@ movhi
 513 0010 9BB2     		uxth	r3, r3
 514              		.loc 1 269 17
 515 0012 23F40063 		bic	r3, r3, #2048
 516 0016 9AB2     		uxth	r2, r3
 517 0018 7B68     		ldr	r3, [r7, #4]
 518 001a 1A80     		strh	r2, [r3]	@ movhi
 270:../firmware/n32g430_std_periph_driver/src/n32g430_spi.c ****     /* Set SPI_CTRL1 DATFF bits */
 271:../firmware/n32g430_std_periph_driver/src/n32g430_spi.c ****     SPIx->CTRL1 |= DataLen;
 519              		.loc 1 271 9
 520 001c 7B68     		ldr	r3, [r7, #4]
 521 001e 1B88     		ldrh	r3, [r3]	@ movhi
 522 0020 9AB2     		uxth	r2, r3
 523              		.loc 1 271 17
 524 0022 7B88     		ldrh	r3, [r7, #2]	@ movhi
 525 0024 1343     		orrs	r3, r3, r2
 526 0026 9AB2     		uxth	r2, r3
 527 0028 7B68     		ldr	r3, [r7, #4]
 528 002a 1A80     		strh	r2, [r3]	@ movhi
 272:../firmware/n32g430_std_periph_driver/src/n32g430_spi.c **** }
 529              		.loc 1 272 1
 530 002c 00BF     		nop
 531 002e 0C37     		adds	r7, r7, #12
 532              	.LCFI43:
 533              		.cfi_def_cfa_offset 4
 534 0030 BD46     		mov	sp, r7
 535              	.LCFI44:
 536              		.cfi_def_cfa_register 13
 537              		@ sp needed
 538 0032 5DF8047B 		ldr	r7, [sp], #4
 539              	.LCFI45:
ARM GAS  C:\Users\ZShuai\AppData\Local\Temp\ccswPVQl.s 			page 15


 540              		.cfi_restore 7
 541              		.cfi_def_cfa_offset 0
 542 0036 7047     		bx	lr
 543              		.cfi_endproc
 544              	.LFE137:
 546              		.section	.text.SPI_CLKPOL_Config,"ax",%progbits
 547              		.align	1
 548              		.global	SPI_CLKPOL_Config
 549              		.syntax unified
 550              		.thumb
 551              		.thumb_func
 553              	SPI_CLKPOL_Config:
 554              	.LFB138:
 273:../firmware/n32g430_std_periph_driver/src/n32g430_spi.c **** 
 274:../firmware/n32g430_std_periph_driver/src/n32g430_spi.c **** 
 275:../firmware/n32g430_std_periph_driver/src/n32g430_spi.c **** /**
 276:../firmware/n32g430_std_periph_driver/src/n32g430_spi.c **** *\*\name    SPI_CLKPOL_Config.
 277:../firmware/n32g430_std_periph_driver/src/n32g430_spi.c **** *\*\fun     Configure the SPIx clock polarity.
 278:../firmware/n32g430_std_periph_driver/src/n32g430_spi.c **** *\*\param   SPIx :
 279:../firmware/n32g430_std_periph_driver/src/n32g430_spi.c **** *\*\          - SPI1
 280:../firmware/n32g430_std_periph_driver/src/n32g430_spi.c **** *\*\          - SPI2
 281:../firmware/n32g430_std_periph_driver/src/n32g430_spi.c **** *\*\param   CLKPOL :
 282:../firmware/n32g430_std_periph_driver/src/n32g430_spi.c **** *\*\          - SPI_CLKPOL_LOW
 283:../firmware/n32g430_std_periph_driver/src/n32g430_spi.c **** *\*\          - SPI_CLKPOL_HIGH
 284:../firmware/n32g430_std_periph_driver/src/n32g430_spi.c **** *\*\return  none
 285:../firmware/n32g430_std_periph_driver/src/n32g430_spi.c **** **/
 286:../firmware/n32g430_std_periph_driver/src/n32g430_spi.c **** void SPI_CLKPOL_Config(SPI_Module* SPIx, uint16_t CLKPOL)
 287:../firmware/n32g430_std_periph_driver/src/n32g430_spi.c **** {
 555              		.loc 1 287 1
 556              		.cfi_startproc
 557              		@ args = 0, pretend = 0, frame = 8
 558              		@ frame_needed = 1, uses_anonymous_args = 0
 559              		@ link register save eliminated.
 560 0000 80B4     		push	{r7}
 561              	.LCFI46:
 562              		.cfi_def_cfa_offset 4
 563              		.cfi_offset 7, -4
 564 0002 83B0     		sub	sp, sp, #12
 565              	.LCFI47:
 566              		.cfi_def_cfa_offset 16
 567 0004 00AF     		add	r7, sp, #0
 568              	.LCFI48:
 569              		.cfi_def_cfa_register 7
 570 0006 7860     		str	r0, [r7, #4]
 571 0008 0B46     		mov	r3, r1
 572 000a 7B80     		strh	r3, [r7, #2]	@ movhi
 288:../firmware/n32g430_std_periph_driver/src/n32g430_spi.c ****     /* Clear SPI_CTRL1 CLKPOL bits */
 289:../firmware/n32g430_std_periph_driver/src/n32g430_spi.c ****     SPIx->CTRL1 &= SPI_CLKPOL_MASK;
 573              		.loc 1 289 9
 574 000c 7B68     		ldr	r3, [r7, #4]
 575 000e 1B88     		ldrh	r3, [r3]	@ movhi
 576 0010 9BB2     		uxth	r3, r3
 577              		.loc 1 289 17
 578 0012 23F00203 		bic	r3, r3, #2
 579 0016 9AB2     		uxth	r2, r3
 580 0018 7B68     		ldr	r3, [r7, #4]
 581 001a 1A80     		strh	r2, [r3]	@ movhi
ARM GAS  C:\Users\ZShuai\AppData\Local\Temp\ccswPVQl.s 			page 16


 290:../firmware/n32g430_std_periph_driver/src/n32g430_spi.c ****     /* Set SPI_CTRL1 CLKPOL bits */
 291:../firmware/n32g430_std_periph_driver/src/n32g430_spi.c ****     SPIx->CTRL1 |= CLKPOL;
 582              		.loc 1 291 9
 583 001c 7B68     		ldr	r3, [r7, #4]
 584 001e 1B88     		ldrh	r3, [r3]	@ movhi
 585 0020 9AB2     		uxth	r2, r3
 586              		.loc 1 291 17
 587 0022 7B88     		ldrh	r3, [r7, #2]	@ movhi
 588 0024 1343     		orrs	r3, r3, r2
 589 0026 9AB2     		uxth	r2, r3
 590 0028 7B68     		ldr	r3, [r7, #4]
 591 002a 1A80     		strh	r2, [r3]	@ movhi
 292:../firmware/n32g430_std_periph_driver/src/n32g430_spi.c **** }
 592              		.loc 1 292 1
 593 002c 00BF     		nop
 594 002e 0C37     		adds	r7, r7, #12
 595              	.LCFI49:
 596              		.cfi_def_cfa_offset 4
 597 0030 BD46     		mov	sp, r7
 598              	.LCFI50:
 599              		.cfi_def_cfa_register 13
 600              		@ sp needed
 601 0032 5DF8047B 		ldr	r7, [sp], #4
 602              	.LCFI51:
 603              		.cfi_restore 7
 604              		.cfi_def_cfa_offset 0
 605 0036 7047     		bx	lr
 606              		.cfi_endproc
 607              	.LFE138:
 609              		.section	.text.SPI_CLKPHA_Config,"ax",%progbits
 610              		.align	1
 611              		.global	SPI_CLKPHA_Config
 612              		.syntax unified
 613              		.thumb
 614              		.thumb_func
 616              	SPI_CLKPHA_Config:
 617              	.LFB139:
 293:../firmware/n32g430_std_periph_driver/src/n32g430_spi.c **** 
 294:../firmware/n32g430_std_periph_driver/src/n32g430_spi.c **** 
 295:../firmware/n32g430_std_periph_driver/src/n32g430_spi.c **** /**
 296:../firmware/n32g430_std_periph_driver/src/n32g430_spi.c **** *\*\name    SPI_CLKPHA_Config.
 297:../firmware/n32g430_std_periph_driver/src/n32g430_spi.c **** *\*\fun     Configure the SPIx clock phase.
 298:../firmware/n32g430_std_periph_driver/src/n32g430_spi.c **** *\*\param   SPIx :
 299:../firmware/n32g430_std_periph_driver/src/n32g430_spi.c **** *\*\          - SPI1
 300:../firmware/n32g430_std_periph_driver/src/n32g430_spi.c **** *\*\          - SPI2
 301:../firmware/n32g430_std_periph_driver/src/n32g430_spi.c **** *\*\param   CLKPHA :
 302:../firmware/n32g430_std_periph_driver/src/n32g430_spi.c **** *\*\          - SPI_CLKPHA_FIRST_EDGE
 303:../firmware/n32g430_std_periph_driver/src/n32g430_spi.c **** *\*\          - SPI_CLKPHA_SECOND_EDGE
 304:../firmware/n32g430_std_periph_driver/src/n32g430_spi.c **** *\*\return  none
 305:../firmware/n32g430_std_periph_driver/src/n32g430_spi.c **** **/
 306:../firmware/n32g430_std_periph_driver/src/n32g430_spi.c **** void SPI_CLKPHA_Config(SPI_Module* SPIx, uint16_t CLKPHA)
 307:../firmware/n32g430_std_periph_driver/src/n32g430_spi.c **** {
 618              		.loc 1 307 1
 619              		.cfi_startproc
 620              		@ args = 0, pretend = 0, frame = 8
 621              		@ frame_needed = 1, uses_anonymous_args = 0
 622              		@ link register save eliminated.
ARM GAS  C:\Users\ZShuai\AppData\Local\Temp\ccswPVQl.s 			page 17


 623 0000 80B4     		push	{r7}
 624              	.LCFI52:
 625              		.cfi_def_cfa_offset 4
 626              		.cfi_offset 7, -4
 627 0002 83B0     		sub	sp, sp, #12
 628              	.LCFI53:
 629              		.cfi_def_cfa_offset 16
 630 0004 00AF     		add	r7, sp, #0
 631              	.LCFI54:
 632              		.cfi_def_cfa_register 7
 633 0006 7860     		str	r0, [r7, #4]
 634 0008 0B46     		mov	r3, r1
 635 000a 7B80     		strh	r3, [r7, #2]	@ movhi
 308:../firmware/n32g430_std_periph_driver/src/n32g430_spi.c ****     /* Clear SPI_CTRL1 CLKPHA bits */
 309:../firmware/n32g430_std_periph_driver/src/n32g430_spi.c ****     SPIx->CTRL1 &= SPI_CLKPHA_MASK;
 636              		.loc 1 309 9
 637 000c 7B68     		ldr	r3, [r7, #4]
 638 000e 1B88     		ldrh	r3, [r3]	@ movhi
 639 0010 9BB2     		uxth	r3, r3
 640              		.loc 1 309 17
 641 0012 23F00103 		bic	r3, r3, #1
 642 0016 9AB2     		uxth	r2, r3
 643 0018 7B68     		ldr	r3, [r7, #4]
 644 001a 1A80     		strh	r2, [r3]	@ movhi
 310:../firmware/n32g430_std_periph_driver/src/n32g430_spi.c ****     /* Set SPI_CTRL1 CLKPHA bits */
 311:../firmware/n32g430_std_periph_driver/src/n32g430_spi.c ****     SPIx->CTRL1 |= CLKPHA;
 645              		.loc 1 311 9
 646 001c 7B68     		ldr	r3, [r7, #4]
 647 001e 1B88     		ldrh	r3, [r3]	@ movhi
 648 0020 9AB2     		uxth	r2, r3
 649              		.loc 1 311 17
 650 0022 7B88     		ldrh	r3, [r7, #2]	@ movhi
 651 0024 1343     		orrs	r3, r3, r2
 652 0026 9AB2     		uxth	r2, r3
 653 0028 7B68     		ldr	r3, [r7, #4]
 654 002a 1A80     		strh	r2, [r3]	@ movhi
 312:../firmware/n32g430_std_periph_driver/src/n32g430_spi.c **** }
 655              		.loc 1 312 1
 656 002c 00BF     		nop
 657 002e 0C37     		adds	r7, r7, #12
 658              	.LCFI55:
 659              		.cfi_def_cfa_offset 4
 660 0030 BD46     		mov	sp, r7
 661              	.LCFI56:
 662              		.cfi_def_cfa_register 13
 663              		@ sp needed
 664 0032 5DF8047B 		ldr	r7, [sp], #4
 665              	.LCFI57:
 666              		.cfi_restore 7
 667              		.cfi_def_cfa_offset 0
 668 0036 7047     		bx	lr
 669              		.cfi_endproc
 670              	.LFE139:
 672              		.section	.text.SPI_BaudRatePres_Config,"ax",%progbits
 673              		.align	1
 674              		.global	SPI_BaudRatePres_Config
 675              		.syntax unified
ARM GAS  C:\Users\ZShuai\AppData\Local\Temp\ccswPVQl.s 			page 18


 676              		.thumb
 677              		.thumb_func
 679              	SPI_BaudRatePres_Config:
 680              	.LFB140:
 313:../firmware/n32g430_std_periph_driver/src/n32g430_spi.c **** 
 314:../firmware/n32g430_std_periph_driver/src/n32g430_spi.c **** /**
 315:../firmware/n32g430_std_periph_driver/src/n32g430_spi.c **** *\*\name    SPI_BaudRatePres_Config.
 316:../firmware/n32g430_std_periph_driver/src/n32g430_spi.c **** *\*\fun     Configure the SPIx BaudRate prescaler.
 317:../firmware/n32g430_std_periph_driver/src/n32g430_spi.c **** *\*\param   SPIx :
 318:../firmware/n32g430_std_periph_driver/src/n32g430_spi.c **** *\*\          - SPI1
 319:../firmware/n32g430_std_periph_driver/src/n32g430_spi.c **** *\*\          - SPI2
 320:../firmware/n32g430_std_periph_driver/src/n32g430_spi.c **** *\*\param   BaudRatePres :
 321:../firmware/n32g430_std_periph_driver/src/n32g430_spi.c **** *\*\          - SPI_BR_PRESCALER_2
 322:../firmware/n32g430_std_periph_driver/src/n32g430_spi.c **** *\*\          - SPI_BR_PRESCALER_4
 323:../firmware/n32g430_std_periph_driver/src/n32g430_spi.c **** *\*\          - SPI_BR_PRESCALER_8
 324:../firmware/n32g430_std_periph_driver/src/n32g430_spi.c **** *\*\          - SPI_BR_PRESCALER_16
 325:../firmware/n32g430_std_periph_driver/src/n32g430_spi.c **** *\*\          - SPI_BR_PRESCALER_32
 326:../firmware/n32g430_std_periph_driver/src/n32g430_spi.c **** *\*\          - SPI_BR_PRESCALER_64
 327:../firmware/n32g430_std_periph_driver/src/n32g430_spi.c **** *\*\          - SPI_BR_PRESCALER_128
 328:../firmware/n32g430_std_periph_driver/src/n32g430_spi.c **** *\*\          - SPI_BR_PRESCALER_256
 329:../firmware/n32g430_std_periph_driver/src/n32g430_spi.c **** *\*\return  none
 330:../firmware/n32g430_std_periph_driver/src/n32g430_spi.c **** **/
 331:../firmware/n32g430_std_periph_driver/src/n32g430_spi.c **** void SPI_BaudRatePres_Config(SPI_Module* SPIx, uint16_t BaudRatePres)
 332:../firmware/n32g430_std_periph_driver/src/n32g430_spi.c **** {
 681              		.loc 1 332 1
 682              		.cfi_startproc
 683              		@ args = 0, pretend = 0, frame = 8
 684              		@ frame_needed = 1, uses_anonymous_args = 0
 685              		@ link register save eliminated.
 686 0000 80B4     		push	{r7}
 687              	.LCFI58:
 688              		.cfi_def_cfa_offset 4
 689              		.cfi_offset 7, -4
 690 0002 83B0     		sub	sp, sp, #12
 691              	.LCFI59:
 692              		.cfi_def_cfa_offset 16
 693 0004 00AF     		add	r7, sp, #0
 694              	.LCFI60:
 695              		.cfi_def_cfa_register 7
 696 0006 7860     		str	r0, [r7, #4]
 697 0008 0B46     		mov	r3, r1
 698 000a 7B80     		strh	r3, [r7, #2]	@ movhi
 333:../firmware/n32g430_std_periph_driver/src/n32g430_spi.c ****     /* Clear SPI_CTRL1 BR[2:0] bits */
 334:../firmware/n32g430_std_periph_driver/src/n32g430_spi.c ****     SPIx->CTRL1 &= SPI_BAUDRATEPRES_MASK;
 699              		.loc 1 334 9
 700 000c 7B68     		ldr	r3, [r7, #4]
 701 000e 1B88     		ldrh	r3, [r3]	@ movhi
 702 0010 9BB2     		uxth	r3, r3
 703              		.loc 1 334 17
 704 0012 23F03803 		bic	r3, r3, #56
 705 0016 9AB2     		uxth	r2, r3
 706 0018 7B68     		ldr	r3, [r7, #4]
 707 001a 1A80     		strh	r2, [r3]	@ movhi
 335:../firmware/n32g430_std_periph_driver/src/n32g430_spi.c ****     /* Set SPI_CTRL1 BR[2:0] bits */
 336:../firmware/n32g430_std_periph_driver/src/n32g430_spi.c ****     SPIx->CTRL1 |= BaudRatePres;
 708              		.loc 1 336 9
 709 001c 7B68     		ldr	r3, [r7, #4]
ARM GAS  C:\Users\ZShuai\AppData\Local\Temp\ccswPVQl.s 			page 19


 710 001e 1B88     		ldrh	r3, [r3]	@ movhi
 711 0020 9AB2     		uxth	r2, r3
 712              		.loc 1 336 17
 713 0022 7B88     		ldrh	r3, [r7, #2]	@ movhi
 714 0024 1343     		orrs	r3, r3, r2
 715 0026 9AB2     		uxth	r2, r3
 716 0028 7B68     		ldr	r3, [r7, #4]
 717 002a 1A80     		strh	r2, [r3]	@ movhi
 337:../firmware/n32g430_std_periph_driver/src/n32g430_spi.c **** }
 718              		.loc 1 337 1
 719 002c 00BF     		nop
 720 002e 0C37     		adds	r7, r7, #12
 721              	.LCFI61:
 722              		.cfi_def_cfa_offset 4
 723 0030 BD46     		mov	sp, r7
 724              	.LCFI62:
 725              		.cfi_def_cfa_register 13
 726              		@ sp needed
 727 0032 5DF8047B 		ldr	r7, [sp], #4
 728              	.LCFI63:
 729              		.cfi_restore 7
 730              		.cfi_def_cfa_offset 0
 731 0036 7047     		bx	lr
 732              		.cfi_endproc
 733              	.LFE140:
 735              		.section	.text.SPI_FirstBit_Config,"ax",%progbits
 736              		.align	1
 737              		.global	SPI_FirstBit_Config
 738              		.syntax unified
 739              		.thumb
 740              		.thumb_func
 742              	SPI_FirstBit_Config:
 743              	.LFB141:
 338:../firmware/n32g430_std_periph_driver/src/n32g430_spi.c **** 
 339:../firmware/n32g430_std_periph_driver/src/n32g430_spi.c **** 
 340:../firmware/n32g430_std_periph_driver/src/n32g430_spi.c **** /**
 341:../firmware/n32g430_std_periph_driver/src/n32g430_spi.c **** *\*\name    SPI_FirstBit_Config.
 342:../firmware/n32g430_std_periph_driver/src/n32g430_spi.c **** *\*\fun     Configure the SPIx data bit order.
 343:../firmware/n32g430_std_periph_driver/src/n32g430_spi.c **** *\*\param   SPIx :
 344:../firmware/n32g430_std_periph_driver/src/n32g430_spi.c **** *\*\          - SPI1
 345:../firmware/n32g430_std_periph_driver/src/n32g430_spi.c **** *\*\          - SPI2
 346:../firmware/n32g430_std_periph_driver/src/n32g430_spi.c **** *\*\param   FirstBit :
 347:../firmware/n32g430_std_periph_driver/src/n32g430_spi.c **** *\*\          - SPI_FB_MSB
 348:../firmware/n32g430_std_periph_driver/src/n32g430_spi.c **** *\*\          - SPI_FB_LSB
 349:../firmware/n32g430_std_periph_driver/src/n32g430_spi.c **** *\*\return  none
 350:../firmware/n32g430_std_periph_driver/src/n32g430_spi.c **** **/
 351:../firmware/n32g430_std_periph_driver/src/n32g430_spi.c **** void SPI_FirstBit_Config(SPI_Module* SPIx, uint16_t FirstBit)
 352:../firmware/n32g430_std_periph_driver/src/n32g430_spi.c **** {
 744              		.loc 1 352 1
 745              		.cfi_startproc
 746              		@ args = 0, pretend = 0, frame = 8
 747              		@ frame_needed = 1, uses_anonymous_args = 0
 748              		@ link register save eliminated.
 749 0000 80B4     		push	{r7}
 750              	.LCFI64:
 751              		.cfi_def_cfa_offset 4
 752              		.cfi_offset 7, -4
ARM GAS  C:\Users\ZShuai\AppData\Local\Temp\ccswPVQl.s 			page 20


 753 0002 83B0     		sub	sp, sp, #12
 754              	.LCFI65:
 755              		.cfi_def_cfa_offset 16
 756 0004 00AF     		add	r7, sp, #0
 757              	.LCFI66:
 758              		.cfi_def_cfa_register 7
 759 0006 7860     		str	r0, [r7, #4]
 760 0008 0B46     		mov	r3, r1
 761 000a 7B80     		strh	r3, [r7, #2]	@ movhi
 353:../firmware/n32g430_std_periph_driver/src/n32g430_spi.c ****     /* Clear SPI_CTRL1 LSBFF bits */
 354:../firmware/n32g430_std_periph_driver/src/n32g430_spi.c ****     SPIx->CTRL1 &= SPI_FIRSTBIT_MASK;
 762              		.loc 1 354 9
 763 000c 7B68     		ldr	r3, [r7, #4]
 764 000e 1B88     		ldrh	r3, [r3]	@ movhi
 765 0010 9BB2     		uxth	r3, r3
 766              		.loc 1 354 17
 767 0012 23F08003 		bic	r3, r3, #128
 768 0016 9AB2     		uxth	r2, r3
 769 0018 7B68     		ldr	r3, [r7, #4]
 770 001a 1A80     		strh	r2, [r3]	@ movhi
 355:../firmware/n32g430_std_periph_driver/src/n32g430_spi.c ****     /* Set SPI_CTRL1 LSBFF bits */
 356:../firmware/n32g430_std_periph_driver/src/n32g430_spi.c ****     SPIx->CTRL1 |= FirstBit;
 771              		.loc 1 356 9
 772 001c 7B68     		ldr	r3, [r7, #4]
 773 001e 1B88     		ldrh	r3, [r3]	@ movhi
 774 0020 9AB2     		uxth	r2, r3
 775              		.loc 1 356 17
 776 0022 7B88     		ldrh	r3, [r7, #2]	@ movhi
 777 0024 1343     		orrs	r3, r3, r2
 778 0026 9AB2     		uxth	r2, r3
 779 0028 7B68     		ldr	r3, [r7, #4]
 780 002a 1A80     		strh	r2, [r3]	@ movhi
 357:../firmware/n32g430_std_periph_driver/src/n32g430_spi.c **** }
 781              		.loc 1 357 1
 782 002c 00BF     		nop
 783 002e 0C37     		adds	r7, r7, #12
 784              	.LCFI67:
 785              		.cfi_def_cfa_offset 4
 786 0030 BD46     		mov	sp, r7
 787              	.LCFI68:
 788              		.cfi_def_cfa_register 13
 789              		@ sp needed
 790 0032 5DF8047B 		ldr	r7, [sp], #4
 791              	.LCFI69:
 792              		.cfi_restore 7
 793              		.cfi_def_cfa_offset 0
 794 0036 7047     		bx	lr
 795              		.cfi_endproc
 796              	.LFE141:
 798              		.section	.text.SPI_NSS_Config,"ax",%progbits
 799              		.align	1
 800              		.global	SPI_NSS_Config
 801              		.syntax unified
 802              		.thumb
 803              		.thumb_func
 805              	SPI_NSS_Config:
 806              	.LFB142:
ARM GAS  C:\Users\ZShuai\AppData\Local\Temp\ccswPVQl.s 			page 21


 358:../firmware/n32g430_std_periph_driver/src/n32g430_spi.c **** 
 359:../firmware/n32g430_std_periph_driver/src/n32g430_spi.c **** 
 360:../firmware/n32g430_std_periph_driver/src/n32g430_spi.c **** /**
 361:../firmware/n32g430_std_periph_driver/src/n32g430_spi.c **** *\*\name    SPI_NSS_Config.
 362:../firmware/n32g430_std_periph_driver/src/n32g430_spi.c **** *\*\fun     Configure the SPIx NSS to work in 
 363:../firmware/n32g430_std_periph_driver/src/n32g430_spi.c **** *\*\        software or hardware management mode.
 364:../firmware/n32g430_std_periph_driver/src/n32g430_spi.c **** *\*\param   SPIx :
 365:../firmware/n32g430_std_periph_driver/src/n32g430_spi.c **** *\*\          - SPI1
 366:../firmware/n32g430_std_periph_driver/src/n32g430_spi.c **** *\*\          - SPI2
 367:../firmware/n32g430_std_periph_driver/src/n32g430_spi.c **** *\*\param   NSS :
 368:../firmware/n32g430_std_periph_driver/src/n32g430_spi.c **** *\*\          - SPI_NSS_SOFT
 369:../firmware/n32g430_std_periph_driver/src/n32g430_spi.c **** *\*\          - SPI_NSS_HARD
 370:../firmware/n32g430_std_periph_driver/src/n32g430_spi.c **** *\*\return  none
 371:../firmware/n32g430_std_periph_driver/src/n32g430_spi.c **** *\*\note    If the host wants to use the hardware mode to control the slave NSS pin,
 372:../firmware/n32g430_std_periph_driver/src/n32g430_spi.c **** *\*\        it must call the function SPI_SS_Output_Enable to set the SSOEN bit of the SPI_CTRL2 re
 373:../firmware/n32g430_std_periph_driver/src/n32g430_spi.c **** **/
 374:../firmware/n32g430_std_periph_driver/src/n32g430_spi.c **** void SPI_NSS_Config(SPI_Module* SPIx, uint16_t NSS)
 375:../firmware/n32g430_std_periph_driver/src/n32g430_spi.c **** {
 807              		.loc 1 375 1
 808              		.cfi_startproc
 809              		@ args = 0, pretend = 0, frame = 8
 810              		@ frame_needed = 1, uses_anonymous_args = 0
 811              		@ link register save eliminated.
 812 0000 80B4     		push	{r7}
 813              	.LCFI70:
 814              		.cfi_def_cfa_offset 4
 815              		.cfi_offset 7, -4
 816 0002 83B0     		sub	sp, sp, #12
 817              	.LCFI71:
 818              		.cfi_def_cfa_offset 16
 819 0004 00AF     		add	r7, sp, #0
 820              	.LCFI72:
 821              		.cfi_def_cfa_register 7
 822 0006 7860     		str	r0, [r7, #4]
 823 0008 0B46     		mov	r3, r1
 824 000a 7B80     		strh	r3, [r7, #2]	@ movhi
 376:../firmware/n32g430_std_periph_driver/src/n32g430_spi.c ****     /* Clear SPI_CTRL1 SSMEN bits */
 377:../firmware/n32g430_std_periph_driver/src/n32g430_spi.c ****     SPIx->CTRL1 &= SPI_NSS_MASK;
 825              		.loc 1 377 9
 826 000c 7B68     		ldr	r3, [r7, #4]
 827 000e 1B88     		ldrh	r3, [r3]	@ movhi
 828 0010 9BB2     		uxth	r3, r3
 829              		.loc 1 377 17
 830 0012 23F40073 		bic	r3, r3, #512
 831 0016 9AB2     		uxth	r2, r3
 832 0018 7B68     		ldr	r3, [r7, #4]
 833 001a 1A80     		strh	r2, [r3]	@ movhi
 378:../firmware/n32g430_std_periph_driver/src/n32g430_spi.c ****     /* Set SPI_CTRL1 SSMEN bits */
 379:../firmware/n32g430_std_periph_driver/src/n32g430_spi.c ****     SPIx->CTRL1 |= NSS;
 834              		.loc 1 379 9
 835 001c 7B68     		ldr	r3, [r7, #4]
 836 001e 1B88     		ldrh	r3, [r3]	@ movhi
 837 0020 9AB2     		uxth	r2, r3
 838              		.loc 1 379 17
 839 0022 7B88     		ldrh	r3, [r7, #2]	@ movhi
 840 0024 1343     		orrs	r3, r3, r2
 841 0026 9AB2     		uxth	r2, r3
ARM GAS  C:\Users\ZShuai\AppData\Local\Temp\ccswPVQl.s 			page 22


 842 0028 7B68     		ldr	r3, [r7, #4]
 843 002a 1A80     		strh	r2, [r3]	@ movhi
 380:../firmware/n32g430_std_periph_driver/src/n32g430_spi.c **** }
 844              		.loc 1 380 1
 845 002c 00BF     		nop
 846 002e 0C37     		adds	r7, r7, #12
 847              	.LCFI73:
 848              		.cfi_def_cfa_offset 4
 849 0030 BD46     		mov	sp, r7
 850              	.LCFI74:
 851              		.cfi_def_cfa_register 13
 852              		@ sp needed
 853 0032 5DF8047B 		ldr	r7, [sp], #4
 854              	.LCFI75:
 855              		.cfi_restore 7
 856              		.cfi_def_cfa_offset 0
 857 0036 7047     		bx	lr
 858              		.cfi_endproc
 859              	.LFE142:
 861              		.section	.text.SPI_Set_Nss_Level,"ax",%progbits
 862              		.align	1
 863              		.global	SPI_Set_Nss_Level
 864              		.syntax unified
 865              		.thumb
 866              		.thumb_func
 868              	SPI_Set_Nss_Level:
 869              	.LFB143:
 381:../firmware/n32g430_std_periph_driver/src/n32g430_spi.c **** 
 382:../firmware/n32g430_std_periph_driver/src/n32g430_spi.c **** 
 383:../firmware/n32g430_std_periph_driver/src/n32g430_spi.c **** /**
 384:../firmware/n32g430_std_periph_driver/src/n32g430_spi.c **** *\*\name    SPI_Set_Nss_Level.
 385:../firmware/n32g430_std_periph_driver/src/n32g430_spi.c **** *\*\fun     Configure the level of NSS inside the SPI module.
 386:../firmware/n32g430_std_periph_driver/src/n32g430_spi.c **** *\*\param   SPIx :
 387:../firmware/n32g430_std_periph_driver/src/n32g430_spi.c **** *\*\          - SPI1
 388:../firmware/n32g430_std_periph_driver/src/n32g430_spi.c **** *\*\          - SPI2
 389:../firmware/n32g430_std_periph_driver/src/n32g430_spi.c **** *\*\param   SPI_NSS_Internal_Soft :
 390:../firmware/n32g430_std_periph_driver/src/n32g430_spi.c **** *\*\          - SPI_NSS_HIGH
 391:../firmware/n32g430_std_periph_driver/src/n32g430_spi.c **** *\*\          - SPI_NSS_LOW
 392:../firmware/n32g430_std_periph_driver/src/n32g430_spi.c **** *\*\return  none
 393:../firmware/n32g430_std_periph_driver/src/n32g430_spi.c **** *\*\note    Only meaningful when SPIx NSS works in software management mode.
 394:../firmware/n32g430_std_periph_driver/src/n32g430_spi.c **** *\*\        The configuration is the internal NSS level of the SPI module, not the NSS pin level.
 395:../firmware/n32g430_std_periph_driver/src/n32g430_spi.c **** **/
 396:../firmware/n32g430_std_periph_driver/src/n32g430_spi.c **** void SPI_Set_Nss_Level(SPI_Module* SPIx, uint16_t SPI_NSS_Internal_Soft)
 397:../firmware/n32g430_std_periph_driver/src/n32g430_spi.c **** {
 870              		.loc 1 397 1
 871              		.cfi_startproc
 872              		@ args = 0, pretend = 0, frame = 8
 873              		@ frame_needed = 1, uses_anonymous_args = 0
 874              		@ link register save eliminated.
 875 0000 80B4     		push	{r7}
 876              	.LCFI76:
 877              		.cfi_def_cfa_offset 4
 878              		.cfi_offset 7, -4
 879 0002 83B0     		sub	sp, sp, #12
 880              	.LCFI77:
 881              		.cfi_def_cfa_offset 16
 882 0004 00AF     		add	r7, sp, #0
ARM GAS  C:\Users\ZShuai\AppData\Local\Temp\ccswPVQl.s 			page 23


 883              	.LCFI78:
 884              		.cfi_def_cfa_register 7
 885 0006 7860     		str	r0, [r7, #4]
 886 0008 0B46     		mov	r3, r1
 887 000a 7B80     		strh	r3, [r7, #2]	@ movhi
 398:../firmware/n32g430_std_periph_driver/src/n32g430_spi.c ****     if(SPI_NSS_Internal_Soft == SPI_NSS_HIGH)
 888              		.loc 1 398 7
 889 000c 7B88     		ldrh	r3, [r7, #2]
 890 000e B3F5807F 		cmp	r3, #256
 891 0012 08D1     		bne	.L20
 399:../firmware/n32g430_std_periph_driver/src/n32g430_spi.c ****     {
 400:../firmware/n32g430_std_periph_driver/src/n32g430_spi.c ****         /* Set NSS pin internally by software */
 401:../firmware/n32g430_std_periph_driver/src/n32g430_spi.c ****         SPIx->CTRL1 |= SPI_NSS_HIGH;
 892              		.loc 1 401 13
 893 0014 7B68     		ldr	r3, [r7, #4]
 894 0016 1B88     		ldrh	r3, [r3]	@ movhi
 895 0018 9BB2     		uxth	r3, r3
 896              		.loc 1 401 21
 897 001a 43F48073 		orr	r3, r3, #256
 898 001e 9AB2     		uxth	r2, r3
 899 0020 7B68     		ldr	r3, [r7, #4]
 900 0022 1A80     		strh	r2, [r3]	@ movhi
 402:../firmware/n32g430_std_periph_driver/src/n32g430_spi.c ****     }
 403:../firmware/n32g430_std_periph_driver/src/n32g430_spi.c ****     else
 404:../firmware/n32g430_std_periph_driver/src/n32g430_spi.c ****     {
 405:../firmware/n32g430_std_periph_driver/src/n32g430_spi.c ****         /* Reset NSS pin internally by software */
 406:../firmware/n32g430_std_periph_driver/src/n32g430_spi.c ****         SPIx->CTRL1 &= SPI_NSS_LOW;
 407:../firmware/n32g430_std_periph_driver/src/n32g430_spi.c ****     }
 408:../firmware/n32g430_std_periph_driver/src/n32g430_spi.c **** }
 901              		.loc 1 408 1
 902 0024 07E0     		b	.L22
 903              	.L20:
 406:../firmware/n32g430_std_periph_driver/src/n32g430_spi.c ****     }
 904              		.loc 1 406 13
 905 0026 7B68     		ldr	r3, [r7, #4]
 906 0028 1B88     		ldrh	r3, [r3]	@ movhi
 907 002a 9BB2     		uxth	r3, r3
 406:../firmware/n32g430_std_periph_driver/src/n32g430_spi.c ****     }
 908              		.loc 1 406 21
 909 002c 23F48073 		bic	r3, r3, #256
 910 0030 9AB2     		uxth	r2, r3
 911 0032 7B68     		ldr	r3, [r7, #4]
 912 0034 1A80     		strh	r2, [r3]	@ movhi
 913              	.L22:
 914              		.loc 1 408 1
 915 0036 00BF     		nop
 916 0038 0C37     		adds	r7, r7, #12
 917              	.LCFI79:
 918              		.cfi_def_cfa_offset 4
 919 003a BD46     		mov	sp, r7
 920              	.LCFI80:
 921              		.cfi_def_cfa_register 13
 922              		@ sp needed
 923 003c 5DF8047B 		ldr	r7, [sp], #4
 924              	.LCFI81:
 925              		.cfi_restore 7
 926              		.cfi_def_cfa_offset 0
ARM GAS  C:\Users\ZShuai\AppData\Local\Temp\ccswPVQl.s 			page 24


 927 0040 7047     		bx	lr
 928              		.cfi_endproc
 929              	.LFE143:
 931              		.section	.text.SPI_SS_Output_Enable,"ax",%progbits
 932              		.align	1
 933              		.global	SPI_SS_Output_Enable
 934              		.syntax unified
 935              		.thumb
 936              		.thumb_func
 938              	SPI_SS_Output_Enable:
 939              	.LFB144:
 409:../firmware/n32g430_std_periph_driver/src/n32g430_spi.c **** 
 410:../firmware/n32g430_std_periph_driver/src/n32g430_spi.c **** /**
 411:../firmware/n32g430_std_periph_driver/src/n32g430_spi.c **** *\*\name    SPI_SS_Output_Enable.
 412:../firmware/n32g430_std_periph_driver/src/n32g430_spi.c **** *\*\fun     Enables the SS output in master mode.
 413:../firmware/n32g430_std_periph_driver/src/n32g430_spi.c **** *\*\param   SPIx :
 414:../firmware/n32g430_std_periph_driver/src/n32g430_spi.c **** *\*\          - SPI1
 415:../firmware/n32g430_std_periph_driver/src/n32g430_spi.c **** *\*\          - SPI2
 416:../firmware/n32g430_std_periph_driver/src/n32g430_spi.c **** *\*\return  none
 417:../firmware/n32g430_std_periph_driver/src/n32g430_spi.c **** *\*\note    The device cannot work in multi-master mode.
 418:../firmware/n32g430_std_periph_driver/src/n32g430_spi.c **** **/
 419:../firmware/n32g430_std_periph_driver/src/n32g430_spi.c **** void SPI_SS_Output_Enable(SPI_Module* SPIx)
 420:../firmware/n32g430_std_periph_driver/src/n32g430_spi.c **** {
 940              		.loc 1 420 1
 941              		.cfi_startproc
 942              		@ args = 0, pretend = 0, frame = 8
 943              		@ frame_needed = 1, uses_anonymous_args = 0
 944              		@ link register save eliminated.
 945 0000 80B4     		push	{r7}
 946              	.LCFI82:
 947              		.cfi_def_cfa_offset 4
 948              		.cfi_offset 7, -4
 949 0002 83B0     		sub	sp, sp, #12
 950              	.LCFI83:
 951              		.cfi_def_cfa_offset 16
 952 0004 00AF     		add	r7, sp, #0
 953              	.LCFI84:
 954              		.cfi_def_cfa_register 7
 955 0006 7860     		str	r0, [r7, #4]
 421:../firmware/n32g430_std_periph_driver/src/n32g430_spi.c ****     /* Set the SPI_CTRL2 SSOEN bit to enable SS output */
 422:../firmware/n32g430_std_periph_driver/src/n32g430_spi.c ****     SPIx->CTRL2 |= SPI_SS_OUTPUT_ENABLE;
 956              		.loc 1 422 9
 957 0008 7B68     		ldr	r3, [r7, #4]
 958 000a 9B88     		ldrh	r3, [r3, #4]	@ movhi
 959 000c 9BB2     		uxth	r3, r3
 960              		.loc 1 422 17
 961 000e 43F00403 		orr	r3, r3, #4
 962 0012 9AB2     		uxth	r2, r3
 963 0014 7B68     		ldr	r3, [r7, #4]
 964 0016 9A80     		strh	r2, [r3, #4]	@ movhi
 423:../firmware/n32g430_std_periph_driver/src/n32g430_spi.c **** }
 965              		.loc 1 423 1
 966 0018 00BF     		nop
 967 001a 0C37     		adds	r7, r7, #12
 968              	.LCFI85:
 969              		.cfi_def_cfa_offset 4
 970 001c BD46     		mov	sp, r7
ARM GAS  C:\Users\ZShuai\AppData\Local\Temp\ccswPVQl.s 			page 25


 971              	.LCFI86:
 972              		.cfi_def_cfa_register 13
 973              		@ sp needed
 974 001e 5DF8047B 		ldr	r7, [sp], #4
 975              	.LCFI87:
 976              		.cfi_restore 7
 977              		.cfi_def_cfa_offset 0
 978 0022 7047     		bx	lr
 979              		.cfi_endproc
 980              	.LFE144:
 982              		.section	.text.SPI_SS_Output_Disable,"ax",%progbits
 983              		.align	1
 984              		.global	SPI_SS_Output_Disable
 985              		.syntax unified
 986              		.thumb
 987              		.thumb_func
 989              	SPI_SS_Output_Disable:
 990              	.LFB145:
 424:../firmware/n32g430_std_periph_driver/src/n32g430_spi.c **** 
 425:../firmware/n32g430_std_periph_driver/src/n32g430_spi.c **** /**
 426:../firmware/n32g430_std_periph_driver/src/n32g430_spi.c **** *\*\name    SPI_SS_Output_Disable.
 427:../firmware/n32g430_std_periph_driver/src/n32g430_spi.c **** *\*\fun     Disable SS output in master mode.
 428:../firmware/n32g430_std_periph_driver/src/n32g430_spi.c **** *\*\param   SPIx :
 429:../firmware/n32g430_std_periph_driver/src/n32g430_spi.c **** *\*\          - SPI1
 430:../firmware/n32g430_std_periph_driver/src/n32g430_spi.c **** *\*\          - SPI2
 431:../firmware/n32g430_std_periph_driver/src/n32g430_spi.c **** *\*\return  none
 432:../firmware/n32g430_std_periph_driver/src/n32g430_spi.c **** *\*\note    The device can work in multi-master mode.
 433:../firmware/n32g430_std_periph_driver/src/n32g430_spi.c **** **/
 434:../firmware/n32g430_std_periph_driver/src/n32g430_spi.c **** void SPI_SS_Output_Disable(SPI_Module* SPIx)
 435:../firmware/n32g430_std_periph_driver/src/n32g430_spi.c **** {
 991              		.loc 1 435 1
 992              		.cfi_startproc
 993              		@ args = 0, pretend = 0, frame = 8
 994              		@ frame_needed = 1, uses_anonymous_args = 0
 995              		@ link register save eliminated.
 996 0000 80B4     		push	{r7}
 997              	.LCFI88:
 998              		.cfi_def_cfa_offset 4
 999              		.cfi_offset 7, -4
 1000 0002 83B0     		sub	sp, sp, #12
 1001              	.LCFI89:
 1002              		.cfi_def_cfa_offset 16
 1003 0004 00AF     		add	r7, sp, #0
 1004              	.LCFI90:
 1005              		.cfi_def_cfa_register 7
 1006 0006 7860     		str	r0, [r7, #4]
 436:../firmware/n32g430_std_periph_driver/src/n32g430_spi.c ****     /* Clean the SPI_CTRL2 SSOEN bit to disable SS output */
 437:../firmware/n32g430_std_periph_driver/src/n32g430_spi.c ****     SPIx->CTRL2 &= SPI_SS_OUTPUT_DISABLE;
 1007              		.loc 1 437 9
 1008 0008 7B68     		ldr	r3, [r7, #4]
 1009 000a 9B88     		ldrh	r3, [r3, #4]	@ movhi
 1010 000c 9BB2     		uxth	r3, r3
 1011              		.loc 1 437 17
 1012 000e 23F00403 		bic	r3, r3, #4
 1013 0012 9AB2     		uxth	r2, r3
 1014 0014 7B68     		ldr	r3, [r7, #4]
 1015 0016 9A80     		strh	r2, [r3, #4]	@ movhi
ARM GAS  C:\Users\ZShuai\AppData\Local\Temp\ccswPVQl.s 			page 26


 438:../firmware/n32g430_std_periph_driver/src/n32g430_spi.c **** }
 1016              		.loc 1 438 1
 1017 0018 00BF     		nop
 1018 001a 0C37     		adds	r7, r7, #12
 1019              	.LCFI91:
 1020              		.cfi_def_cfa_offset 4
 1021 001c BD46     		mov	sp, r7
 1022              	.LCFI92:
 1023              		.cfi_def_cfa_register 13
 1024              		@ sp needed
 1025 001e 5DF8047B 		ldr	r7, [sp], #4
 1026              	.LCFI93:
 1027              		.cfi_restore 7
 1028              		.cfi_def_cfa_offset 0
 1029 0022 7047     		bx	lr
 1030              		.cfi_endproc
 1031              	.LFE145:
 1033              		.section	.text.SPI_Next_Transmit_CRC,"ax",%progbits
 1034              		.align	1
 1035              		.global	SPI_Next_Transmit_CRC
 1036              		.syntax unified
 1037              		.thumb
 1038              		.thumb_func
 1040              	SPI_Next_Transmit_CRC:
 1041              	.LFB146:
 439:../firmware/n32g430_std_periph_driver/src/n32g430_spi.c **** 
 440:../firmware/n32g430_std_periph_driver/src/n32g430_spi.c **** /**
 441:../firmware/n32g430_std_periph_driver/src/n32g430_spi.c **** *\*\name    SPI_Next_Transmit_CRC.
 442:../firmware/n32g430_std_periph_driver/src/n32g430_spi.c **** *\*\fun     The next data to be sent is the CRC value.
 443:../firmware/n32g430_std_periph_driver/src/n32g430_spi.c **** *\*\param   SPIx :
 444:../firmware/n32g430_std_periph_driver/src/n32g430_spi.c **** *\*\          - SPI1
 445:../firmware/n32g430_std_periph_driver/src/n32g430_spi.c **** *\*\          - SPI2
 446:../firmware/n32g430_std_periph_driver/src/n32g430_spi.c **** *\*\return  none
 447:../firmware/n32g430_std_periph_driver/src/n32g430_spi.c **** **/
 448:../firmware/n32g430_std_periph_driver/src/n32g430_spi.c **** void SPI_Next_Transmit_CRC(SPI_Module* SPIx)
 449:../firmware/n32g430_std_periph_driver/src/n32g430_spi.c **** {
 1042              		.loc 1 449 1
 1043              		.cfi_startproc
 1044              		@ args = 0, pretend = 0, frame = 8
 1045              		@ frame_needed = 1, uses_anonymous_args = 0
 1046              		@ link register save eliminated.
 1047 0000 80B4     		push	{r7}
 1048              	.LCFI94:
 1049              		.cfi_def_cfa_offset 4
 1050              		.cfi_offset 7, -4
 1051 0002 83B0     		sub	sp, sp, #12
 1052              	.LCFI95:
 1053              		.cfi_def_cfa_offset 16
 1054 0004 00AF     		add	r7, sp, #0
 1055              	.LCFI96:
 1056              		.cfi_def_cfa_register 7
 1057 0006 7860     		str	r0, [r7, #4]
 450:../firmware/n32g430_std_periph_driver/src/n32g430_spi.c ****     /* Set the SPI_CTRL1 CRCNEXT bit */
 451:../firmware/n32g430_std_periph_driver/src/n32g430_spi.c ****     SPIx->CTRL1 |= SPI_CRCNEXT_ENABLE;
 1058              		.loc 1 451 9
 1059 0008 7B68     		ldr	r3, [r7, #4]
 1060 000a 1B88     		ldrh	r3, [r3]	@ movhi
ARM GAS  C:\Users\ZShuai\AppData\Local\Temp\ccswPVQl.s 			page 27


 1061 000c 9BB2     		uxth	r3, r3
 1062              		.loc 1 451 17
 1063 000e 43F48053 		orr	r3, r3, #4096
 1064 0012 9AB2     		uxth	r2, r3
 1065 0014 7B68     		ldr	r3, [r7, #4]
 1066 0016 1A80     		strh	r2, [r3]	@ movhi
 452:../firmware/n32g430_std_periph_driver/src/n32g430_spi.c **** }
 1067              		.loc 1 452 1
 1068 0018 00BF     		nop
 1069 001a 0C37     		adds	r7, r7, #12
 1070              	.LCFI97:
 1071              		.cfi_def_cfa_offset 4
 1072 001c BD46     		mov	sp, r7
 1073              	.LCFI98:
 1074              		.cfi_def_cfa_register 13
 1075              		@ sp needed
 1076 001e 5DF8047B 		ldr	r7, [sp], #4
 1077              	.LCFI99:
 1078              		.cfi_restore 7
 1079              		.cfi_def_cfa_offset 0
 1080 0022 7047     		bx	lr
 1081              		.cfi_endproc
 1082              	.LFE146:
 1084              		.section	.text.SPI_CRC_Enable,"ax",%progbits
 1085              		.align	1
 1086              		.global	SPI_CRC_Enable
 1087              		.syntax unified
 1088              		.thumb
 1089              		.thumb_func
 1091              	SPI_CRC_Enable:
 1092              	.LFB147:
 453:../firmware/n32g430_std_periph_driver/src/n32g430_spi.c **** 
 454:../firmware/n32g430_std_periph_driver/src/n32g430_spi.c **** /**
 455:../firmware/n32g430_std_periph_driver/src/n32g430_spi.c **** *\*\name    SPI_CRC_Enable.
 456:../firmware/n32g430_std_periph_driver/src/n32g430_spi.c **** *\*\fun     Enables the CRC value calculation of the transferred bytes.
 457:../firmware/n32g430_std_periph_driver/src/n32g430_spi.c **** *\*\param   SPIx :
 458:../firmware/n32g430_std_periph_driver/src/n32g430_spi.c **** *\*\          - SPI1
 459:../firmware/n32g430_std_periph_driver/src/n32g430_spi.c **** *\*\          - SPI2
 460:../firmware/n32g430_std_periph_driver/src/n32g430_spi.c **** *\*\return  none
 461:../firmware/n32g430_std_periph_driver/src/n32g430_spi.c **** *\*\note    Must be used with SPI OFF.
 462:../firmware/n32g430_std_periph_driver/src/n32g430_spi.c **** **/
 463:../firmware/n32g430_std_periph_driver/src/n32g430_spi.c **** void SPI_CRC_Enable(SPI_Module* SPIx)
 464:../firmware/n32g430_std_periph_driver/src/n32g430_spi.c **** {
 1093              		.loc 1 464 1
 1094              		.cfi_startproc
 1095              		@ args = 0, pretend = 0, frame = 8
 1096              		@ frame_needed = 1, uses_anonymous_args = 0
 1097              		@ link register save eliminated.
 1098 0000 80B4     		push	{r7}
 1099              	.LCFI100:
 1100              		.cfi_def_cfa_offset 4
 1101              		.cfi_offset 7, -4
 1102 0002 83B0     		sub	sp, sp, #12
 1103              	.LCFI101:
 1104              		.cfi_def_cfa_offset 16
 1105 0004 00AF     		add	r7, sp, #0
 1106              	.LCFI102:
ARM GAS  C:\Users\ZShuai\AppData\Local\Temp\ccswPVQl.s 			page 28


 1107              		.cfi_def_cfa_register 7
 1108 0006 7860     		str	r0, [r7, #4]
 465:../firmware/n32g430_std_periph_driver/src/n32g430_spi.c ****     /* Set the SPI_CTRL1 CRCEN bit to enable CRC calculation */
 466:../firmware/n32g430_std_periph_driver/src/n32g430_spi.c ****     SPIx->CTRL1 |= CTRL1_CRCEN_ENABLE;
 1109              		.loc 1 466 9
 1110 0008 7B68     		ldr	r3, [r7, #4]
 1111 000a 1B88     		ldrh	r3, [r3]	@ movhi
 1112 000c 9BB2     		uxth	r3, r3
 1113              		.loc 1 466 17
 1114 000e 43F40053 		orr	r3, r3, #8192
 1115 0012 9AB2     		uxth	r2, r3
 1116 0014 7B68     		ldr	r3, [r7, #4]
 1117 0016 1A80     		strh	r2, [r3]	@ movhi
 467:../firmware/n32g430_std_periph_driver/src/n32g430_spi.c **** }
 1118              		.loc 1 467 1
 1119 0018 00BF     		nop
 1120 001a 0C37     		adds	r7, r7, #12
 1121              	.LCFI103:
 1122              		.cfi_def_cfa_offset 4
 1123 001c BD46     		mov	sp, r7
 1124              	.LCFI104:
 1125              		.cfi_def_cfa_register 13
 1126              		@ sp needed
 1127 001e 5DF8047B 		ldr	r7, [sp], #4
 1128              	.LCFI105:
 1129              		.cfi_restore 7
 1130              		.cfi_def_cfa_offset 0
 1131 0022 7047     		bx	lr
 1132              		.cfi_endproc
 1133              	.LFE147:
 1135              		.section	.text.SPI_CRC_Disable,"ax",%progbits
 1136              		.align	1
 1137              		.global	SPI_CRC_Disable
 1138              		.syntax unified
 1139              		.thumb
 1140              		.thumb_func
 1142              	SPI_CRC_Disable:
 1143              	.LFB148:
 468:../firmware/n32g430_std_periph_driver/src/n32g430_spi.c **** 
 469:../firmware/n32g430_std_periph_driver/src/n32g430_spi.c **** /**
 470:../firmware/n32g430_std_periph_driver/src/n32g430_spi.c **** *\*\name    SPI_CRC_Disable.
 471:../firmware/n32g430_std_periph_driver/src/n32g430_spi.c **** *\*\fun     Disable the CRC value calculation of the transferred bytes.
 472:../firmware/n32g430_std_periph_driver/src/n32g430_spi.c **** *\*\param   SPIx :
 473:../firmware/n32g430_std_periph_driver/src/n32g430_spi.c **** *\*\          - SPI1
 474:../firmware/n32g430_std_periph_driver/src/n32g430_spi.c **** *\*\          - SPI2
 475:../firmware/n32g430_std_periph_driver/src/n32g430_spi.c **** *\*\return  none
 476:../firmware/n32g430_std_periph_driver/src/n32g430_spi.c **** **/
 477:../firmware/n32g430_std_periph_driver/src/n32g430_spi.c **** void SPI_CRC_Disable(SPI_Module* SPIx)
 478:../firmware/n32g430_std_periph_driver/src/n32g430_spi.c **** {
 1144              		.loc 1 478 1
 1145              		.cfi_startproc
 1146              		@ args = 0, pretend = 0, frame = 8
 1147              		@ frame_needed = 1, uses_anonymous_args = 0
 1148              		@ link register save eliminated.
 1149 0000 80B4     		push	{r7}
 1150              	.LCFI106:
 1151              		.cfi_def_cfa_offset 4
ARM GAS  C:\Users\ZShuai\AppData\Local\Temp\ccswPVQl.s 			page 29


 1152              		.cfi_offset 7, -4
 1153 0002 83B0     		sub	sp, sp, #12
 1154              	.LCFI107:
 1155              		.cfi_def_cfa_offset 16
 1156 0004 00AF     		add	r7, sp, #0
 1157              	.LCFI108:
 1158              		.cfi_def_cfa_register 7
 1159 0006 7860     		str	r0, [r7, #4]
 479:../firmware/n32g430_std_periph_driver/src/n32g430_spi.c ****     /* Clean the SPI_CTRL1 CRCEN bit to Disable CRC calculation */
 480:../firmware/n32g430_std_periph_driver/src/n32g430_spi.c ****     SPIx->CTRL1 &= CTRL1_CRCEN_DISABLE; 
 1160              		.loc 1 480 9
 1161 0008 7B68     		ldr	r3, [r7, #4]
 1162 000a 1B88     		ldrh	r3, [r3]	@ movhi
 1163 000c 9BB2     		uxth	r3, r3
 1164              		.loc 1 480 17
 1165 000e 23F40053 		bic	r3, r3, #8192
 1166 0012 9AB2     		uxth	r2, r3
 1167 0014 7B68     		ldr	r3, [r7, #4]
 1168 0016 1A80     		strh	r2, [r3]	@ movhi
 481:../firmware/n32g430_std_periph_driver/src/n32g430_spi.c **** }
 1169              		.loc 1 481 1
 1170 0018 00BF     		nop
 1171 001a 0C37     		adds	r7, r7, #12
 1172              	.LCFI109:
 1173              		.cfi_def_cfa_offset 4
 1174 001c BD46     		mov	sp, r7
 1175              	.LCFI110:
 1176              		.cfi_def_cfa_register 13
 1177              		@ sp needed
 1178 001e 5DF8047B 		ldr	r7, [sp], #4
 1179              	.LCFI111:
 1180              		.cfi_restore 7
 1181              		.cfi_def_cfa_offset 0
 1182 0022 7047     		bx	lr
 1183              		.cfi_endproc
 1184              	.LFE148:
 1186              		.section	.text.SPI_CRC_Data_Get,"ax",%progbits
 1187              		.align	1
 1188              		.global	SPI_CRC_Data_Get
 1189              		.syntax unified
 1190              		.thumb
 1191              		.thumb_func
 1193              	SPI_CRC_Data_Get:
 1194              	.LFB149:
 482:../firmware/n32g430_std_periph_driver/src/n32g430_spi.c **** 
 483:../firmware/n32g430_std_periph_driver/src/n32g430_spi.c **** /**
 484:../firmware/n32g430_std_periph_driver/src/n32g430_spi.c **** *\*\name    SPI_CRC_Data_Get.
 485:../firmware/n32g430_std_periph_driver/src/n32g430_spi.c **** *\*\fun     Get SPI CRC data from SPI_CRCTDAT/SPI_CRCRDAT register.
 486:../firmware/n32g430_std_periph_driver/src/n32g430_spi.c **** *\*\param   SPIx :
 487:../firmware/n32g430_std_periph_driver/src/n32g430_spi.c **** *\*\          - SPI1
 488:../firmware/n32g430_std_periph_driver/src/n32g430_spi.c **** *\*\          - SPI2
 489:../firmware/n32g430_std_periph_driver/src/n32g430_spi.c **** *\*\param   SPI_CRC :
 490:../firmware/n32g430_std_periph_driver/src/n32g430_spi.c **** *\*\          - SPI_CRC_TX
 491:../firmware/n32g430_std_periph_driver/src/n32g430_spi.c **** *\*\          - SPI_CRC_RX
 492:../firmware/n32g430_std_periph_driver/src/n32g430_spi.c **** *\*\return  Tx/Rx CRC register value.
 493:../firmware/n32g430_std_periph_driver/src/n32g430_spi.c **** **/
 494:../firmware/n32g430_std_periph_driver/src/n32g430_spi.c **** uint16_t SPI_CRC_Data_Get(SPI_Module* SPIx, uint8_t SPI_CRC)
ARM GAS  C:\Users\ZShuai\AppData\Local\Temp\ccswPVQl.s 			page 30


 495:../firmware/n32g430_std_periph_driver/src/n32g430_spi.c **** {
 1195              		.loc 1 495 1
 1196              		.cfi_startproc
 1197              		@ args = 0, pretend = 0, frame = 8
 1198              		@ frame_needed = 1, uses_anonymous_args = 0
 1199              		@ link register save eliminated.
 1200 0000 80B4     		push	{r7}
 1201              	.LCFI112:
 1202              		.cfi_def_cfa_offset 4
 1203              		.cfi_offset 7, -4
 1204 0002 83B0     		sub	sp, sp, #12
 1205              	.LCFI113:
 1206              		.cfi_def_cfa_offset 16
 1207 0004 00AF     		add	r7, sp, #0
 1208              	.LCFI114:
 1209              		.cfi_def_cfa_register 7
 1210 0006 7860     		str	r0, [r7, #4]
 1211 0008 0B46     		mov	r3, r1
 1212 000a FB70     		strb	r3, [r7, #3]
 496:../firmware/n32g430_std_periph_driver/src/n32g430_spi.c ****     if (SPI_CRC != SPI_CRC_RX)
 1213              		.loc 1 496 8
 1214 000c FB78     		ldrb	r3, [r7, #3]	@ zero_extendqisi2
 1215 000e 012B     		cmp	r3, #1
 1216 0010 03D0     		beq	.L29
 497:../firmware/n32g430_std_periph_driver/src/n32g430_spi.c ****     {
 498:../firmware/n32g430_std_periph_driver/src/n32g430_spi.c ****         /* return Tx CRC register value */
 499:../firmware/n32g430_std_periph_driver/src/n32g430_spi.c ****         return SPIx->CRCTDAT;
 1217              		.loc 1 499 20
 1218 0012 7B68     		ldr	r3, [r7, #4]
 1219 0014 1B8B     		ldrh	r3, [r3, #24]	@ movhi
 1220 0016 9BB2     		uxth	r3, r3
 1221 0018 02E0     		b	.L30
 1222              	.L29:
 500:../firmware/n32g430_std_periph_driver/src/n32g430_spi.c ****     }
 501:../firmware/n32g430_std_periph_driver/src/n32g430_spi.c ****     else
 502:../firmware/n32g430_std_periph_driver/src/n32g430_spi.c ****     {
 503:../firmware/n32g430_std_periph_driver/src/n32g430_spi.c ****         /* return Rx CRC register value */
 504:../firmware/n32g430_std_periph_driver/src/n32g430_spi.c ****         return SPIx->CRCRDAT;
 1223              		.loc 1 504 20
 1224 001a 7B68     		ldr	r3, [r7, #4]
 1225 001c 9B8A     		ldrh	r3, [r3, #20]	@ movhi
 1226 001e 9BB2     		uxth	r3, r3
 1227              	.L30:
 505:../firmware/n32g430_std_periph_driver/src/n32g430_spi.c ****     }
 506:../firmware/n32g430_std_periph_driver/src/n32g430_spi.c **** }
 1228              		.loc 1 506 1
 1229 0020 1846     		mov	r0, r3
 1230 0022 0C37     		adds	r7, r7, #12
 1231              	.LCFI115:
 1232              		.cfi_def_cfa_offset 4
 1233 0024 BD46     		mov	sp, r7
 1234              	.LCFI116:
 1235              		.cfi_def_cfa_register 13
 1236              		@ sp needed
 1237 0026 5DF8047B 		ldr	r7, [sp], #4
 1238              	.LCFI117:
 1239              		.cfi_restore 7
ARM GAS  C:\Users\ZShuai\AppData\Local\Temp\ccswPVQl.s 			page 31


 1240              		.cfi_def_cfa_offset 0
 1241 002a 7047     		bx	lr
 1242              		.cfi_endproc
 1243              	.LFE149:
 1245              		.section	.text.SPI_CRC_Polynomial_Set,"ax",%progbits
 1246              		.align	1
 1247              		.global	SPI_CRC_Polynomial_Set
 1248              		.syntax unified
 1249              		.thumb
 1250              		.thumb_func
 1252              	SPI_CRC_Polynomial_Set:
 1253              	.LFB150:
 507:../firmware/n32g430_std_periph_driver/src/n32g430_spi.c **** 
 508:../firmware/n32g430_std_periph_driver/src/n32g430_spi.c **** 
 509:../firmware/n32g430_std_periph_driver/src/n32g430_spi.c **** /**
 510:../firmware/n32g430_std_periph_driver/src/n32g430_spi.c **** *\*\name    SPI_CRC_Polynomial_Set.
 511:../firmware/n32g430_std_periph_driver/src/n32g430_spi.c **** *\*\fun     Set CRC Polynomial to SPI_CRC_POLY register.
 512:../firmware/n32g430_std_periph_driver/src/n32g430_spi.c **** *\*\param   SPIx :
 513:../firmware/n32g430_std_periph_driver/src/n32g430_spi.c **** *\*\          - SPI1
 514:../firmware/n32g430_std_periph_driver/src/n32g430_spi.c **** *\*\          - SPI2
 515:../firmware/n32g430_std_periph_driver/src/n32g430_spi.c **** *\*\param   polynomial      max 0xffff
 516:../firmware/n32g430_std_periph_driver/src/n32g430_spi.c **** *\*\return  none.
 517:../firmware/n32g430_std_periph_driver/src/n32g430_spi.c **** **/
 518:../firmware/n32g430_std_periph_driver/src/n32g430_spi.c **** void SPI_CRC_Polynomial_Set(SPI_Module* SPIx, uint16_t polynomial)
 519:../firmware/n32g430_std_periph_driver/src/n32g430_spi.c **** {
 1254              		.loc 1 519 1
 1255              		.cfi_startproc
 1256              		@ args = 0, pretend = 0, frame = 8
 1257              		@ frame_needed = 1, uses_anonymous_args = 0
 1258              		@ link register save eliminated.
 1259 0000 80B4     		push	{r7}
 1260              	.LCFI118:
 1261              		.cfi_def_cfa_offset 4
 1262              		.cfi_offset 7, -4
 1263 0002 83B0     		sub	sp, sp, #12
 1264              	.LCFI119:
 1265              		.cfi_def_cfa_offset 16
 1266 0004 00AF     		add	r7, sp, #0
 1267              	.LCFI120:
 1268              		.cfi_def_cfa_register 7
 1269 0006 7860     		str	r0, [r7, #4]
 1270 0008 0B46     		mov	r3, r1
 1271 000a 7B80     		strh	r3, [r7, #2]	@ movhi
 520:../firmware/n32g430_std_periph_driver/src/n32g430_spi.c ****     /* Return the CRC polynomial register value */
 521:../firmware/n32g430_std_periph_driver/src/n32g430_spi.c ****     SPIx->CRCPOLY = polynomial;
 1272              		.loc 1 521 19
 1273 000c 7B68     		ldr	r3, [r7, #4]
 1274 000e 7A88     		ldrh	r2, [r7, #2]	@ movhi
 1275 0010 1A82     		strh	r2, [r3, #16]	@ movhi
 522:../firmware/n32g430_std_periph_driver/src/n32g430_spi.c **** }
 1276              		.loc 1 522 1
 1277 0012 00BF     		nop
 1278 0014 0C37     		adds	r7, r7, #12
 1279              	.LCFI121:
 1280              		.cfi_def_cfa_offset 4
 1281 0016 BD46     		mov	sp, r7
 1282              	.LCFI122:
ARM GAS  C:\Users\ZShuai\AppData\Local\Temp\ccswPVQl.s 			page 32


 1283              		.cfi_def_cfa_register 13
 1284              		@ sp needed
 1285 0018 5DF8047B 		ldr	r7, [sp], #4
 1286              	.LCFI123:
 1287              		.cfi_restore 7
 1288              		.cfi_def_cfa_offset 0
 1289 001c 7047     		bx	lr
 1290              		.cfi_endproc
 1291              	.LFE150:
 1293              		.section	.text.SPI_CRC_Polynomial_Get,"ax",%progbits
 1294              		.align	1
 1295              		.global	SPI_CRC_Polynomial_Get
 1296              		.syntax unified
 1297              		.thumb
 1298              		.thumb_func
 1300              	SPI_CRC_Polynomial_Get:
 1301              	.LFB151:
 523:../firmware/n32g430_std_periph_driver/src/n32g430_spi.c **** 
 524:../firmware/n32g430_std_periph_driver/src/n32g430_spi.c **** 
 525:../firmware/n32g430_std_periph_driver/src/n32g430_spi.c **** /**
 526:../firmware/n32g430_std_periph_driver/src/n32g430_spi.c **** *\*\name    SPI_CRC_Polynomial_Get.
 527:../firmware/n32g430_std_periph_driver/src/n32g430_spi.c **** *\*\fun     Get CRC Polynomial from SPI_CRC_POLY register.
 528:../firmware/n32g430_std_periph_driver/src/n32g430_spi.c **** *\*\param   SPIx :
 529:../firmware/n32g430_std_periph_driver/src/n32g430_spi.c **** *\*\          - SPI1
 530:../firmware/n32g430_std_periph_driver/src/n32g430_spi.c **** *\*\          - SPI2
 531:../firmware/n32g430_std_periph_driver/src/n32g430_spi.c **** *\*\return  The CRC Polynomial register value.
 532:../firmware/n32g430_std_periph_driver/src/n32g430_spi.c **** **/
 533:../firmware/n32g430_std_periph_driver/src/n32g430_spi.c **** uint16_t SPI_CRC_Polynomial_Get(SPI_Module* SPIx)
 534:../firmware/n32g430_std_periph_driver/src/n32g430_spi.c **** {
 1302              		.loc 1 534 1
 1303              		.cfi_startproc
 1304              		@ args = 0, pretend = 0, frame = 8
 1305              		@ frame_needed = 1, uses_anonymous_args = 0
 1306              		@ link register save eliminated.
 1307 0000 80B4     		push	{r7}
 1308              	.LCFI124:
 1309              		.cfi_def_cfa_offset 4
 1310              		.cfi_offset 7, -4
 1311 0002 83B0     		sub	sp, sp, #12
 1312              	.LCFI125:
 1313              		.cfi_def_cfa_offset 16
 1314 0004 00AF     		add	r7, sp, #0
 1315              	.LCFI126:
 1316              		.cfi_def_cfa_register 7
 1317 0006 7860     		str	r0, [r7, #4]
 535:../firmware/n32g430_std_periph_driver/src/n32g430_spi.c ****     /* Return the CRC polynomial register value */
 536:../firmware/n32g430_std_periph_driver/src/n32g430_spi.c ****     return SPIx->CRCPOLY;
 1318              		.loc 1 536 16
 1319 0008 7B68     		ldr	r3, [r7, #4]
 1320 000a 1B8A     		ldrh	r3, [r3, #16]	@ movhi
 1321 000c 9BB2     		uxth	r3, r3
 537:../firmware/n32g430_std_periph_driver/src/n32g430_spi.c **** }
 1322              		.loc 1 537 1
 1323 000e 1846     		mov	r0, r3
 1324 0010 0C37     		adds	r7, r7, #12
 1325              	.LCFI127:
 1326              		.cfi_def_cfa_offset 4
ARM GAS  C:\Users\ZShuai\AppData\Local\Temp\ccswPVQl.s 			page 33


 1327 0012 BD46     		mov	sp, r7
 1328              	.LCFI128:
 1329              		.cfi_def_cfa_register 13
 1330              		@ sp needed
 1331 0014 5DF8047B 		ldr	r7, [sp], #4
 1332              	.LCFI129:
 1333              		.cfi_restore 7
 1334              		.cfi_def_cfa_offset 0
 1335 0018 7047     		bx	lr
 1336              		.cfi_endproc
 1337              	.LFE151:
 1339              		.section	.text.SPI_I2S_Mode_Select,"ax",%progbits
 1340              		.align	1
 1341              		.global	SPI_I2S_Mode_Select
 1342              		.syntax unified
 1343              		.thumb
 1344              		.thumb_func
 1346              	SPI_I2S_Mode_Select:
 1347              	.LFB152:
 538:../firmware/n32g430_std_periph_driver/src/n32g430_spi.c **** 
 539:../firmware/n32g430_std_periph_driver/src/n32g430_spi.c **** 
 540:../firmware/n32g430_std_periph_driver/src/n32g430_spi.c **** /**
 541:../firmware/n32g430_std_periph_driver/src/n32g430_spi.c **** *\*\name    SPI_I2S_Mode_Select.
 542:../firmware/n32g430_std_periph_driver/src/n32g430_spi.c **** *\*\fun     Select working on SPI or I2S mode.
 543:../firmware/n32g430_std_periph_driver/src/n32g430_spi.c **** *\*\param   SPIx :
 544:../firmware/n32g430_std_periph_driver/src/n32g430_spi.c **** *\*\          - SPI1
 545:../firmware/n32g430_std_periph_driver/src/n32g430_spi.c **** *\*\          - SPI2
 546:../firmware/n32g430_std_periph_driver/src/n32g430_spi.c **** *\*\param   Mode :
 547:../firmware/n32g430_std_periph_driver/src/n32g430_spi.c **** *\*\          - SEL_SPI_Mode
 548:../firmware/n32g430_std_periph_driver/src/n32g430_spi.c **** *\*\          - SEL_I2S_Mode
 549:../firmware/n32g430_std_periph_driver/src/n32g430_spi.c **** *\*\return  none
 550:../firmware/n32g430_std_periph_driver/src/n32g430_spi.c **** *\*\note    Can only be used when SPI or I2S is turned off.
 551:../firmware/n32g430_std_periph_driver/src/n32g430_spi.c **** **/
 552:../firmware/n32g430_std_periph_driver/src/n32g430_spi.c **** void SPI_I2S_Mode_Select(SPI_Module* SPIx, uint16_t Mode)
 553:../firmware/n32g430_std_periph_driver/src/n32g430_spi.c **** {
 1348              		.loc 1 553 1
 1349              		.cfi_startproc
 1350              		@ args = 0, pretend = 0, frame = 8
 1351              		@ frame_needed = 1, uses_anonymous_args = 0
 1352              		@ link register save eliminated.
 1353 0000 80B4     		push	{r7}
 1354              	.LCFI130:
 1355              		.cfi_def_cfa_offset 4
 1356              		.cfi_offset 7, -4
 1357 0002 83B0     		sub	sp, sp, #12
 1358              	.LCFI131:
 1359              		.cfi_def_cfa_offset 16
 1360 0004 00AF     		add	r7, sp, #0
 1361              	.LCFI132:
 1362              		.cfi_def_cfa_register 7
 1363 0006 7860     		str	r0, [r7, #4]
 1364 0008 0B46     		mov	r3, r1
 1365 000a 7B80     		strh	r3, [r7, #2]	@ movhi
 554:../firmware/n32g430_std_periph_driver/src/n32g430_spi.c ****     /* Clear MODSEL bit */
 555:../firmware/n32g430_std_periph_driver/src/n32g430_spi.c ****     SPIx->I2SCFG &= I2S_MODE_MASK;
 1366              		.loc 1 555 9
 1367 000c 7B68     		ldr	r3, [r7, #4]
ARM GAS  C:\Users\ZShuai\AppData\Local\Temp\ccswPVQl.s 			page 34


 1368 000e 9B8B     		ldrh	r3, [r3, #28]	@ movhi
 1369 0010 9BB2     		uxth	r3, r3
 1370              		.loc 1 555 18
 1371 0012 23F44073 		bic	r3, r3, #768
 1372 0016 9AB2     		uxth	r2, r3
 1373 0018 7B68     		ldr	r3, [r7, #4]
 1374 001a 9A83     		strh	r2, [r3, #28]	@ movhi
 556:../firmware/n32g430_std_periph_driver/src/n32g430_spi.c ****     /* Select the mode */
 557:../firmware/n32g430_std_periph_driver/src/n32g430_spi.c ****     SPIx->I2SCFG |= Mode;  
 1375              		.loc 1 557 9
 1376 001c 7B68     		ldr	r3, [r7, #4]
 1377 001e 9B8B     		ldrh	r3, [r3, #28]	@ movhi
 1378 0020 9AB2     		uxth	r2, r3
 1379              		.loc 1 557 18
 1380 0022 7B88     		ldrh	r3, [r7, #2]	@ movhi
 1381 0024 1343     		orrs	r3, r3, r2
 1382 0026 9AB2     		uxth	r2, r3
 1383 0028 7B68     		ldr	r3, [r7, #4]
 1384 002a 9A83     		strh	r2, [r3, #28]	@ movhi
 558:../firmware/n32g430_std_periph_driver/src/n32g430_spi.c **** }
 1385              		.loc 1 558 1
 1386 002c 00BF     		nop
 1387 002e 0C37     		adds	r7, r7, #12
 1388              	.LCFI133:
 1389              		.cfi_def_cfa_offset 4
 1390 0030 BD46     		mov	sp, r7
 1391              	.LCFI134:
 1392              		.cfi_def_cfa_register 13
 1393              		@ sp needed
 1394 0032 5DF8047B 		ldr	r7, [sp], #4
 1395              	.LCFI135:
 1396              		.cfi_restore 7
 1397              		.cfi_def_cfa_offset 0
 1398 0036 7047     		bx	lr
 1399              		.cfi_endproc
 1400              	.LFE152:
 1402              		.section	.text.I2S_ON,"ax",%progbits
 1403              		.align	1
 1404              		.global	I2S_ON
 1405              		.syntax unified
 1406              		.thumb
 1407              		.thumb_func
 1409              	I2S_ON:
 1410              	.LFB153:
 559:../firmware/n32g430_std_periph_driver/src/n32g430_spi.c **** 
 560:../firmware/n32g430_std_periph_driver/src/n32g430_spi.c **** 
 561:../firmware/n32g430_std_periph_driver/src/n32g430_spi.c **** /**
 562:../firmware/n32g430_std_periph_driver/src/n32g430_spi.c **** *\*\name    I2S_ON.
 563:../firmware/n32g430_std_periph_driver/src/n32g430_spi.c **** *\*\fun     I2S turn ON.
 564:../firmware/n32g430_std_periph_driver/src/n32g430_spi.c **** *\*\param   SPIx :
 565:../firmware/n32g430_std_periph_driver/src/n32g430_spi.c **** *\*\          - SPI1
 566:../firmware/n32g430_std_periph_driver/src/n32g430_spi.c **** *\*\          - SPI2
 567:../firmware/n32g430_std_periph_driver/src/n32g430_spi.c **** *\*\return  none
 568:../firmware/n32g430_std_periph_driver/src/n32g430_spi.c **** **/
 569:../firmware/n32g430_std_periph_driver/src/n32g430_spi.c **** void I2S_ON(SPI_Module* SPIx)
 570:../firmware/n32g430_std_periph_driver/src/n32g430_spi.c **** {
 1411              		.loc 1 570 1
ARM GAS  C:\Users\ZShuai\AppData\Local\Temp\ccswPVQl.s 			page 35


 1412              		.cfi_startproc
 1413              		@ args = 0, pretend = 0, frame = 8
 1414              		@ frame_needed = 1, uses_anonymous_args = 0
 1415              		@ link register save eliminated.
 1416 0000 80B4     		push	{r7}
 1417              	.LCFI136:
 1418              		.cfi_def_cfa_offset 4
 1419              		.cfi_offset 7, -4
 1420 0002 83B0     		sub	sp, sp, #12
 1421              	.LCFI137:
 1422              		.cfi_def_cfa_offset 16
 1423 0004 00AF     		add	r7, sp, #0
 1424              	.LCFI138:
 1425              		.cfi_def_cfa_register 7
 1426 0006 7860     		str	r0, [r7, #4]
 571:../firmware/n32g430_std_periph_driver/src/n32g430_spi.c ****     /* Set the SPI_I2SCFG ON bit to wake up the I2S from power down mode */
 572:../firmware/n32g430_std_periph_driver/src/n32g430_spi.c ****     SPIx->I2SCFG |= I2S_TURN_ON;
 1427              		.loc 1 572 9
 1428 0008 7B68     		ldr	r3, [r7, #4]
 1429 000a 9B8B     		ldrh	r3, [r3, #28]	@ movhi
 1430 000c 9BB2     		uxth	r3, r3
 1431              		.loc 1 572 18
 1432 000e 43F44063 		orr	r3, r3, #3072
 1433 0012 9AB2     		uxth	r2, r3
 1434 0014 7B68     		ldr	r3, [r7, #4]
 1435 0016 9A83     		strh	r2, [r3, #28]	@ movhi
 573:../firmware/n32g430_std_periph_driver/src/n32g430_spi.c **** }
 1436              		.loc 1 573 1
 1437 0018 00BF     		nop
 1438 001a 0C37     		adds	r7, r7, #12
 1439              	.LCFI139:
 1440              		.cfi_def_cfa_offset 4
 1441 001c BD46     		mov	sp, r7
 1442              	.LCFI140:
 1443              		.cfi_def_cfa_register 13
 1444              		@ sp needed
 1445 001e 5DF8047B 		ldr	r7, [sp], #4
 1446              	.LCFI141:
 1447              		.cfi_restore 7
 1448              		.cfi_def_cfa_offset 0
 1449 0022 7047     		bx	lr
 1450              		.cfi_endproc
 1451              	.LFE153:
 1453              		.section	.text.I2S_OFF,"ax",%progbits
 1454              		.align	1
 1455              		.global	I2S_OFF
 1456              		.syntax unified
 1457              		.thumb
 1458              		.thumb_func
 1460              	I2S_OFF:
 1461              	.LFB154:
 574:../firmware/n32g430_std_periph_driver/src/n32g430_spi.c **** 
 575:../firmware/n32g430_std_periph_driver/src/n32g430_spi.c **** 
 576:../firmware/n32g430_std_periph_driver/src/n32g430_spi.c **** /**
 577:../firmware/n32g430_std_periph_driver/src/n32g430_spi.c **** *\*\name    I2S_OFF.
 578:../firmware/n32g430_std_periph_driver/src/n32g430_spi.c **** *\*\fun     I2S turn OFF.
 579:../firmware/n32g430_std_periph_driver/src/n32g430_spi.c **** *\*\param   SPIx :
ARM GAS  C:\Users\ZShuai\AppData\Local\Temp\ccswPVQl.s 			page 36


 580:../firmware/n32g430_std_periph_driver/src/n32g430_spi.c **** *\*\          - SPI1
 581:../firmware/n32g430_std_periph_driver/src/n32g430_spi.c **** *\*\          - SPI2
 582:../firmware/n32g430_std_periph_driver/src/n32g430_spi.c **** *\*\return  none
 583:../firmware/n32g430_std_periph_driver/src/n32g430_spi.c **** **/
 584:../firmware/n32g430_std_periph_driver/src/n32g430_spi.c **** void I2S_OFF(SPI_Module* SPIx)
 585:../firmware/n32g430_std_periph_driver/src/n32g430_spi.c **** {
 1462              		.loc 1 585 1
 1463              		.cfi_startproc
 1464              		@ args = 0, pretend = 0, frame = 8
 1465              		@ frame_needed = 1, uses_anonymous_args = 0
 1466              		@ link register save eliminated.
 1467 0000 80B4     		push	{r7}
 1468              	.LCFI142:
 1469              		.cfi_def_cfa_offset 4
 1470              		.cfi_offset 7, -4
 1471 0002 83B0     		sub	sp, sp, #12
 1472              	.LCFI143:
 1473              		.cfi_def_cfa_offset 16
 1474 0004 00AF     		add	r7, sp, #0
 1475              	.LCFI144:
 1476              		.cfi_def_cfa_register 7
 1477 0006 7860     		str	r0, [r7, #4]
 586:../firmware/n32g430_std_periph_driver/src/n32g430_spi.c ****     /* Clear the SPI_I2SCFG ON bit, The I2S go to power down mode */
 587:../firmware/n32g430_std_periph_driver/src/n32g430_spi.c ****     SPIx->I2SCFG &= I2S_TURN_OFF;
 1478              		.loc 1 587 9
 1479 0008 7B68     		ldr	r3, [r7, #4]
 1480 000a 9B8B     		ldrh	r3, [r3, #28]	@ movhi
 1481 000c 9BB2     		uxth	r3, r3
 1482              		.loc 1 587 18
 1483 000e 23F44063 		bic	r3, r3, #3072
 1484 0012 9AB2     		uxth	r2, r3
 1485 0014 7B68     		ldr	r3, [r7, #4]
 1486 0016 9A83     		strh	r2, [r3, #28]	@ movhi
 588:../firmware/n32g430_std_periph_driver/src/n32g430_spi.c **** }
 1487              		.loc 1 588 1
 1488 0018 00BF     		nop
 1489 001a 0C37     		adds	r7, r7, #12
 1490              	.LCFI145:
 1491              		.cfi_def_cfa_offset 4
 1492 001c BD46     		mov	sp, r7
 1493              	.LCFI146:
 1494              		.cfi_def_cfa_register 13
 1495              		@ sp needed
 1496 001e 5DF8047B 		ldr	r7, [sp], #4
 1497              	.LCFI147:
 1498              		.cfi_restore 7
 1499              		.cfi_def_cfa_offset 0
 1500 0022 7047     		bx	lr
 1501              		.cfi_endproc
 1502              	.LFE154:
 1504              		.section	.text.I2S_Initializes_Structure,"ax",%progbits
 1505              		.align	1
 1506              		.global	I2S_Initializes_Structure
 1507              		.syntax unified
 1508              		.thumb
 1509              		.thumb_func
 1511              	I2S_Initializes_Structure:
ARM GAS  C:\Users\ZShuai\AppData\Local\Temp\ccswPVQl.s 			page 37


 1512              	.LFB155:
 589:../firmware/n32g430_std_periph_driver/src/n32g430_spi.c **** 
 590:../firmware/n32g430_std_periph_driver/src/n32g430_spi.c **** 
 591:../firmware/n32g430_std_periph_driver/src/n32g430_spi.c **** /**
 592:../firmware/n32g430_std_periph_driver/src/n32g430_spi.c **** *\*\name    I2S_Initializes_Structure.
 593:../firmware/n32g430_std_periph_driver/src/n32g430_spi.c **** *\*\fun     Fills each I2S_InitStruct member with its default value.
 594:../firmware/n32g430_std_periph_driver/src/n32g430_spi.c **** *\*\param   I2S_InitStruct :
 595:../firmware/n32g430_std_periph_driver/src/n32g430_spi.c **** *\*\          - I2sMode
 596:../firmware/n32g430_std_periph_driver/src/n32g430_spi.c **** *\*\          - Standard
 597:../firmware/n32g430_std_periph_driver/src/n32g430_spi.c **** *\*\          - DataFormat
 598:../firmware/n32g430_std_periph_driver/src/n32g430_spi.c **** *\*\          - MCLKEnable
 599:../firmware/n32g430_std_periph_driver/src/n32g430_spi.c **** *\*\          - AudioFrequency
 600:../firmware/n32g430_std_periph_driver/src/n32g430_spi.c **** *\*\          - CLKPOL
 601:../firmware/n32g430_std_periph_driver/src/n32g430_spi.c **** *\*\return  none
 602:../firmware/n32g430_std_periph_driver/src/n32g430_spi.c **** **/
 603:../firmware/n32g430_std_periph_driver/src/n32g430_spi.c **** void I2S_Initializes_Structure(I2S_InitType* I2S_InitStruct)
 604:../firmware/n32g430_std_periph_driver/src/n32g430_spi.c **** {
 1513              		.loc 1 604 1
 1514              		.cfi_startproc
 1515              		@ args = 0, pretend = 0, frame = 8
 1516              		@ frame_needed = 1, uses_anonymous_args = 0
 1517              		@ link register save eliminated.
 1518 0000 80B4     		push	{r7}
 1519              	.LCFI148:
 1520              		.cfi_def_cfa_offset 4
 1521              		.cfi_offset 7, -4
 1522 0002 83B0     		sub	sp, sp, #12
 1523              	.LCFI149:
 1524              		.cfi_def_cfa_offset 16
 1525 0004 00AF     		add	r7, sp, #0
 1526              	.LCFI150:
 1527              		.cfi_def_cfa_register 7
 1528 0006 7860     		str	r0, [r7, #4]
 605:../firmware/n32g430_std_periph_driver/src/n32g430_spi.c ****     /*--------------- Reset I2S init structure parameters values -----------------*/
 606:../firmware/n32g430_std_periph_driver/src/n32g430_spi.c ****     /* Initialize the I2sMode member */
 607:../firmware/n32g430_std_periph_driver/src/n32g430_spi.c ****     I2S_InitStruct->I2sMode = I2S_MODE_SlAVE_TX;
 1529              		.loc 1 607 29
 1530 0008 7B68     		ldr	r3, [r7, #4]
 1531 000a 0022     		movs	r2, #0
 1532 000c 1A80     		strh	r2, [r3]	@ movhi
 608:../firmware/n32g430_std_periph_driver/src/n32g430_spi.c **** 
 609:../firmware/n32g430_std_periph_driver/src/n32g430_spi.c ****     /* Initialize the Standard member */
 610:../firmware/n32g430_std_periph_driver/src/n32g430_spi.c ****     I2S_InitStruct->Standard = I2S_STD_PHILLIPS;
 1533              		.loc 1 610 30
 1534 000e 7B68     		ldr	r3, [r7, #4]
 1535 0010 0022     		movs	r2, #0
 1536 0012 5A80     		strh	r2, [r3, #2]	@ movhi
 611:../firmware/n32g430_std_periph_driver/src/n32g430_spi.c **** 
 612:../firmware/n32g430_std_periph_driver/src/n32g430_spi.c ****     /* Initialize the DataFormat member */
 613:../firmware/n32g430_std_periph_driver/src/n32g430_spi.c ****     I2S_InitStruct->DataFormat = I2S_DATA_FMT_16BITS;
 1537              		.loc 1 613 32
 1538 0014 7B68     		ldr	r3, [r7, #4]
 1539 0016 0022     		movs	r2, #0
 1540 0018 9A80     		strh	r2, [r3, #4]	@ movhi
 614:../firmware/n32g430_std_periph_driver/src/n32g430_spi.c **** 
 615:../firmware/n32g430_std_periph_driver/src/n32g430_spi.c ****     /* Initialize the MCLKEnable member */
 616:../firmware/n32g430_std_periph_driver/src/n32g430_spi.c ****     I2S_InitStruct->MCLKEnable = DISABLE;
ARM GAS  C:\Users\ZShuai\AppData\Local\Temp\ccswPVQl.s 			page 38


 1541              		.loc 1 616 32
 1542 001a 7B68     		ldr	r3, [r7, #4]
 1543 001c 0022     		movs	r2, #0
 1544 001e DA80     		strh	r2, [r3, #6]	@ movhi
 617:../firmware/n32g430_std_periph_driver/src/n32g430_spi.c **** 
 618:../firmware/n32g430_std_periph_driver/src/n32g430_spi.c ****     /* Initialize the AudioFrequency member */
 619:../firmware/n32g430_std_periph_driver/src/n32g430_spi.c ****     I2S_InitStruct->AudioFrequency = I2S_AUDIO_FREQ_DEFAULT;
 1545              		.loc 1 619 36
 1546 0020 7B68     		ldr	r3, [r7, #4]
 1547 0022 0222     		movs	r2, #2
 1548 0024 9A60     		str	r2, [r3, #8]
 620:../firmware/n32g430_std_periph_driver/src/n32g430_spi.c **** 
 621:../firmware/n32g430_std_periph_driver/src/n32g430_spi.c ****     /* Initialize the CLKPOL member */
 622:../firmware/n32g430_std_periph_driver/src/n32g430_spi.c ****     I2S_InitStruct->CLKPOL = I2S_CLKPOL_LOW;
 1549              		.loc 1 622 28
 1550 0026 7B68     		ldr	r3, [r7, #4]
 1551 0028 0022     		movs	r2, #0
 1552 002a 9A81     		strh	r2, [r3, #12]	@ movhi
 623:../firmware/n32g430_std_periph_driver/src/n32g430_spi.c **** }
 1553              		.loc 1 623 1
 1554 002c 00BF     		nop
 1555 002e 0C37     		adds	r7, r7, #12
 1556              	.LCFI151:
 1557              		.cfi_def_cfa_offset 4
 1558 0030 BD46     		mov	sp, r7
 1559              	.LCFI152:
 1560              		.cfi_def_cfa_register 13
 1561              		@ sp needed
 1562 0032 5DF8047B 		ldr	r7, [sp], #4
 1563              	.LCFI153:
 1564              		.cfi_restore 7
 1565              		.cfi_def_cfa_offset 0
 1566 0036 7047     		bx	lr
 1567              		.cfi_endproc
 1568              	.LFE155:
 1570              		.section	.text.I2S_Initializes,"ax",%progbits
 1571              		.align	1
 1572              		.global	I2S_Initializes
 1573              		.syntax unified
 1574              		.thumb
 1575              		.thumb_func
 1577              	I2S_Initializes:
 1578              	.LFB156:
 624:../firmware/n32g430_std_periph_driver/src/n32g430_spi.c **** 
 625:../firmware/n32g430_std_periph_driver/src/n32g430_spi.c **** 
 626:../firmware/n32g430_std_periph_driver/src/n32g430_spi.c **** /**
 627:../firmware/n32g430_std_periph_driver/src/n32g430_spi.c **** *\*\name    I2S_Initializes.
 628:../firmware/n32g430_std_periph_driver/src/n32g430_spi.c **** *\*\fun     Initializes the SPIx according to I2S_InitStruct.
 629:../firmware/n32g430_std_periph_driver/src/n32g430_spi.c **** *\*\param   SPIx :
 630:../firmware/n32g430_std_periph_driver/src/n32g430_spi.c **** *\*\          - SPI1
 631:../firmware/n32g430_std_periph_driver/src/n32g430_spi.c **** *\*\          - SPI2
 632:../firmware/n32g430_std_periph_driver/src/n32g430_spi.c **** *\*\param   I2S_InitType :
 633:../firmware/n32g430_std_periph_driver/src/n32g430_spi.c **** *\*\          - I2sMode
 634:../firmware/n32g430_std_periph_driver/src/n32g430_spi.c **** *\*\           - I2S_MODE_SlAVE_TX
 635:../firmware/n32g430_std_periph_driver/src/n32g430_spi.c **** *\*\           - I2S_MODE_SlAVE_RX
 636:../firmware/n32g430_std_periph_driver/src/n32g430_spi.c **** *\*\           - I2S_MODE_MASTER_TX
 637:../firmware/n32g430_std_periph_driver/src/n32g430_spi.c **** *\*\           - I2S_MODE_MASTER_RX
ARM GAS  C:\Users\ZShuai\AppData\Local\Temp\ccswPVQl.s 			page 39


 638:../firmware/n32g430_std_periph_driver/src/n32g430_spi.c **** *\*\          - Standard
 639:../firmware/n32g430_std_periph_driver/src/n32g430_spi.c **** *\*\           - I2S_STD_PHILLIPS
 640:../firmware/n32g430_std_periph_driver/src/n32g430_spi.c **** *\*\           - I2S_STD_MSB_ALIGN
 641:../firmware/n32g430_std_periph_driver/src/n32g430_spi.c **** *\*\           - I2S_STD_LSB_ALIGN
 642:../firmware/n32g430_std_periph_driver/src/n32g430_spi.c **** *\*\           - I2S_STD_PCM_SHORTFRAME
 643:../firmware/n32g430_std_periph_driver/src/n32g430_spi.c **** *\*\           - I2S_STD_PCM_LONGFRAME 
 644:../firmware/n32g430_std_periph_driver/src/n32g430_spi.c **** *\*\          - DataFormat
 645:../firmware/n32g430_std_periph_driver/src/n32g430_spi.c **** *\*\           - I2S_DATA_FMT_16BITS
 646:../firmware/n32g430_std_periph_driver/src/n32g430_spi.c **** *\*\           - I2S_DATA_FMT_16BITS_EXTENDED
 647:../firmware/n32g430_std_periph_driver/src/n32g430_spi.c **** *\*\           - I2S_DATA_FMT_24BITS
 648:../firmware/n32g430_std_periph_driver/src/n32g430_spi.c **** *\*\           - I2S_DATA_FMT_32BITS
 649:../firmware/n32g430_std_periph_driver/src/n32g430_spi.c **** *\*\          - MCLKEnable
 650:../firmware/n32g430_std_periph_driver/src/n32g430_spi.c **** *\*\           - I2S_MCLK_ENABLE
 651:../firmware/n32g430_std_periph_driver/src/n32g430_spi.c **** *\*\           - I2S_MCLK_DISABLE
 652:../firmware/n32g430_std_periph_driver/src/n32g430_spi.c **** *\*\          - AudioFrequency
 653:../firmware/n32g430_std_periph_driver/src/n32g430_spi.c **** *\*\           - I2S_AUDIO_FREQ_192K
 654:../firmware/n32g430_std_periph_driver/src/n32g430_spi.c **** *\*\           - I2S_AUDIO_FREQ_96K
 655:../firmware/n32g430_std_periph_driver/src/n32g430_spi.c **** *\*\           - I2S_AUDIO_FREQ_48K
 656:../firmware/n32g430_std_periph_driver/src/n32g430_spi.c **** *\*\           - I2S_AUDIO_FREQ_44K
 657:../firmware/n32g430_std_periph_driver/src/n32g430_spi.c **** *\*\           - I2S_AUDIO_FREQ_32K
 658:../firmware/n32g430_std_periph_driver/src/n32g430_spi.c **** *\*\           - I2S_AUDIO_FREQ_22K
 659:../firmware/n32g430_std_periph_driver/src/n32g430_spi.c **** *\*\           - I2S_AUDIO_FREQ_16K
 660:../firmware/n32g430_std_periph_driver/src/n32g430_spi.c **** *\*\           - I2S_AUDIO_FREQ_11K
 661:../firmware/n32g430_std_periph_driver/src/n32g430_spi.c **** *\*\           - I2S_AUDIO_FREQ_8K
 662:../firmware/n32g430_std_periph_driver/src/n32g430_spi.c **** *\*\           - I2S_AUDIO_FREQ_DEFAULT
 663:../firmware/n32g430_std_periph_driver/src/n32g430_spi.c **** *\*\          - CLKPOL
 664:../firmware/n32g430_std_periph_driver/src/n32g430_spi.c **** *\*\           - I2S_CLKPOL_LOW
 665:../firmware/n32g430_std_periph_driver/src/n32g430_spi.c **** *\*\           - I2S_CLKPOL_HIGH
 666:../firmware/n32g430_std_periph_driver/src/n32g430_spi.c **** *\*\return  none
 667:../firmware/n32g430_std_periph_driver/src/n32g430_spi.c **** **/
 668:../firmware/n32g430_std_periph_driver/src/n32g430_spi.c **** void I2S_Initializes(SPI_Module* SPIx, I2S_InitType* I2S_InitStruct)
 669:../firmware/n32g430_std_periph_driver/src/n32g430_spi.c **** {
 1579              		.loc 1 669 1
 1580              		.cfi_startproc
 1581              		@ args = 0, pretend = 0, frame = 8
 1582              		@ frame_needed = 1, uses_anonymous_args = 0
 1583 0000 80B5     		push	{r7, lr}
 1584              	.LCFI154:
 1585              		.cfi_def_cfa_offset 8
 1586              		.cfi_offset 7, -8
 1587              		.cfi_offset 14, -4
 1588 0002 82B0     		sub	sp, sp, #8
 1589              	.LCFI155:
 1590              		.cfi_def_cfa_offset 16
 1591 0004 00AF     		add	r7, sp, #0
 1592              	.LCFI156:
 1593              		.cfi_def_cfa_register 7
 1594 0006 7860     		str	r0, [r7, #4]
 1595 0008 3960     		str	r1, [r7]
 670:../firmware/n32g430_std_periph_driver/src/n32g430_spi.c ****     I2S_Mode_Config(SPIx, I2S_InitStruct->I2sMode);
 1596              		.loc 1 670 5
 1597 000a 3B68     		ldr	r3, [r7]
 1598 000c 1B88     		ldrh	r3, [r3]
 1599 000e 1946     		mov	r1, r3
 1600 0010 7868     		ldr	r0, [r7, #4]
 1601 0012 FFF7FEFF 		bl	I2S_Mode_Config
 671:../firmware/n32g430_std_periph_driver/src/n32g430_spi.c ****     I2S_Standard_Config(SPIx, I2S_InitStruct->Standard);
ARM GAS  C:\Users\ZShuai\AppData\Local\Temp\ccswPVQl.s 			page 40


 1602              		.loc 1 671 5
 1603 0016 3B68     		ldr	r3, [r7]
 1604 0018 5B88     		ldrh	r3, [r3, #2]
 1605 001a 1946     		mov	r1, r3
 1606 001c 7868     		ldr	r0, [r7, #4]
 1607 001e FFF7FEFF 		bl	I2S_Standard_Config
 672:../firmware/n32g430_std_periph_driver/src/n32g430_spi.c ****     I2S_DataFormat_Config(SPIx, I2S_InitStruct->DataFormat);
 1608              		.loc 1 672 5
 1609 0022 3B68     		ldr	r3, [r7]
 1610 0024 9B88     		ldrh	r3, [r3, #4]
 1611 0026 1946     		mov	r1, r3
 1612 0028 7868     		ldr	r0, [r7, #4]
 1613 002a FFF7FEFF 		bl	I2S_DataFormat_Config
 673:../firmware/n32g430_std_periph_driver/src/n32g430_spi.c ****     if(I2S_InitStruct->MCLKEnable == I2S_MCLK_ENABLE)
 1614              		.loc 1 673 22
 1615 002e 3B68     		ldr	r3, [r7]
 1616 0030 DB88     		ldrh	r3, [r3, #6]
 1617              		.loc 1 673 7
 1618 0032 B3F5007F 		cmp	r3, #512
 1619 0036 03D1     		bne	.L39
 674:../firmware/n32g430_std_periph_driver/src/n32g430_spi.c ****     {
 675:../firmware/n32g430_std_periph_driver/src/n32g430_spi.c ****         I2S_MCLK_Enable(SPIx);
 1620              		.loc 1 675 9
 1621 0038 7868     		ldr	r0, [r7, #4]
 1622 003a FFF7FEFF 		bl	I2S_MCLK_Enable
 1623 003e 02E0     		b	.L40
 1624              	.L39:
 676:../firmware/n32g430_std_periph_driver/src/n32g430_spi.c ****     }
 677:../firmware/n32g430_std_periph_driver/src/n32g430_spi.c ****     else
 678:../firmware/n32g430_std_periph_driver/src/n32g430_spi.c ****     {
 679:../firmware/n32g430_std_periph_driver/src/n32g430_spi.c ****         I2S_MCLK_Disable(SPIx);
 1625              		.loc 1 679 9
 1626 0040 7868     		ldr	r0, [r7, #4]
 1627 0042 FFF7FEFF 		bl	I2S_MCLK_Disable
 1628              	.L40:
 680:../firmware/n32g430_std_periph_driver/src/n32g430_spi.c ****     }
 681:../firmware/n32g430_std_periph_driver/src/n32g430_spi.c ****     I2S_AudioFrequency_Config(SPIx,I2S_InitStruct->AudioFrequency);
 1629              		.loc 1 681 5
 1630 0046 3B68     		ldr	r3, [r7]
 1631 0048 9B68     		ldr	r3, [r3, #8]
 1632 004a 1946     		mov	r1, r3
 1633 004c 7868     		ldr	r0, [r7, #4]
 1634 004e FFF7FEFF 		bl	I2S_AudioFrequency_Config
 682:../firmware/n32g430_std_periph_driver/src/n32g430_spi.c ****     I2S_CLKPOL_Config(SPIx, I2S_InitStruct->CLKPOL);
 1635              		.loc 1 682 5
 1636 0052 3B68     		ldr	r3, [r7]
 1637 0054 9B89     		ldrh	r3, [r3, #12]
 1638 0056 1946     		mov	r1, r3
 1639 0058 7868     		ldr	r0, [r7, #4]
 1640 005a FFF7FEFF 		bl	I2S_CLKPOL_Config
 683:../firmware/n32g430_std_periph_driver/src/n32g430_spi.c **** }
 1641              		.loc 1 683 1
 1642 005e 00BF     		nop
 1643 0060 0837     		adds	r7, r7, #8
 1644              	.LCFI157:
 1645              		.cfi_def_cfa_offset 8
 1646 0062 BD46     		mov	sp, r7
ARM GAS  C:\Users\ZShuai\AppData\Local\Temp\ccswPVQl.s 			page 41


 1647              	.LCFI158:
 1648              		.cfi_def_cfa_register 13
 1649              		@ sp needed
 1650 0064 80BD     		pop	{r7, pc}
 1651              		.cfi_endproc
 1652              	.LFE156:
 1654              		.section	.text.I2S_Mode_Config,"ax",%progbits
 1655              		.align	1
 1656              		.global	I2S_Mode_Config
 1657              		.syntax unified
 1658              		.thumb
 1659              		.thumb_func
 1661              	I2S_Mode_Config:
 1662              	.LFB157:
 684:../firmware/n32g430_std_periph_driver/src/n32g430_spi.c **** 
 685:../firmware/n32g430_std_periph_driver/src/n32g430_spi.c **** 
 686:../firmware/n32g430_std_periph_driver/src/n32g430_spi.c **** /**
 687:../firmware/n32g430_std_periph_driver/src/n32g430_spi.c **** *\*\name    I2S_Mode_Config.
 688:../firmware/n32g430_std_periph_driver/src/n32g430_spi.c **** *\*\fun     Configure I2S working mode.
 689:../firmware/n32g430_std_periph_driver/src/n32g430_spi.c **** *\*\param   SPIx :
 690:../firmware/n32g430_std_periph_driver/src/n32g430_spi.c **** *\*\          - SPI1
 691:../firmware/n32g430_std_periph_driver/src/n32g430_spi.c **** *\*\          - SPI2
 692:../firmware/n32g430_std_periph_driver/src/n32g430_spi.c **** *\*\param   I2sMode :
 693:../firmware/n32g430_std_periph_driver/src/n32g430_spi.c **** *\*\          - I2S_MODE_SlAVE_TX
 694:../firmware/n32g430_std_periph_driver/src/n32g430_spi.c **** *\*\          - I2S_MODE_SlAVE_RX
 695:../firmware/n32g430_std_periph_driver/src/n32g430_spi.c **** *\*\          - I2S_MODE_MASTER_TX
 696:../firmware/n32g430_std_periph_driver/src/n32g430_spi.c **** *\*\          - I2S_MODE_MASTER_RX
 697:../firmware/n32g430_std_periph_driver/src/n32g430_spi.c **** *\*\return  none
 698:../firmware/n32g430_std_periph_driver/src/n32g430_spi.c **** *\*\note    Must be used when I2S OFF.
 699:../firmware/n32g430_std_periph_driver/src/n32g430_spi.c **** **/
 700:../firmware/n32g430_std_periph_driver/src/n32g430_spi.c **** void I2S_Mode_Config(SPI_Module* SPIx, uint16_t I2sMode)
 701:../firmware/n32g430_std_periph_driver/src/n32g430_spi.c **** {
 1663              		.loc 1 701 1
 1664              		.cfi_startproc
 1665              		@ args = 0, pretend = 0, frame = 8
 1666              		@ frame_needed = 1, uses_anonymous_args = 0
 1667              		@ link register save eliminated.
 1668 0000 80B4     		push	{r7}
 1669              	.LCFI159:
 1670              		.cfi_def_cfa_offset 4
 1671              		.cfi_offset 7, -4
 1672 0002 83B0     		sub	sp, sp, #12
 1673              	.LCFI160:
 1674              		.cfi_def_cfa_offset 16
 1675 0004 00AF     		add	r7, sp, #0
 1676              	.LCFI161:
 1677              		.cfi_def_cfa_register 7
 1678 0006 7860     		str	r0, [r7, #4]
 1679 0008 0B46     		mov	r3, r1
 1680 000a 7B80     		strh	r3, [r7, #2]	@ movhi
 702:../firmware/n32g430_std_periph_driver/src/n32g430_spi.c ****     /* Clear SPI_I2SCFG MODCFG bits */
 703:../firmware/n32g430_std_periph_driver/src/n32g430_spi.c ****     SPIx->I2SCFG &= I2S_MODE_MASK;
 1681              		.loc 1 703 9
 1682 000c 7B68     		ldr	r3, [r7, #4]
 1683 000e 9B8B     		ldrh	r3, [r3, #28]	@ movhi
 1684 0010 9BB2     		uxth	r3, r3
 1685              		.loc 1 703 18
ARM GAS  C:\Users\ZShuai\AppData\Local\Temp\ccswPVQl.s 			page 42


 1686 0012 23F44073 		bic	r3, r3, #768
 1687 0016 9AB2     		uxth	r2, r3
 1688 0018 7B68     		ldr	r3, [r7, #4]
 1689 001a 9A83     		strh	r2, [r3, #28]	@ movhi
 704:../firmware/n32g430_std_periph_driver/src/n32g430_spi.c ****     /* Set SPI_I2SCFG MODCFG bits */
 705:../firmware/n32g430_std_periph_driver/src/n32g430_spi.c ****     SPIx->I2SCFG |= I2sMode;
 1690              		.loc 1 705 9
 1691 001c 7B68     		ldr	r3, [r7, #4]
 1692 001e 9B8B     		ldrh	r3, [r3, #28]	@ movhi
 1693 0020 9AB2     		uxth	r2, r3
 1694              		.loc 1 705 18
 1695 0022 7B88     		ldrh	r3, [r7, #2]	@ movhi
 1696 0024 1343     		orrs	r3, r3, r2
 1697 0026 9AB2     		uxth	r2, r3
 1698 0028 7B68     		ldr	r3, [r7, #4]
 1699 002a 9A83     		strh	r2, [r3, #28]	@ movhi
 706:../firmware/n32g430_std_periph_driver/src/n32g430_spi.c **** }
 1700              		.loc 1 706 1
 1701 002c 00BF     		nop
 1702 002e 0C37     		adds	r7, r7, #12
 1703              	.LCFI162:
 1704              		.cfi_def_cfa_offset 4
 1705 0030 BD46     		mov	sp, r7
 1706              	.LCFI163:
 1707              		.cfi_def_cfa_register 13
 1708              		@ sp needed
 1709 0032 5DF8047B 		ldr	r7, [sp], #4
 1710              	.LCFI164:
 1711              		.cfi_restore 7
 1712              		.cfi_def_cfa_offset 0
 1713 0036 7047     		bx	lr
 1714              		.cfi_endproc
 1715              	.LFE157:
 1717              		.section	.text.I2S_Standard_Config,"ax",%progbits
 1718              		.align	1
 1719              		.global	I2S_Standard_Config
 1720              		.syntax unified
 1721              		.thumb
 1722              		.thumb_func
 1724              	I2S_Standard_Config:
 1725              	.LFB158:
 707:../firmware/n32g430_std_periph_driver/src/n32g430_spi.c **** 
 708:../firmware/n32g430_std_periph_driver/src/n32g430_spi.c **** 
 709:../firmware/n32g430_std_periph_driver/src/n32g430_spi.c **** /**
 710:../firmware/n32g430_std_periph_driver/src/n32g430_spi.c **** *\*\name    I2S_Standard_Config.
 711:../firmware/n32g430_std_periph_driver/src/n32g430_spi.c **** *\*\fun     Config the I2S Standard.
 712:../firmware/n32g430_std_periph_driver/src/n32g430_spi.c **** *\*\param   SPIx :
 713:../firmware/n32g430_std_periph_driver/src/n32g430_spi.c **** *\*\          - SPI1
 714:../firmware/n32g430_std_periph_driver/src/n32g430_spi.c **** *\*\          - SPI2
 715:../firmware/n32g430_std_periph_driver/src/n32g430_spi.c **** *\*\param   I2sMode :
 716:../firmware/n32g430_std_periph_driver/src/n32g430_spi.c **** *\*\          - I2S_STD_PHILLIPS
 717:../firmware/n32g430_std_periph_driver/src/n32g430_spi.c **** *\*\          - I2S_STD_MSB_ALIGN
 718:../firmware/n32g430_std_periph_driver/src/n32g430_spi.c **** *\*\          - I2S_STD_LSB_ALIGN
 719:../firmware/n32g430_std_periph_driver/src/n32g430_spi.c **** *\*\          - I2S_STD_PCM_SHORTFRAME
 720:../firmware/n32g430_std_periph_driver/src/n32g430_spi.c **** *\*\          - I2S_STD_PCM_LONGFRAME
 721:../firmware/n32g430_std_periph_driver/src/n32g430_spi.c **** *\*\return  none
 722:../firmware/n32g430_std_periph_driver/src/n32g430_spi.c **** **/
ARM GAS  C:\Users\ZShuai\AppData\Local\Temp\ccswPVQl.s 			page 43


 723:../firmware/n32g430_std_periph_driver/src/n32g430_spi.c **** void I2S_Standard_Config(SPI_Module* SPIx, uint16_t Standard)
 724:../firmware/n32g430_std_periph_driver/src/n32g430_spi.c **** {
 1726              		.loc 1 724 1
 1727              		.cfi_startproc
 1728              		@ args = 0, pretend = 0, frame = 8
 1729              		@ frame_needed = 1, uses_anonymous_args = 0
 1730              		@ link register save eliminated.
 1731 0000 80B4     		push	{r7}
 1732              	.LCFI165:
 1733              		.cfi_def_cfa_offset 4
 1734              		.cfi_offset 7, -4
 1735 0002 83B0     		sub	sp, sp, #12
 1736              	.LCFI166:
 1737              		.cfi_def_cfa_offset 16
 1738 0004 00AF     		add	r7, sp, #0
 1739              	.LCFI167:
 1740              		.cfi_def_cfa_register 7
 1741 0006 7860     		str	r0, [r7, #4]
 1742 0008 0B46     		mov	r3, r1
 1743 000a 7B80     		strh	r3, [r7, #2]	@ movhi
 725:../firmware/n32g430_std_periph_driver/src/n32g430_spi.c ****     /* Clear SPI_I2SCFG STDSEL and PCMFSYNC bit */
 726:../firmware/n32g430_std_periph_driver/src/n32g430_spi.c ****     SPIx->I2SCFG &= I2S_STANDARD_MASK;
 1744              		.loc 1 726 9
 1745 000c 7B68     		ldr	r3, [r7, #4]
 1746 000e 9B8B     		ldrh	r3, [r3, #28]	@ movhi
 1747 0010 9BB2     		uxth	r3, r3
 1748              		.loc 1 726 18
 1749 0012 23F0B003 		bic	r3, r3, #176
 1750 0016 9AB2     		uxth	r2, r3
 1751 0018 7B68     		ldr	r3, [r7, #4]
 1752 001a 9A83     		strh	r2, [r3, #28]	@ movhi
 727:../firmware/n32g430_std_periph_driver/src/n32g430_spi.c ****     /* Set SPI_I2SCFG STDSEL and PCMFSYNC bit */
 728:../firmware/n32g430_std_periph_driver/src/n32g430_spi.c ****     SPIx->I2SCFG |= Standard;
 1753              		.loc 1 728 9
 1754 001c 7B68     		ldr	r3, [r7, #4]
 1755 001e 9B8B     		ldrh	r3, [r3, #28]	@ movhi
 1756 0020 9AB2     		uxth	r2, r3
 1757              		.loc 1 728 18
 1758 0022 7B88     		ldrh	r3, [r7, #2]	@ movhi
 1759 0024 1343     		orrs	r3, r3, r2
 1760 0026 9AB2     		uxth	r2, r3
 1761 0028 7B68     		ldr	r3, [r7, #4]
 1762 002a 9A83     		strh	r2, [r3, #28]	@ movhi
 729:../firmware/n32g430_std_periph_driver/src/n32g430_spi.c **** }
 1763              		.loc 1 729 1
 1764 002c 00BF     		nop
 1765 002e 0C37     		adds	r7, r7, #12
 1766              	.LCFI168:
 1767              		.cfi_def_cfa_offset 4
 1768 0030 BD46     		mov	sp, r7
 1769              	.LCFI169:
 1770              		.cfi_def_cfa_register 13
 1771              		@ sp needed
 1772 0032 5DF8047B 		ldr	r7, [sp], #4
 1773              	.LCFI170:
 1774              		.cfi_restore 7
 1775              		.cfi_def_cfa_offset 0
ARM GAS  C:\Users\ZShuai\AppData\Local\Temp\ccswPVQl.s 			page 44


 1776 0036 7047     		bx	lr
 1777              		.cfi_endproc
 1778              	.LFE158:
 1780              		.section	.text.I2S_DataFormat_Config,"ax",%progbits
 1781              		.align	1
 1782              		.global	I2S_DataFormat_Config
 1783              		.syntax unified
 1784              		.thumb
 1785              		.thumb_func
 1787              	I2S_DataFormat_Config:
 1788              	.LFB159:
 730:../firmware/n32g430_std_periph_driver/src/n32g430_spi.c **** 
 731:../firmware/n32g430_std_periph_driver/src/n32g430_spi.c **** 
 732:../firmware/n32g430_std_periph_driver/src/n32g430_spi.c **** /**
 733:../firmware/n32g430_std_periph_driver/src/n32g430_spi.c **** *\*\name    I2S_DataFormat_Config.
 734:../firmware/n32g430_std_periph_driver/src/n32g430_spi.c **** *\*\fun    Config the I2s data format.
 735:../firmware/n32g430_std_periph_driver/src/n32g430_spi.c **** *\*\param   SPIx :
 736:../firmware/n32g430_std_periph_driver/src/n32g430_spi.c **** *\*\          - SPI1
 737:../firmware/n32g430_std_periph_driver/src/n32g430_spi.c **** *\*\          - SPI2
 738:../firmware/n32g430_std_periph_driver/src/n32g430_spi.c **** *\*\param   DataFormat :
 739:../firmware/n32g430_std_periph_driver/src/n32g430_spi.c **** *\*\          - I2S_DATA_FMT_16BITS
 740:../firmware/n32g430_std_periph_driver/src/n32g430_spi.c **** *\*\          - I2S_DATA_FMT_16BITS_EXTENDED
 741:../firmware/n32g430_std_periph_driver/src/n32g430_spi.c **** *\*\          - I2S_DATA_FMT_24BITS
 742:../firmware/n32g430_std_periph_driver/src/n32g430_spi.c **** *\*\          - I2S_DATA_FMT_32BITS
 743:../firmware/n32g430_std_periph_driver/src/n32g430_spi.c **** *\*\return  none
 744:../firmware/n32g430_std_periph_driver/src/n32g430_spi.c **** **/
 745:../firmware/n32g430_std_periph_driver/src/n32g430_spi.c **** void I2S_DataFormat_Config(SPI_Module* SPIx, uint16_t DataFormat)
 746:../firmware/n32g430_std_periph_driver/src/n32g430_spi.c **** {
 1789              		.loc 1 746 1
 1790              		.cfi_startproc
 1791              		@ args = 0, pretend = 0, frame = 8
 1792              		@ frame_needed = 1, uses_anonymous_args = 0
 1793              		@ link register save eliminated.
 1794 0000 80B4     		push	{r7}
 1795              	.LCFI171:
 1796              		.cfi_def_cfa_offset 4
 1797              		.cfi_offset 7, -4
 1798 0002 83B0     		sub	sp, sp, #12
 1799              	.LCFI172:
 1800              		.cfi_def_cfa_offset 16
 1801 0004 00AF     		add	r7, sp, #0
 1802              	.LCFI173:
 1803              		.cfi_def_cfa_register 7
 1804 0006 7860     		str	r0, [r7, #4]
 1805 0008 0B46     		mov	r3, r1
 1806 000a 7B80     		strh	r3, [r7, #2]	@ movhi
 747:../firmware/n32g430_std_periph_driver/src/n32g430_spi.c ****     /* Clear SPI_I2SCFG CHBITS and TDATLEN bit */
 748:../firmware/n32g430_std_periph_driver/src/n32g430_spi.c ****     SPIx->I2SCFG &= I2S_DATA_FORMAT_MASK;
 1807              		.loc 1 748 9
 1808 000c 7B68     		ldr	r3, [r7, #4]
 1809 000e 9B8B     		ldrh	r3, [r3, #28]	@ movhi
 1810 0010 9BB2     		uxth	r3, r3
 1811              		.loc 1 748 18
 1812 0012 23F00703 		bic	r3, r3, #7
 1813 0016 9AB2     		uxth	r2, r3
 1814 0018 7B68     		ldr	r3, [r7, #4]
 1815 001a 9A83     		strh	r2, [r3, #28]	@ movhi
ARM GAS  C:\Users\ZShuai\AppData\Local\Temp\ccswPVQl.s 			page 45


 749:../firmware/n32g430_std_periph_driver/src/n32g430_spi.c ****     /* Set SPI_I2SCFG CHBITS and TDATLEN bit */
 750:../firmware/n32g430_std_periph_driver/src/n32g430_spi.c ****     SPIx->I2SCFG |= DataFormat;
 1816              		.loc 1 750 9
 1817 001c 7B68     		ldr	r3, [r7, #4]
 1818 001e 9B8B     		ldrh	r3, [r3, #28]	@ movhi
 1819 0020 9AB2     		uxth	r2, r3
 1820              		.loc 1 750 18
 1821 0022 7B88     		ldrh	r3, [r7, #2]	@ movhi
 1822 0024 1343     		orrs	r3, r3, r2
 1823 0026 9AB2     		uxth	r2, r3
 1824 0028 7B68     		ldr	r3, [r7, #4]
 1825 002a 9A83     		strh	r2, [r3, #28]	@ movhi
 751:../firmware/n32g430_std_periph_driver/src/n32g430_spi.c **** }
 1826              		.loc 1 751 1
 1827 002c 00BF     		nop
 1828 002e 0C37     		adds	r7, r7, #12
 1829              	.LCFI174:
 1830              		.cfi_def_cfa_offset 4
 1831 0030 BD46     		mov	sp, r7
 1832              	.LCFI175:
 1833              		.cfi_def_cfa_register 13
 1834              		@ sp needed
 1835 0032 5DF8047B 		ldr	r7, [sp], #4
 1836              	.LCFI176:
 1837              		.cfi_restore 7
 1838              		.cfi_def_cfa_offset 0
 1839 0036 7047     		bx	lr
 1840              		.cfi_endproc
 1841              	.LFE159:
 1843              		.section	.text.I2S_MCLK_Enable,"ax",%progbits
 1844              		.align	1
 1845              		.global	I2S_MCLK_Enable
 1846              		.syntax unified
 1847              		.thumb
 1848              		.thumb_func
 1850              	I2S_MCLK_Enable:
 1851              	.LFB160:
 752:../firmware/n32g430_std_periph_driver/src/n32g430_spi.c **** 
 753:../firmware/n32g430_std_periph_driver/src/n32g430_spi.c **** 
 754:../firmware/n32g430_std_periph_driver/src/n32g430_spi.c **** /**
 755:../firmware/n32g430_std_periph_driver/src/n32g430_spi.c **** *\*\name    I2S_MCLK_Enable.
 756:../firmware/n32g430_std_periph_driver/src/n32g430_spi.c **** *\*\fun     Enable the Master clock output.
 757:../firmware/n32g430_std_periph_driver/src/n32g430_spi.c **** *\*\param   SPIx :
 758:../firmware/n32g430_std_periph_driver/src/n32g430_spi.c **** *\*\          - SPI1
 759:../firmware/n32g430_std_periph_driver/src/n32g430_spi.c **** *\*\          - SPI2
 760:../firmware/n32g430_std_periph_driver/src/n32g430_spi.c **** *\*\return  none
 761:../firmware/n32g430_std_periph_driver/src/n32g430_spi.c **** *\*\note    Can only be used when I2S is turned off and working in master mode.
 762:../firmware/n32g430_std_periph_driver/src/n32g430_spi.c **** **/
 763:../firmware/n32g430_std_periph_driver/src/n32g430_spi.c **** void I2S_MCLK_Enable(SPI_Module* SPIx)
 764:../firmware/n32g430_std_periph_driver/src/n32g430_spi.c **** {
 1852              		.loc 1 764 1
 1853              		.cfi_startproc
 1854              		@ args = 0, pretend = 0, frame = 8
 1855              		@ frame_needed = 1, uses_anonymous_args = 0
 1856              		@ link register save eliminated.
 1857 0000 80B4     		push	{r7}
 1858              	.LCFI177:
ARM GAS  C:\Users\ZShuai\AppData\Local\Temp\ccswPVQl.s 			page 46


 1859              		.cfi_def_cfa_offset 4
 1860              		.cfi_offset 7, -4
 1861 0002 83B0     		sub	sp, sp, #12
 1862              	.LCFI178:
 1863              		.cfi_def_cfa_offset 16
 1864 0004 00AF     		add	r7, sp, #0
 1865              	.LCFI179:
 1866              		.cfi_def_cfa_register 7
 1867 0006 7860     		str	r0, [r7, #4]
 765:../firmware/n32g430_std_periph_driver/src/n32g430_spi.c ****     /* Set SPI_I2SPREDIV MCLKOEN bit */
 766:../firmware/n32g430_std_periph_driver/src/n32g430_spi.c ****     SPIx->I2SPREDIV |= I2S_MCLK_ENABLE;
 1868              		.loc 1 766 9
 1869 0008 7B68     		ldr	r3, [r7, #4]
 1870 000a 1B8C     		ldrh	r3, [r3, #32]	@ movhi
 1871 000c 9BB2     		uxth	r3, r3
 1872              		.loc 1 766 21
 1873 000e 43F40073 		orr	r3, r3, #512
 1874 0012 9AB2     		uxth	r2, r3
 1875 0014 7B68     		ldr	r3, [r7, #4]
 1876 0016 1A84     		strh	r2, [r3, #32]	@ movhi
 767:../firmware/n32g430_std_periph_driver/src/n32g430_spi.c **** }
 1877              		.loc 1 767 1
 1878 0018 00BF     		nop
 1879 001a 0C37     		adds	r7, r7, #12
 1880              	.LCFI180:
 1881              		.cfi_def_cfa_offset 4
 1882 001c BD46     		mov	sp, r7
 1883              	.LCFI181:
 1884              		.cfi_def_cfa_register 13
 1885              		@ sp needed
 1886 001e 5DF8047B 		ldr	r7, [sp], #4
 1887              	.LCFI182:
 1888              		.cfi_restore 7
 1889              		.cfi_def_cfa_offset 0
 1890 0022 7047     		bx	lr
 1891              		.cfi_endproc
 1892              	.LFE160:
 1894              		.section	.text.I2S_MCLK_Disable,"ax",%progbits
 1895              		.align	1
 1896              		.global	I2S_MCLK_Disable
 1897              		.syntax unified
 1898              		.thumb
 1899              		.thumb_func
 1901              	I2S_MCLK_Disable:
 1902              	.LFB161:
 768:../firmware/n32g430_std_periph_driver/src/n32g430_spi.c **** 
 769:../firmware/n32g430_std_periph_driver/src/n32g430_spi.c **** 
 770:../firmware/n32g430_std_periph_driver/src/n32g430_spi.c **** /**
 771:../firmware/n32g430_std_periph_driver/src/n32g430_spi.c **** *\*\name    I2S_MCLK_Disable.
 772:../firmware/n32g430_std_periph_driver/src/n32g430_spi.c **** *\*\fun     Disable the Master clock output.
 773:../firmware/n32g430_std_periph_driver/src/n32g430_spi.c **** *\*\param   SPIx :
 774:../firmware/n32g430_std_periph_driver/src/n32g430_spi.c **** *\*\          - SPI1
 775:../firmware/n32g430_std_periph_driver/src/n32g430_spi.c **** *\*\          - SPI2
 776:../firmware/n32g430_std_periph_driver/src/n32g430_spi.c **** *\*\return  none
 777:../firmware/n32g430_std_periph_driver/src/n32g430_spi.c **** **/
 778:../firmware/n32g430_std_periph_driver/src/n32g430_spi.c **** void I2S_MCLK_Disable(SPI_Module* SPIx)
 779:../firmware/n32g430_std_periph_driver/src/n32g430_spi.c **** {
ARM GAS  C:\Users\ZShuai\AppData\Local\Temp\ccswPVQl.s 			page 47


 1903              		.loc 1 779 1
 1904              		.cfi_startproc
 1905              		@ args = 0, pretend = 0, frame = 8
 1906              		@ frame_needed = 1, uses_anonymous_args = 0
 1907              		@ link register save eliminated.
 1908 0000 80B4     		push	{r7}
 1909              	.LCFI183:
 1910              		.cfi_def_cfa_offset 4
 1911              		.cfi_offset 7, -4
 1912 0002 83B0     		sub	sp, sp, #12
 1913              	.LCFI184:
 1914              		.cfi_def_cfa_offset 16
 1915 0004 00AF     		add	r7, sp, #0
 1916              	.LCFI185:
 1917              		.cfi_def_cfa_register 7
 1918 0006 7860     		str	r0, [r7, #4]
 780:../firmware/n32g430_std_periph_driver/src/n32g430_spi.c ****     /* Clear SPI_I2SPREDIV MCLKOEN bit */
 781:../firmware/n32g430_std_periph_driver/src/n32g430_spi.c ****     SPIx->I2SPREDIV &= I2S_MCLK_DISABLE;
 1919              		.loc 1 781 9
 1920 0008 7B68     		ldr	r3, [r7, #4]
 1921 000a 1B8C     		ldrh	r3, [r3, #32]	@ movhi
 1922 000c 9BB2     		uxth	r3, r3
 1923              		.loc 1 781 21
 1924 000e 23F40073 		bic	r3, r3, #512
 1925 0012 9AB2     		uxth	r2, r3
 1926 0014 7B68     		ldr	r3, [r7, #4]
 1927 0016 1A84     		strh	r2, [r3, #32]	@ movhi
 782:../firmware/n32g430_std_periph_driver/src/n32g430_spi.c **** }
 1928              		.loc 1 782 1
 1929 0018 00BF     		nop
 1930 001a 0C37     		adds	r7, r7, #12
 1931              	.LCFI186:
 1932              		.cfi_def_cfa_offset 4
 1933 001c BD46     		mov	sp, r7
 1934              	.LCFI187:
 1935              		.cfi_def_cfa_register 13
 1936              		@ sp needed
 1937 001e 5DF8047B 		ldr	r7, [sp], #4
 1938              	.LCFI188:
 1939              		.cfi_restore 7
 1940              		.cfi_def_cfa_offset 0
 1941 0022 7047     		bx	lr
 1942              		.cfi_endproc
 1943              	.LFE161:
 1945              		.section	.text.I2S_AudioFrequency_Config,"ax",%progbits
 1946              		.align	1
 1947              		.global	I2S_AudioFrequency_Config
 1948              		.syntax unified
 1949              		.thumb
 1950              		.thumb_func
 1952              	I2S_AudioFrequency_Config:
 1953              	.LFB162:
 783:../firmware/n32g430_std_periph_driver/src/n32g430_spi.c **** 
 784:../firmware/n32g430_std_periph_driver/src/n32g430_spi.c **** 
 785:../firmware/n32g430_std_periph_driver/src/n32g430_spi.c **** /**
 786:../firmware/n32g430_std_periph_driver/src/n32g430_spi.c **** *\*\name    I2S_AudioFrequency_Config.
 787:../firmware/n32g430_std_periph_driver/src/n32g430_spi.c **** *\*\fun     Configure I2S Audio Frequency.
ARM GAS  C:\Users\ZShuai\AppData\Local\Temp\ccswPVQl.s 			page 48


 788:../firmware/n32g430_std_periph_driver/src/n32g430_spi.c **** *\*\param   SPIx :
 789:../firmware/n32g430_std_periph_driver/src/n32g430_spi.c **** *\*\          - SPI1
 790:../firmware/n32g430_std_periph_driver/src/n32g430_spi.c **** *\*\          - SPI2
 791:../firmware/n32g430_std_periph_driver/src/n32g430_spi.c **** *\*\param   AudioFrequency :
 792:../firmware/n32g430_std_periph_driver/src/n32g430_spi.c **** *\*\          - I2S_AUDIO_FREQ_192K
 793:../firmware/n32g430_std_periph_driver/src/n32g430_spi.c **** *\*\          - I2S_AUDIO_FREQ_96K
 794:../firmware/n32g430_std_periph_driver/src/n32g430_spi.c **** *\*\          - I2S_AUDIO_FREQ_48K
 795:../firmware/n32g430_std_periph_driver/src/n32g430_spi.c **** *\*\          - I2S_AUDIO_FREQ_44K
 796:../firmware/n32g430_std_periph_driver/src/n32g430_spi.c **** *\*\          - I2S_AUDIO_FREQ_32K
 797:../firmware/n32g430_std_periph_driver/src/n32g430_spi.c **** *\*\          - I2S_AUDIO_FREQ_22K
 798:../firmware/n32g430_std_periph_driver/src/n32g430_spi.c **** *\*\          - I2S_AUDIO_FREQ_16K
 799:../firmware/n32g430_std_periph_driver/src/n32g430_spi.c **** *\*\          - I2S_AUDIO_FREQ_11K
 800:../firmware/n32g430_std_periph_driver/src/n32g430_spi.c **** *\*\          - I2S_AUDIO_FREQ_8K
 801:../firmware/n32g430_std_periph_driver/src/n32g430_spi.c **** *\*\          - I2S_AUDIO_FREQ_DEFAULT
 802:../firmware/n32g430_std_periph_driver/src/n32g430_spi.c **** *\*\return  none
 803:../firmware/n32g430_std_periph_driver/src/n32g430_spi.c **** *\*\note    MCLK and data format must be configured before calling this function.
 804:../firmware/n32g430_std_periph_driver/src/n32g430_spi.c **** **/
 805:../firmware/n32g430_std_periph_driver/src/n32g430_spi.c **** void I2S_AudioFrequency_Config(SPI_Module* SPIx, uint32_t AudioFrequency)
 806:../firmware/n32g430_std_periph_driver/src/n32g430_spi.c **** {
 1954              		.loc 1 806 1
 1955              		.cfi_startproc
 1956              		@ args = 0, pretend = 0, frame = 48
 1957              		@ frame_needed = 1, uses_anonymous_args = 0
 1958 0000 80B5     		push	{r7, lr}
 1959              	.LCFI189:
 1960              		.cfi_def_cfa_offset 8
 1961              		.cfi_offset 7, -8
 1962              		.cfi_offset 14, -4
 1963 0002 8CB0     		sub	sp, sp, #48
 1964              	.LCFI190:
 1965              		.cfi_def_cfa_offset 56
 1966 0004 00AF     		add	r7, sp, #0
 1967              	.LCFI191:
 1968              		.cfi_def_cfa_register 7
 1969 0006 7860     		str	r0, [r7, #4]
 1970 0008 3960     		str	r1, [r7]
 807:../firmware/n32g430_std_periph_driver/src/n32g430_spi.c ****     uint16_t i2sdiv = 2, i2sodd = 0, packetlength = 1;
 1971              		.loc 1 807 14
 1972 000a 0223     		movs	r3, #2
 1973 000c FB85     		strh	r3, [r7, #46]	@ movhi
 1974              		.loc 1 807 26
 1975 000e 0023     		movs	r3, #0
 1976 0010 BB85     		strh	r3, [r7, #44]	@ movhi
 1977              		.loc 1 807 38
 1978 0012 0123     		movs	r3, #1
 1979 0014 7B85     		strh	r3, [r7, #42]	@ movhi
 808:../firmware/n32g430_std_periph_driver/src/n32g430_spi.c ****     uint32_t tmp = 0;
 1980              		.loc 1 808 14
 1981 0016 0023     		movs	r3, #0
 1982 0018 7B62     		str	r3, [r7, #36]
 809:../firmware/n32g430_std_periph_driver/src/n32g430_spi.c ****     RCC_ClocksType RCC_Clocks;
 810:../firmware/n32g430_std_periph_driver/src/n32g430_spi.c ****     uint32_t sourceclock = 0;
 1983              		.loc 1 810 14
 1984 001a 0023     		movs	r3, #0
 1985 001c 3B62     		str	r3, [r7, #32]
 811:../firmware/n32g430_std_periph_driver/src/n32g430_spi.c **** 
 812:../firmware/n32g430_std_periph_driver/src/n32g430_spi.c ****     /* If the default value has to be written, reinitialize i2sdiv and i2sodd*/
ARM GAS  C:\Users\ZShuai\AppData\Local\Temp\ccswPVQl.s 			page 49


 813:../firmware/n32g430_std_periph_driver/src/n32g430_spi.c ****     if (AudioFrequency == I2S_AUDIO_FREQ_DEFAULT)
 1986              		.loc 1 813 8
 1987 001e 3B68     		ldr	r3, [r7]
 1988 0020 022B     		cmp	r3, #2
 1989 0022 04D1     		bne	.L47
 814:../firmware/n32g430_std_periph_driver/src/n32g430_spi.c ****     {
 815:../firmware/n32g430_std_periph_driver/src/n32g430_spi.c ****         i2sodd = (uint16_t)0;
 1990              		.loc 1 815 16
 1991 0024 0023     		movs	r3, #0
 1992 0026 BB85     		strh	r3, [r7, #44]	@ movhi
 816:../firmware/n32g430_std_periph_driver/src/n32g430_spi.c ****         i2sdiv = (uint16_t)2;
 1993              		.loc 1 816 16
 1994 0028 0223     		movs	r3, #2
 1995 002a FB85     		strh	r3, [r7, #46]	@ movhi
 1996 002c 4DE0     		b	.L48
 1997              	.L47:
 817:../firmware/n32g430_std_periph_driver/src/n32g430_spi.c ****     }
 818:../firmware/n32g430_std_periph_driver/src/n32g430_spi.c ****     else
 819:../firmware/n32g430_std_periph_driver/src/n32g430_spi.c ****     {
 820:../firmware/n32g430_std_periph_driver/src/n32g430_spi.c ****         /* Check the frame length (For the SPI_I2SCFG CHBITSbit) */
 821:../firmware/n32g430_std_periph_driver/src/n32g430_spi.c ****         if (SPIx->I2SCFG & SPI_I2SCFG_CHBITS)
 1998              		.loc 1 821 17
 1999 002e 7B68     		ldr	r3, [r7, #4]
 2000 0030 9B8B     		ldrh	r3, [r3, #28]	@ movhi
 2001 0032 9BB2     		uxth	r3, r3
 2002              		.loc 1 821 26
 2003 0034 03F00103 		and	r3, r3, #1
 2004              		.loc 1 821 12
 2005 0038 002B     		cmp	r3, #0
 2006 003a 02D0     		beq	.L49
 822:../firmware/n32g430_std_periph_driver/src/n32g430_spi.c ****         {
 823:../firmware/n32g430_std_periph_driver/src/n32g430_spi.c ****             /* Packet length is 32 bits */
 824:../firmware/n32g430_std_periph_driver/src/n32g430_spi.c ****             packetlength = 2;
 2007              		.loc 1 824 26
 2008 003c 0223     		movs	r3, #2
 2009 003e 7B85     		strh	r3, [r7, #42]	@ movhi
 2010 0040 01E0     		b	.L50
 2011              	.L49:
 825:../firmware/n32g430_std_periph_driver/src/n32g430_spi.c ****         }
 826:../firmware/n32g430_std_periph_driver/src/n32g430_spi.c ****         else
 827:../firmware/n32g430_std_periph_driver/src/n32g430_spi.c ****         {
 828:../firmware/n32g430_std_periph_driver/src/n32g430_spi.c ****             /* Packet length is 16 bits */
 829:../firmware/n32g430_std_periph_driver/src/n32g430_spi.c ****             packetlength = 1;
 2012              		.loc 1 829 26
 2013 0042 0123     		movs	r3, #1
 2014 0044 7B85     		strh	r3, [r7, #42]	@ movhi
 2015              	.L50:
 830:../firmware/n32g430_std_periph_driver/src/n32g430_spi.c ****         }
 831:../firmware/n32g430_std_periph_driver/src/n32g430_spi.c ****         
 832:../firmware/n32g430_std_periph_driver/src/n32g430_spi.c ****         /* I2S Clock source is System clock: Get System Clock frequency */
 833:../firmware/n32g430_std_periph_driver/src/n32g430_spi.c ****         RCC_Clocks_Frequencies_Value_Get(&RCC_Clocks); 
 2016              		.loc 1 833 9
 2017 0046 07F10803 		add	r3, r7, #8
 2018 004a 1846     		mov	r0, r3
 2019 004c FFF7FEFF 		bl	RCC_Clocks_Frequencies_Value_Get
 834:../firmware/n32g430_std_periph_driver/src/n32g430_spi.c **** 
 835:../firmware/n32g430_std_periph_driver/src/n32g430_spi.c ****         /* Get the source clock value: based on System Clock value */
ARM GAS  C:\Users\ZShuai\AppData\Local\Temp\ccswPVQl.s 			page 50


 836:../firmware/n32g430_std_periph_driver/src/n32g430_spi.c ****         sourceclock = RCC_Clocks.SysclkFreq;
 2020              		.loc 1 836 21
 2021 0050 BB68     		ldr	r3, [r7, #8]
 2022 0052 3B62     		str	r3, [r7, #32]
 837:../firmware/n32g430_std_periph_driver/src/n32g430_spi.c **** 
 838:../firmware/n32g430_std_periph_driver/src/n32g430_spi.c ****         /* Compute the Real divider depending on the MCLK output state with a floating point */
 839:../firmware/n32g430_std_periph_driver/src/n32g430_spi.c ****         /* Get the SPIx->I2SPREDIV MCLKOEN bit state */
 840:../firmware/n32g430_std_periph_driver/src/n32g430_spi.c ****         if ( SPIx->I2SPREDIV & I2S_MCLK_ENABLE)
 2023              		.loc 1 840 18
 2024 0054 7B68     		ldr	r3, [r7, #4]
 2025 0056 1B8C     		ldrh	r3, [r3, #32]	@ movhi
 2026 0058 9BB2     		uxth	r3, r3
 2027              		.loc 1 840 30
 2028 005a 03F40073 		and	r3, r3, #512
 2029              		.loc 1 840 12
 2030 005e 002B     		cmp	r3, #0
 2031 0060 0ED0     		beq	.L51
 841:../firmware/n32g430_std_periph_driver/src/n32g430_spi.c ****         {
 842:../firmware/n32g430_std_periph_driver/src/n32g430_spi.c ****             /* MCLK output is enabled */
 843:../firmware/n32g430_std_periph_driver/src/n32g430_spi.c ****             tmp = (uint16_t)(((((sourceclock / 256) * 10) / AudioFrequency)) + 5);
 2032              		.loc 1 843 46
 2033 0062 3B6A     		ldr	r3, [r7, #32]
 2034 0064 1A0A     		lsrs	r2, r3, #8
 2035              		.loc 1 843 53
 2036 0066 1346     		mov	r3, r2
 2037 0068 9B00     		lsls	r3, r3, #2
 2038 006a 1344     		add	r3, r3, r2
 2039 006c 5B00     		lsls	r3, r3, #1
 2040 006e 1A46     		mov	r2, r3
 2041              		.loc 1 843 59
 2042 0070 3B68     		ldr	r3, [r7]
 2043 0072 B2FBF3F3 		udiv	r3, r2, r3
 2044              		.loc 1 843 19
 2045 0076 9BB2     		uxth	r3, r3
 2046 0078 0533     		adds	r3, r3, #5
 2047 007a 9BB2     		uxth	r3, r3
 2048              		.loc 1 843 17
 2049 007c 7B62     		str	r3, [r7, #36]
 2050 007e 11E0     		b	.L52
 2051              	.L51:
 844:../firmware/n32g430_std_periph_driver/src/n32g430_spi.c ****         }
 845:../firmware/n32g430_std_periph_driver/src/n32g430_spi.c ****         else
 846:../firmware/n32g430_std_periph_driver/src/n32g430_spi.c ****         {
 847:../firmware/n32g430_std_periph_driver/src/n32g430_spi.c ****             /* MCLK output is disabled */
 848:../firmware/n32g430_std_periph_driver/src/n32g430_spi.c ****             tmp = (uint16_t)(((((sourceclock / (32 * packetlength)) * 10) / AudioFrequency)) + 5);
 2052              		.loc 1 848 52
 2053 0080 7B8D     		ldrh	r3, [r7, #42]
 2054 0082 5B01     		lsls	r3, r3, #5
 2055 0084 1A46     		mov	r2, r3
 2056              		.loc 1 848 46
 2057 0086 3B6A     		ldr	r3, [r7, #32]
 2058 0088 B3FBF2F2 		udiv	r2, r3, r2
 2059              		.loc 1 848 69
 2060 008c 1346     		mov	r3, r2
 2061 008e 9B00     		lsls	r3, r3, #2
 2062 0090 1344     		add	r3, r3, r2
 2063 0092 5B00     		lsls	r3, r3, #1
ARM GAS  C:\Users\ZShuai\AppData\Local\Temp\ccswPVQl.s 			page 51


 2064 0094 1A46     		mov	r2, r3
 2065              		.loc 1 848 75
 2066 0096 3B68     		ldr	r3, [r7]
 2067 0098 B2FBF3F3 		udiv	r3, r2, r3
 2068              		.loc 1 848 19
 2069 009c 9BB2     		uxth	r3, r3
 2070 009e 0533     		adds	r3, r3, #5
 2071 00a0 9BB2     		uxth	r3, r3
 2072              		.loc 1 848 17
 2073 00a2 7B62     		str	r3, [r7, #36]
 2074              	.L52:
 849:../firmware/n32g430_std_periph_driver/src/n32g430_spi.c ****         }
 850:../firmware/n32g430_std_periph_driver/src/n32g430_spi.c **** 
 851:../firmware/n32g430_std_periph_driver/src/n32g430_spi.c ****         /* Remove the floating point */
 852:../firmware/n32g430_std_periph_driver/src/n32g430_spi.c ****         tmp = tmp / 10;
 2075              		.loc 1 852 13
 2076 00a4 7B6A     		ldr	r3, [r7, #36]
 2077 00a6 184A     		ldr	r2, .L55
 2078 00a8 A2FB0323 		umull	r2, r3, r2, r3
 2079 00ac DB08     		lsrs	r3, r3, #3
 2080 00ae 7B62     		str	r3, [r7, #36]
 853:../firmware/n32g430_std_periph_driver/src/n32g430_spi.c **** 
 854:../firmware/n32g430_std_periph_driver/src/n32g430_spi.c ****         /* Check the parity of the divider */
 855:../firmware/n32g430_std_periph_driver/src/n32g430_spi.c ****         i2sodd = (uint16_t)(tmp & (uint16_t)0x0001);
 2081              		.loc 1 855 18
 2082 00b0 7B6A     		ldr	r3, [r7, #36]
 2083 00b2 9BB2     		uxth	r3, r3
 2084              		.loc 1 855 16
 2085 00b4 03F00103 		and	r3, r3, #1
 2086 00b8 BB85     		strh	r3, [r7, #44]	@ movhi
 856:../firmware/n32g430_std_periph_driver/src/n32g430_spi.c **** 
 857:../firmware/n32g430_std_periph_driver/src/n32g430_spi.c ****         /* Compute the i2sdiv prescaler */
 858:../firmware/n32g430_std_periph_driver/src/n32g430_spi.c ****         i2sdiv = (uint16_t)((tmp - i2sodd) / 2);
 2087              		.loc 1 858 34
 2088 00ba BB8D     		ldrh	r3, [r7, #44]
 2089 00bc 7A6A     		ldr	r2, [r7, #36]
 2090 00be D31A     		subs	r3, r2, r3
 2091              		.loc 1 858 44
 2092 00c0 5B08     		lsrs	r3, r3, #1
 2093              		.loc 1 858 16
 2094 00c2 FB85     		strh	r3, [r7, #46]	@ movhi
 859:../firmware/n32g430_std_periph_driver/src/n32g430_spi.c **** 
 860:../firmware/n32g430_std_periph_driver/src/n32g430_spi.c ****         /* Get the Mask for the Odd bit (SPI_I2SPREDIV[8]) register */
 861:../firmware/n32g430_std_periph_driver/src/n32g430_spi.c ****         i2sodd = (uint16_t)(i2sodd << 8);
 2095              		.loc 1 861 16
 2096 00c4 BB8D     		ldrh	r3, [r7, #44]	@ movhi
 2097 00c6 1B02     		lsls	r3, r3, #8
 2098 00c8 BB85     		strh	r3, [r7, #44]	@ movhi
 2099              	.L48:
 862:../firmware/n32g430_std_periph_driver/src/n32g430_spi.c ****     }
 863:../firmware/n32g430_std_periph_driver/src/n32g430_spi.c ****         /* Test if the divider is 1 or 0 or greater than 0xFF */
 864:../firmware/n32g430_std_periph_driver/src/n32g430_spi.c ****     if ((i2sdiv < 2) || (i2sdiv > 0xFF))
 2100              		.loc 1 864 8
 2101 00ca FB8D     		ldrh	r3, [r7, #46]
 2102 00cc 012B     		cmp	r3, #1
 2103 00ce 02D9     		bls	.L53
 2104              		.loc 1 864 22 discriminator 1
ARM GAS  C:\Users\ZShuai\AppData\Local\Temp\ccswPVQl.s 			page 52


 2105 00d0 FB8D     		ldrh	r3, [r7, #46]
 2106 00d2 FF2B     		cmp	r3, #255
 2107 00d4 03D9     		bls	.L54
 2108              	.L53:
 865:../firmware/n32g430_std_periph_driver/src/n32g430_spi.c ****     {
 866:../firmware/n32g430_std_periph_driver/src/n32g430_spi.c ****         /* Set the default values */
 867:../firmware/n32g430_std_periph_driver/src/n32g430_spi.c ****         i2sdiv = 2;
 2109              		.loc 1 867 16
 2110 00d6 0223     		movs	r3, #2
 2111 00d8 FB85     		strh	r3, [r7, #46]	@ movhi
 868:../firmware/n32g430_std_periph_driver/src/n32g430_spi.c ****         i2sodd = 0;
 2112              		.loc 1 868 16
 2113 00da 0023     		movs	r3, #0
 2114 00dc BB85     		strh	r3, [r7, #44]	@ movhi
 2115              	.L54:
 869:../firmware/n32g430_std_periph_driver/src/n32g430_spi.c ****     }
 870:../firmware/n32g430_std_periph_driver/src/n32g430_spi.c **** 
 871:../firmware/n32g430_std_periph_driver/src/n32g430_spi.c ****     /* Write to SPIx I2SPREDIV register the computed value */
 872:../firmware/n32g430_std_periph_driver/src/n32g430_spi.c ****     SPIx->I2SPREDIV = (uint16_t)(i2sdiv | (uint16_t)(i2sodd | (SPIx->I2SPREDIV & I2S_MCLK_ENABLE)))
 2116              		.loc 1 872 68
 2117 00de 7B68     		ldr	r3, [r7, #4]
 2118 00e0 1B8C     		ldrh	r3, [r3, #32]	@ movhi
 2119 00e2 9BB2     		uxth	r3, r3
 2120 00e4 1BB2     		sxth	r3, r3
 2121              		.loc 1 872 80
 2122 00e6 03F40073 		and	r3, r3, #512
 2123 00ea 1AB2     		sxth	r2, r3
 2124              		.loc 1 872 61
 2125 00ec B7F92C30 		ldrsh	r3, [r7, #44]
 2126 00f0 1343     		orrs	r3, r3, r2
 2127 00f2 1BB2     		sxth	r3, r3
 2128              		.loc 1 872 43
 2129 00f4 9AB2     		uxth	r2, r3
 2130              		.loc 1 872 23
 2131 00f6 FB8D     		ldrh	r3, [r7, #46]	@ movhi
 2132 00f8 1343     		orrs	r3, r3, r2
 2133 00fa 9AB2     		uxth	r2, r3
 2134              		.loc 1 872 21
 2135 00fc 7B68     		ldr	r3, [r7, #4]
 2136 00fe 1A84     		strh	r2, [r3, #32]	@ movhi
 873:../firmware/n32g430_std_periph_driver/src/n32g430_spi.c **** }
 2137              		.loc 1 873 1
 2138 0100 00BF     		nop
 2139 0102 3037     		adds	r7, r7, #48
 2140              	.LCFI192:
 2141              		.cfi_def_cfa_offset 8
 2142 0104 BD46     		mov	sp, r7
 2143              	.LCFI193:
 2144              		.cfi_def_cfa_register 13
 2145              		@ sp needed
 2146 0106 80BD     		pop	{r7, pc}
 2147              	.L56:
 2148              		.align	2
 2149              	.L55:
 2150 0108 CDCCCCCC 		.word	-858993459
 2151              		.cfi_endproc
 2152              	.LFE162:
ARM GAS  C:\Users\ZShuai\AppData\Local\Temp\ccswPVQl.s 			page 53


 2154              		.section	.text.I2S_CLKPOL_Config,"ax",%progbits
 2155              		.align	1
 2156              		.global	I2S_CLKPOL_Config
 2157              		.syntax unified
 2158              		.thumb
 2159              		.thumb_func
 2161              	I2S_CLKPOL_Config:
 2162              	.LFB163:
 874:../firmware/n32g430_std_periph_driver/src/n32g430_spi.c **** 
 875:../firmware/n32g430_std_periph_driver/src/n32g430_spi.c **** 
 876:../firmware/n32g430_std_periph_driver/src/n32g430_spi.c **** /**
 877:../firmware/n32g430_std_periph_driver/src/n32g430_spi.c **** *\*\name    I2S_CLKPOL_Config.
 878:../firmware/n32g430_std_periph_driver/src/n32g430_spi.c **** *\*\fun     Config the I2S clock polarity.
 879:../firmware/n32g430_std_periph_driver/src/n32g430_spi.c **** *\*\param   SPIx :
 880:../firmware/n32g430_std_periph_driver/src/n32g430_spi.c **** *\*\          - SPI1
 881:../firmware/n32g430_std_periph_driver/src/n32g430_spi.c **** *\*\          - SPI2
 882:../firmware/n32g430_std_periph_driver/src/n32g430_spi.c **** *\*\param   CLKPOL :
 883:../firmware/n32g430_std_periph_driver/src/n32g430_spi.c **** *\*\          - I2S_CLKPOL_LOW 
 884:../firmware/n32g430_std_periph_driver/src/n32g430_spi.c **** *\*\          - I2S_CLKPOL_HIGH
 885:../firmware/n32g430_std_periph_driver/src/n32g430_spi.c **** *\*\return  none
 886:../firmware/n32g430_std_periph_driver/src/n32g430_spi.c **** **/
 887:../firmware/n32g430_std_periph_driver/src/n32g430_spi.c **** void I2S_CLKPOL_Config(SPI_Module* SPIx, uint16_t CLKPOL)
 888:../firmware/n32g430_std_periph_driver/src/n32g430_spi.c **** {
 2163              		.loc 1 888 1
 2164              		.cfi_startproc
 2165              		@ args = 0, pretend = 0, frame = 8
 2166              		@ frame_needed = 1, uses_anonymous_args = 0
 2167              		@ link register save eliminated.
 2168 0000 80B4     		push	{r7}
 2169              	.LCFI194:
 2170              		.cfi_def_cfa_offset 4
 2171              		.cfi_offset 7, -4
 2172 0002 83B0     		sub	sp, sp, #12
 2173              	.LCFI195:
 2174              		.cfi_def_cfa_offset 16
 2175 0004 00AF     		add	r7, sp, #0
 2176              	.LCFI196:
 2177              		.cfi_def_cfa_register 7
 2178 0006 7860     		str	r0, [r7, #4]
 2179 0008 0B46     		mov	r3, r1
 2180 000a 7B80     		strh	r3, [r7, #2]	@ movhi
 889:../firmware/n32g430_std_periph_driver/src/n32g430_spi.c ****     /* Clear SPI_I2SPREDIV CLKPOL bit */
 890:../firmware/n32g430_std_periph_driver/src/n32g430_spi.c ****     SPIx->I2SCFG &= I2S_CLKPOL_MASK;
 2181              		.loc 1 890 9
 2182 000c 7B68     		ldr	r3, [r7, #4]
 2183 000e 9B8B     		ldrh	r3, [r3, #28]	@ movhi
 2184 0010 9BB2     		uxth	r3, r3
 2185              		.loc 1 890 18
 2186 0012 23F00803 		bic	r3, r3, #8
 2187 0016 9AB2     		uxth	r2, r3
 2188 0018 7B68     		ldr	r3, [r7, #4]
 2189 001a 9A83     		strh	r2, [r3, #28]	@ movhi
 891:../firmware/n32g430_std_periph_driver/src/n32g430_spi.c ****     /* Set SPI_I2SPREDIV CLKPOL bit */
 892:../firmware/n32g430_std_periph_driver/src/n32g430_spi.c ****     SPIx->I2SCFG |= CLKPOL;
 2190              		.loc 1 892 9
 2191 001c 7B68     		ldr	r3, [r7, #4]
 2192 001e 9B8B     		ldrh	r3, [r3, #28]	@ movhi
ARM GAS  C:\Users\ZShuai\AppData\Local\Temp\ccswPVQl.s 			page 54


 2193 0020 9AB2     		uxth	r2, r3
 2194              		.loc 1 892 18
 2195 0022 7B88     		ldrh	r3, [r7, #2]	@ movhi
 2196 0024 1343     		orrs	r3, r3, r2
 2197 0026 9AB2     		uxth	r2, r3
 2198 0028 7B68     		ldr	r3, [r7, #4]
 2199 002a 9A83     		strh	r2, [r3, #28]	@ movhi
 893:../firmware/n32g430_std_periph_driver/src/n32g430_spi.c **** }
 2200              		.loc 1 893 1
 2201 002c 00BF     		nop
 2202 002e 0C37     		adds	r7, r7, #12
 2203              	.LCFI197:
 2204              		.cfi_def_cfa_offset 4
 2205 0030 BD46     		mov	sp, r7
 2206              	.LCFI198:
 2207              		.cfi_def_cfa_register 13
 2208              		@ sp needed
 2209 0032 5DF8047B 		ldr	r7, [sp], #4
 2210              	.LCFI199:
 2211              		.cfi_restore 7
 2212              		.cfi_def_cfa_offset 0
 2213 0036 7047     		bx	lr
 2214              		.cfi_endproc
 2215              	.LFE163:
 2217              		.section	.text.SPI_I2S_Interrupts_Enable,"ax",%progbits
 2218              		.align	1
 2219              		.global	SPI_I2S_Interrupts_Enable
 2220              		.syntax unified
 2221              		.thumb
 2222              		.thumb_func
 2224              	SPI_I2S_Interrupts_Enable:
 2225              	.LFB164:
 894:../firmware/n32g430_std_periph_driver/src/n32g430_spi.c **** 
 895:../firmware/n32g430_std_periph_driver/src/n32g430_spi.c **** 
 896:../firmware/n32g430_std_periph_driver/src/n32g430_spi.c **** /**
 897:../firmware/n32g430_std_periph_driver/src/n32g430_spi.c **** *\*\name    SPI_I2S_Interrupts_Enable.
 898:../firmware/n32g430_std_periph_driver/src/n32g430_spi.c **** *\*\fun     Enable SPI or I2S interrupts.
 899:../firmware/n32g430_std_periph_driver/src/n32g430_spi.c **** *\*\param   SPIx :
 900:../firmware/n32g430_std_periph_driver/src/n32g430_spi.c **** *\*\          - SPI1
 901:../firmware/n32g430_std_periph_driver/src/n32g430_spi.c **** *\*\          - SPI2
 902:../firmware/n32g430_std_periph_driver/src/n32g430_spi.c **** *\*\param   spi_interrupt :
 903:../firmware/n32g430_std_periph_driver/src/n32g430_spi.c **** *\*\          - SPI_I2S_INT_TE    SPI_CTRL2
 904:../firmware/n32g430_std_periph_driver/src/n32g430_spi.c **** *\*\          - SPI_I2S_INT_RNE   SPI_CTRL2
 905:../firmware/n32g430_std_periph_driver/src/n32g430_spi.c **** *\*\          - SPI_I2S_INT_ERR   SPI_CTRL2
 906:../firmware/n32g430_std_periph_driver/src/n32g430_spi.c **** *\*\return  none
 907:../firmware/n32g430_std_periph_driver/src/n32g430_spi.c **** **/
 908:../firmware/n32g430_std_periph_driver/src/n32g430_spi.c **** void SPI_I2S_Interrupts_Enable(SPI_Module* SPIx, uint8_t spi_interrupt)
 909:../firmware/n32g430_std_periph_driver/src/n32g430_spi.c **** {
 2226              		.loc 1 909 1
 2227              		.cfi_startproc
 2228              		@ args = 0, pretend = 0, frame = 8
 2229              		@ frame_needed = 1, uses_anonymous_args = 0
 2230              		@ link register save eliminated.
 2231 0000 80B4     		push	{r7}
 2232              	.LCFI200:
 2233              		.cfi_def_cfa_offset 4
 2234              		.cfi_offset 7, -4
ARM GAS  C:\Users\ZShuai\AppData\Local\Temp\ccswPVQl.s 			page 55


 2235 0002 83B0     		sub	sp, sp, #12
 2236              	.LCFI201:
 2237              		.cfi_def_cfa_offset 16
 2238 0004 00AF     		add	r7, sp, #0
 2239              	.LCFI202:
 2240              		.cfi_def_cfa_register 7
 2241 0006 7860     		str	r0, [r7, #4]
 2242 0008 0B46     		mov	r3, r1
 2243 000a FB70     		strb	r3, [r7, #3]
 910:../firmware/n32g430_std_periph_driver/src/n32g430_spi.c ****     /* Set the SPI_CTRL2 TEINTEN/RNEINTEN/ERRINTEN bit to enable SPI or I2S interrupts */
 911:../firmware/n32g430_std_periph_driver/src/n32g430_spi.c ****     SPIx->CTRL2 |= spi_interrupt;
 2244              		.loc 1 911 9
 2245 000c 7B68     		ldr	r3, [r7, #4]
 2246 000e 9B88     		ldrh	r3, [r3, #4]	@ movhi
 2247 0010 9AB2     		uxth	r2, r3
 2248              		.loc 1 911 17
 2249 0012 FB78     		ldrb	r3, [r7, #3]	@ zero_extendqisi2
 2250 0014 9BB2     		uxth	r3, r3
 2251 0016 1343     		orrs	r3, r3, r2
 2252 0018 9AB2     		uxth	r2, r3
 2253 001a 7B68     		ldr	r3, [r7, #4]
 2254 001c 9A80     		strh	r2, [r3, #4]	@ movhi
 912:../firmware/n32g430_std_periph_driver/src/n32g430_spi.c **** }
 2255              		.loc 1 912 1
 2256 001e 00BF     		nop
 2257 0020 0C37     		adds	r7, r7, #12
 2258              	.LCFI203:
 2259              		.cfi_def_cfa_offset 4
 2260 0022 BD46     		mov	sp, r7
 2261              	.LCFI204:
 2262              		.cfi_def_cfa_register 13
 2263              		@ sp needed
 2264 0024 5DF8047B 		ldr	r7, [sp], #4
 2265              	.LCFI205:
 2266              		.cfi_restore 7
 2267              		.cfi_def_cfa_offset 0
 2268 0028 7047     		bx	lr
 2269              		.cfi_endproc
 2270              	.LFE164:
 2272              		.section	.text.SPI_I2S_Interrupts_Disable,"ax",%progbits
 2273              		.align	1
 2274              		.global	SPI_I2S_Interrupts_Disable
 2275              		.syntax unified
 2276              		.thumb
 2277              		.thumb_func
 2279              	SPI_I2S_Interrupts_Disable:
 2280              	.LFB165:
 913:../firmware/n32g430_std_periph_driver/src/n32g430_spi.c **** 
 914:../firmware/n32g430_std_periph_driver/src/n32g430_spi.c **** /**
 915:../firmware/n32g430_std_periph_driver/src/n32g430_spi.c **** *\*\name    SPI_I2S_Interrupts_Disable.
 916:../firmware/n32g430_std_periph_driver/src/n32g430_spi.c **** *\*\fun     Disable SPI or I2S interrupts.
 917:../firmware/n32g430_std_periph_driver/src/n32g430_spi.c **** *\*\param   SPIx :
 918:../firmware/n32g430_std_periph_driver/src/n32g430_spi.c **** *\*\          - SPI1
 919:../firmware/n32g430_std_periph_driver/src/n32g430_spi.c **** *\*\          - SPI2
 920:../firmware/n32g430_std_periph_driver/src/n32g430_spi.c **** *\*\param   spi_interrupt :
 921:../firmware/n32g430_std_periph_driver/src/n32g430_spi.c **** *\*\          - SPI_I2S_INT_TE    SPI_CTRL2
 922:../firmware/n32g430_std_periph_driver/src/n32g430_spi.c **** *\*\          - SPI_I2S_INT_RNE   SPI_CTRL2
ARM GAS  C:\Users\ZShuai\AppData\Local\Temp\ccswPVQl.s 			page 56


 923:../firmware/n32g430_std_periph_driver/src/n32g430_spi.c **** *\*\          - SPI_I2S_INT_ERR   SPI_CTRL2
 924:../firmware/n32g430_std_periph_driver/src/n32g430_spi.c **** *\*\return  none
 925:../firmware/n32g430_std_periph_driver/src/n32g430_spi.c **** **/
 926:../firmware/n32g430_std_periph_driver/src/n32g430_spi.c **** void SPI_I2S_Interrupts_Disable(SPI_Module* SPIx, uint8_t spi_interrupt)
 927:../firmware/n32g430_std_periph_driver/src/n32g430_spi.c **** {
 2281              		.loc 1 927 1
 2282              		.cfi_startproc
 2283              		@ args = 0, pretend = 0, frame = 8
 2284              		@ frame_needed = 1, uses_anonymous_args = 0
 2285              		@ link register save eliminated.
 2286 0000 80B4     		push	{r7}
 2287              	.LCFI206:
 2288              		.cfi_def_cfa_offset 4
 2289              		.cfi_offset 7, -4
 2290 0002 83B0     		sub	sp, sp, #12
 2291              	.LCFI207:
 2292              		.cfi_def_cfa_offset 16
 2293 0004 00AF     		add	r7, sp, #0
 2294              	.LCFI208:
 2295              		.cfi_def_cfa_register 7
 2296 0006 7860     		str	r0, [r7, #4]
 2297 0008 0B46     		mov	r3, r1
 2298 000a FB70     		strb	r3, [r7, #3]
 928:../firmware/n32g430_std_periph_driver/src/n32g430_spi.c ****     /* Clean the SPI_CTRL2 TEINTEN/RNEINTEN/ERRINTEN bit to disable SPI or I2S interrupts */
 929:../firmware/n32g430_std_periph_driver/src/n32g430_spi.c ****     SPIx->CTRL2 &= (~spi_interrupt);
 2299              		.loc 1 929 9
 2300 000c 7B68     		ldr	r3, [r7, #4]
 2301 000e 9B88     		ldrh	r3, [r3, #4]	@ movhi
 2302 0010 9BB2     		uxth	r3, r3
 2303 0012 1AB2     		sxth	r2, r3
 2304              		.loc 1 929 17
 2305 0014 FB78     		ldrb	r3, [r7, #3]	@ zero_extendqisi2
 2306 0016 9BB2     		uxth	r3, r3
 2307 0018 DB43     		mvns	r3, r3
 2308 001a 9BB2     		uxth	r3, r3
 2309 001c 1BB2     		sxth	r3, r3
 2310 001e 1340     		ands	r3, r3, r2
 2311 0020 1BB2     		sxth	r3, r3
 2312 0022 9AB2     		uxth	r2, r3
 2313 0024 7B68     		ldr	r3, [r7, #4]
 2314 0026 9A80     		strh	r2, [r3, #4]	@ movhi
 930:../firmware/n32g430_std_periph_driver/src/n32g430_spi.c **** }
 2315              		.loc 1 930 1
 2316 0028 00BF     		nop
 2317 002a 0C37     		adds	r7, r7, #12
 2318              	.LCFI209:
 2319              		.cfi_def_cfa_offset 4
 2320 002c BD46     		mov	sp, r7
 2321              	.LCFI210:
 2322              		.cfi_def_cfa_register 13
 2323              		@ sp needed
 2324 002e 5DF8047B 		ldr	r7, [sp], #4
 2325              	.LCFI211:
 2326              		.cfi_restore 7
 2327              		.cfi_def_cfa_offset 0
 2328 0032 7047     		bx	lr
 2329              		.cfi_endproc
ARM GAS  C:\Users\ZShuai\AppData\Local\Temp\ccswPVQl.s 			page 57


 2330              	.LFE165:
 2332              		.section	.text.SPI_I2S_DMA_Transfer_Enable,"ax",%progbits
 2333              		.align	1
 2334              		.global	SPI_I2S_DMA_Transfer_Enable
 2335              		.syntax unified
 2336              		.thumb
 2337              		.thumb_func
 2339              	SPI_I2S_DMA_Transfer_Enable:
 2340              	.LFB166:
 931:../firmware/n32g430_std_periph_driver/src/n32g430_spi.c **** 
 932:../firmware/n32g430_std_periph_driver/src/n32g430_spi.c **** 
 933:../firmware/n32g430_std_periph_driver/src/n32g430_spi.c **** /**
 934:../firmware/n32g430_std_periph_driver/src/n32g430_spi.c **** *\*\name    SPI_I2S_DMA_Transfer_Enable.
 935:../firmware/n32g430_std_periph_driver/src/n32g430_spi.c **** *\*\fun     Enable SPI or I2S DMA transfer.
 936:../firmware/n32g430_std_periph_driver/src/n32g430_spi.c **** *\*\param   SPIx :
 937:../firmware/n32g430_std_periph_driver/src/n32g430_spi.c **** *\*\          - SPI1
 938:../firmware/n32g430_std_periph_driver/src/n32g430_spi.c **** *\*\          - SPI2
 939:../firmware/n32g430_std_periph_driver/src/n32g430_spi.c **** *\*\param   SPI_I2S_DMARequest :
 940:../firmware/n32g430_std_periph_driver/src/n32g430_spi.c **** *\*\          - SPI_I2S_DMA_TX
 941:../firmware/n32g430_std_periph_driver/src/n32g430_spi.c **** *\*\          - SPI_I2S_DMA_RX
 942:../firmware/n32g430_std_periph_driver/src/n32g430_spi.c **** *\*\return  none
 943:../firmware/n32g430_std_periph_driver/src/n32g430_spi.c **** **/
 944:../firmware/n32g430_std_periph_driver/src/n32g430_spi.c **** void SPI_I2S_DMA_Transfer_Enable(SPI_Module* SPIx, uint16_t SPI_I2S_DMARequest)
 945:../firmware/n32g430_std_periph_driver/src/n32g430_spi.c **** {
 2341              		.loc 1 945 1
 2342              		.cfi_startproc
 2343              		@ args = 0, pretend = 0, frame = 8
 2344              		@ frame_needed = 1, uses_anonymous_args = 0
 2345              		@ link register save eliminated.
 2346 0000 80B4     		push	{r7}
 2347              	.LCFI212:
 2348              		.cfi_def_cfa_offset 4
 2349              		.cfi_offset 7, -4
 2350 0002 83B0     		sub	sp, sp, #12
 2351              	.LCFI213:
 2352              		.cfi_def_cfa_offset 16
 2353 0004 00AF     		add	r7, sp, #0
 2354              	.LCFI214:
 2355              		.cfi_def_cfa_register 7
 2356 0006 7860     		str	r0, [r7, #4]
 2357 0008 0B46     		mov	r3, r1
 2358 000a 7B80     		strh	r3, [r7, #2]	@ movhi
 946:../firmware/n32g430_std_periph_driver/src/n32g430_spi.c ****     /* Set the SPI_CTRL2 TDMAEN/RDMAEN bit to enable TX/RX DMA transfer */
 947:../firmware/n32g430_std_periph_driver/src/n32g430_spi.c ****     SPIx->CTRL2 |= SPI_I2S_DMARequest;
 2359              		.loc 1 947 9
 2360 000c 7B68     		ldr	r3, [r7, #4]
 2361 000e 9B88     		ldrh	r3, [r3, #4]	@ movhi
 2362 0010 9AB2     		uxth	r2, r3
 2363              		.loc 1 947 17
 2364 0012 7B88     		ldrh	r3, [r7, #2]	@ movhi
 2365 0014 1343     		orrs	r3, r3, r2
 2366 0016 9AB2     		uxth	r2, r3
 2367 0018 7B68     		ldr	r3, [r7, #4]
 2368 001a 9A80     		strh	r2, [r3, #4]	@ movhi
 948:../firmware/n32g430_std_periph_driver/src/n32g430_spi.c **** }
 2369              		.loc 1 948 1
 2370 001c 00BF     		nop
ARM GAS  C:\Users\ZShuai\AppData\Local\Temp\ccswPVQl.s 			page 58


 2371 001e 0C37     		adds	r7, r7, #12
 2372              	.LCFI215:
 2373              		.cfi_def_cfa_offset 4
 2374 0020 BD46     		mov	sp, r7
 2375              	.LCFI216:
 2376              		.cfi_def_cfa_register 13
 2377              		@ sp needed
 2378 0022 5DF8047B 		ldr	r7, [sp], #4
 2379              	.LCFI217:
 2380              		.cfi_restore 7
 2381              		.cfi_def_cfa_offset 0
 2382 0026 7047     		bx	lr
 2383              		.cfi_endproc
 2384              	.LFE166:
 2386              		.section	.text.SPI_I2S_DMA_Transfer_Disable,"ax",%progbits
 2387              		.align	1
 2388              		.global	SPI_I2S_DMA_Transfer_Disable
 2389              		.syntax unified
 2390              		.thumb
 2391              		.thumb_func
 2393              	SPI_I2S_DMA_Transfer_Disable:
 2394              	.LFB167:
 949:../firmware/n32g430_std_periph_driver/src/n32g430_spi.c **** 
 950:../firmware/n32g430_std_periph_driver/src/n32g430_spi.c **** 
 951:../firmware/n32g430_std_periph_driver/src/n32g430_spi.c **** /**
 952:../firmware/n32g430_std_periph_driver/src/n32g430_spi.c **** *\*\name    SPI_I2S_DMA_Transfer_Disable.
 953:../firmware/n32g430_std_periph_driver/src/n32g430_spi.c **** *\*\fun     Disable SPI or I2S DMA transfer.
 954:../firmware/n32g430_std_periph_driver/src/n32g430_spi.c **** *\*\param   SPIx :
 955:../firmware/n32g430_std_periph_driver/src/n32g430_spi.c **** *\*\          - SPI1
 956:../firmware/n32g430_std_periph_driver/src/n32g430_spi.c **** *\*\          - SPI2
 957:../firmware/n32g430_std_periph_driver/src/n32g430_spi.c **** *\*\param   SPI_I2S_DMARequest :
 958:../firmware/n32g430_std_periph_driver/src/n32g430_spi.c **** *\*\          - SPI_I2S_DMA_TX
 959:../firmware/n32g430_std_periph_driver/src/n32g430_spi.c **** *\*\          - SPI_I2S_DMA_RX
 960:../firmware/n32g430_std_periph_driver/src/n32g430_spi.c **** *\*\return  none
 961:../firmware/n32g430_std_periph_driver/src/n32g430_spi.c **** **/
 962:../firmware/n32g430_std_periph_driver/src/n32g430_spi.c **** void SPI_I2S_DMA_Transfer_Disable(SPI_Module* SPIx, uint16_t SPI_I2S_DMARequest)
 963:../firmware/n32g430_std_periph_driver/src/n32g430_spi.c **** {
 2395              		.loc 1 963 1
 2396              		.cfi_startproc
 2397              		@ args = 0, pretend = 0, frame = 8
 2398              		@ frame_needed = 1, uses_anonymous_args = 0
 2399              		@ link register save eliminated.
 2400 0000 80B4     		push	{r7}
 2401              	.LCFI218:
 2402              		.cfi_def_cfa_offset 4
 2403              		.cfi_offset 7, -4
 2404 0002 83B0     		sub	sp, sp, #12
 2405              	.LCFI219:
 2406              		.cfi_def_cfa_offset 16
 2407 0004 00AF     		add	r7, sp, #0
 2408              	.LCFI220:
 2409              		.cfi_def_cfa_register 7
 2410 0006 7860     		str	r0, [r7, #4]
 2411 0008 0B46     		mov	r3, r1
 2412 000a 7B80     		strh	r3, [r7, #2]	@ movhi
 964:../firmware/n32g430_std_periph_driver/src/n32g430_spi.c ****     /* Clean the SPI_CTRL2 TDMAEN/RDMAEN bit to disable TX/RX DMA transfer */
 965:../firmware/n32g430_std_periph_driver/src/n32g430_spi.c ****     SPIx->CTRL2 &= (uint16_t)~SPI_I2S_DMARequest;
ARM GAS  C:\Users\ZShuai\AppData\Local\Temp\ccswPVQl.s 			page 59


 2413              		.loc 1 965 9
 2414 000c 7B68     		ldr	r3, [r7, #4]
 2415 000e 9B88     		ldrh	r3, [r3, #4]	@ movhi
 2416 0010 9AB2     		uxth	r2, r3
 2417              		.loc 1 965 20
 2418 0012 7B88     		ldrh	r3, [r7, #2]	@ movhi
 2419 0014 DB43     		mvns	r3, r3
 2420 0016 9BB2     		uxth	r3, r3
 2421              		.loc 1 965 17
 2422 0018 1340     		ands	r3, r3, r2
 2423 001a 9AB2     		uxth	r2, r3
 2424 001c 7B68     		ldr	r3, [r7, #4]
 2425 001e 9A80     		strh	r2, [r3, #4]	@ movhi
 966:../firmware/n32g430_std_periph_driver/src/n32g430_spi.c **** }
 2426              		.loc 1 966 1
 2427 0020 00BF     		nop
 2428 0022 0C37     		adds	r7, r7, #12
 2429              	.LCFI221:
 2430              		.cfi_def_cfa_offset 4
 2431 0024 BD46     		mov	sp, r7
 2432              	.LCFI222:
 2433              		.cfi_def_cfa_register 13
 2434              		@ sp needed
 2435 0026 5DF8047B 		ldr	r7, [sp], #4
 2436              	.LCFI223:
 2437              		.cfi_restore 7
 2438              		.cfi_def_cfa_offset 0
 2439 002a 7047     		bx	lr
 2440              		.cfi_endproc
 2441              	.LFE167:
 2443              		.section	.text.SPI_I2S_Data_Transmit,"ax",%progbits
 2444              		.align	1
 2445              		.global	SPI_I2S_Data_Transmit
 2446              		.syntax unified
 2447              		.thumb
 2448              		.thumb_func
 2450              	SPI_I2S_Data_Transmit:
 2451              	.LFB168:
 967:../firmware/n32g430_std_periph_driver/src/n32g430_spi.c **** 
 968:../firmware/n32g430_std_periph_driver/src/n32g430_spi.c **** 
 969:../firmware/n32g430_std_periph_driver/src/n32g430_spi.c **** /**
 970:../firmware/n32g430_std_periph_driver/src/n32g430_spi.c **** *\*\name    SPI_I2S_Data_Transmit.
 971:../firmware/n32g430_std_periph_driver/src/n32g430_spi.c **** *\*\fun     Transmits a Data through the SPIx/I2Sx peripheral.
 972:../firmware/n32g430_std_periph_driver/src/n32g430_spi.c **** *\*\param   SPIx :
 973:../firmware/n32g430_std_periph_driver/src/n32g430_spi.c **** *\*\          - SPI1
 974:../firmware/n32g430_std_periph_driver/src/n32g430_spi.c **** *\*\          - SPI2
 975:../firmware/n32g430_std_periph_driver/src/n32g430_spi.c **** *\*\param   Data           \* Data to be transmitted *\
 976:../firmware/n32g430_std_periph_driver/src/n32g430_spi.c **** *\*\return  none
 977:../firmware/n32g430_std_periph_driver/src/n32g430_spi.c **** **/
 978:../firmware/n32g430_std_periph_driver/src/n32g430_spi.c **** void SPI_I2S_Data_Transmit(SPI_Module* SPIx, uint16_t Data)
 979:../firmware/n32g430_std_periph_driver/src/n32g430_spi.c **** {
 2452              		.loc 1 979 1
 2453              		.cfi_startproc
 2454              		@ args = 0, pretend = 0, frame = 8
 2455              		@ frame_needed = 1, uses_anonymous_args = 0
 2456              		@ link register save eliminated.
 2457 0000 80B4     		push	{r7}
ARM GAS  C:\Users\ZShuai\AppData\Local\Temp\ccswPVQl.s 			page 60


 2458              	.LCFI224:
 2459              		.cfi_def_cfa_offset 4
 2460              		.cfi_offset 7, -4
 2461 0002 83B0     		sub	sp, sp, #12
 2462              	.LCFI225:
 2463              		.cfi_def_cfa_offset 16
 2464 0004 00AF     		add	r7, sp, #0
 2465              	.LCFI226:
 2466              		.cfi_def_cfa_register 7
 2467 0006 7860     		str	r0, [r7, #4]
 2468 0008 0B46     		mov	r3, r1
 2469 000a 7B80     		strh	r3, [r7, #2]	@ movhi
 980:../firmware/n32g430_std_periph_driver/src/n32g430_spi.c ****     /* Write in the SPI_DAT register the data to be sent */
 981:../firmware/n32g430_std_periph_driver/src/n32g430_spi.c ****     SPIx->DAT = Data;
 2470              		.loc 1 981 15
 2471 000c 7B68     		ldr	r3, [r7, #4]
 2472 000e 7A88     		ldrh	r2, [r7, #2]	@ movhi
 2473 0010 9A81     		strh	r2, [r3, #12]	@ movhi
 982:../firmware/n32g430_std_periph_driver/src/n32g430_spi.c **** }
 2474              		.loc 1 982 1
 2475 0012 00BF     		nop
 2476 0014 0C37     		adds	r7, r7, #12
 2477              	.LCFI227:
 2478              		.cfi_def_cfa_offset 4
 2479 0016 BD46     		mov	sp, r7
 2480              	.LCFI228:
 2481              		.cfi_def_cfa_register 13
 2482              		@ sp needed
 2483 0018 5DF8047B 		ldr	r7, [sp], #4
 2484              	.LCFI229:
 2485              		.cfi_restore 7
 2486              		.cfi_def_cfa_offset 0
 2487 001c 7047     		bx	lr
 2488              		.cfi_endproc
 2489              	.LFE168:
 2491              		.section	.text.SPI_I2S_Data_Get,"ax",%progbits
 2492              		.align	1
 2493              		.global	SPI_I2S_Data_Get
 2494              		.syntax unified
 2495              		.thumb
 2496              		.thumb_func
 2498              	SPI_I2S_Data_Get:
 2499              	.LFB169:
 983:../firmware/n32g430_std_periph_driver/src/n32g430_spi.c **** 
 984:../firmware/n32g430_std_periph_driver/src/n32g430_spi.c **** 
 985:../firmware/n32g430_std_periph_driver/src/n32g430_spi.c **** /**
 986:../firmware/n32g430_std_periph_driver/src/n32g430_spi.c **** *\*\name    SPI_I2S_Data_Get.
 987:../firmware/n32g430_std_periph_driver/src/n32g430_spi.c **** *\*\fun     Get SPI/I2S data from SPI_DAT register.
 988:../firmware/n32g430_std_periph_driver/src/n32g430_spi.c **** *\*\param   SPIx :
 989:../firmware/n32g430_std_periph_driver/src/n32g430_spi.c **** *\*\          - SPI1
 990:../firmware/n32g430_std_periph_driver/src/n32g430_spi.c **** *\*\          - SPI2
 991:../firmware/n32g430_std_periph_driver/src/n32g430_spi.c **** *\*\return  The data in the SPI_DAT register
 992:../firmware/n32g430_std_periph_driver/src/n32g430_spi.c **** **/
 993:../firmware/n32g430_std_periph_driver/src/n32g430_spi.c **** uint16_t SPI_I2S_Data_Get(SPI_Module* SPIx)
 994:../firmware/n32g430_std_periph_driver/src/n32g430_spi.c **** {
 2500              		.loc 1 994 1
 2501              		.cfi_startproc
ARM GAS  C:\Users\ZShuai\AppData\Local\Temp\ccswPVQl.s 			page 61


 2502              		@ args = 0, pretend = 0, frame = 8
 2503              		@ frame_needed = 1, uses_anonymous_args = 0
 2504              		@ link register save eliminated.
 2505 0000 80B4     		push	{r7}
 2506              	.LCFI230:
 2507              		.cfi_def_cfa_offset 4
 2508              		.cfi_offset 7, -4
 2509 0002 83B0     		sub	sp, sp, #12
 2510              	.LCFI231:
 2511              		.cfi_def_cfa_offset 16
 2512 0004 00AF     		add	r7, sp, #0
 2513              	.LCFI232:
 2514              		.cfi_def_cfa_register 7
 2515 0006 7860     		str	r0, [r7, #4]
 995:../firmware/n32g430_std_periph_driver/src/n32g430_spi.c ****     /* Return the data in the SPI_DAT register */
 996:../firmware/n32g430_std_periph_driver/src/n32g430_spi.c ****     return SPIx->DAT;
 2516              		.loc 1 996 16
 2517 0008 7B68     		ldr	r3, [r7, #4]
 2518 000a 9B89     		ldrh	r3, [r3, #12]	@ movhi
 2519 000c 9BB2     		uxth	r3, r3
 997:../firmware/n32g430_std_periph_driver/src/n32g430_spi.c **** }
 2520              		.loc 1 997 1
 2521 000e 1846     		mov	r0, r3
 2522 0010 0C37     		adds	r7, r7, #12
 2523              	.LCFI233:
 2524              		.cfi_def_cfa_offset 4
 2525 0012 BD46     		mov	sp, r7
 2526              	.LCFI234:
 2527              		.cfi_def_cfa_register 13
 2528              		@ sp needed
 2529 0014 5DF8047B 		ldr	r7, [sp], #4
 2530              	.LCFI235:
 2531              		.cfi_restore 7
 2532              		.cfi_def_cfa_offset 0
 2533 0018 7047     		bx	lr
 2534              		.cfi_endproc
 2535              	.LFE169:
 2537              		.section	.text.SPI_I2S_Flag_Status_Get,"ax",%progbits
 2538              		.align	1
 2539              		.global	SPI_I2S_Flag_Status_Get
 2540              		.syntax unified
 2541              		.thumb
 2542              		.thumb_func
 2544              	SPI_I2S_Flag_Status_Get:
 2545              	.LFB170:
 998:../firmware/n32g430_std_periph_driver/src/n32g430_spi.c **** 
 999:../firmware/n32g430_std_periph_driver/src/n32g430_spi.c **** 
1000:../firmware/n32g430_std_periph_driver/src/n32g430_spi.c **** /**
1001:../firmware/n32g430_std_periph_driver/src/n32g430_spi.c **** *\*\name    SPI_I2S_Flag_Status_Get.
1002:../firmware/n32g430_std_periph_driver/src/n32g430_spi.c **** *\*\fun     Get SPI/I2S flag status.
1003:../firmware/n32g430_std_periph_driver/src/n32g430_spi.c **** *\*\param   SPIx :
1004:../firmware/n32g430_std_periph_driver/src/n32g430_spi.c **** *\*\          - SPI1
1005:../firmware/n32g430_std_periph_driver/src/n32g430_spi.c **** *\*\          - SPI2
1006:../firmware/n32g430_std_periph_driver/src/n32g430_spi.c **** *\*\param   spi_i2s_flag :
1007:../firmware/n32g430_std_periph_driver/src/n32g430_spi.c **** *\*\          - SPI_I2S_FLAG_TE
1008:../firmware/n32g430_std_periph_driver/src/n32g430_spi.c **** *\*\          - SPI_I2S_FLAG_RNE
1009:../firmware/n32g430_std_periph_driver/src/n32g430_spi.c **** *\*\          - SPI_I2S_FLAG_BUSY
ARM GAS  C:\Users\ZShuai\AppData\Local\Temp\ccswPVQl.s 			page 62


1010:../firmware/n32g430_std_periph_driver/src/n32g430_spi.c **** *\*\          - SPI_I2S_FLAG_OVER
1011:../firmware/n32g430_std_periph_driver/src/n32g430_spi.c **** *\*\          - SPI_FLAG_MODERR
1012:../firmware/n32g430_std_periph_driver/src/n32g430_spi.c **** *\*\          - SPI_FLAG_CRCERR
1013:../firmware/n32g430_std_periph_driver/src/n32g430_spi.c **** *\*\          - I2S_FLAG_UNDER
1014:../firmware/n32g430_std_periph_driver/src/n32g430_spi.c **** *\*\          - I2S_FLAG_CHSIDE 
1015:../firmware/n32g430_std_periph_driver/src/n32g430_spi.c **** *\*\return  SET or RESET
1016:../firmware/n32g430_std_periph_driver/src/n32g430_spi.c **** **/
1017:../firmware/n32g430_std_periph_driver/src/n32g430_spi.c **** FlagStatus SPI_I2S_Flag_Status_Get(SPI_Module* SPIx, uint8_t spi_i2s_flag)
1018:../firmware/n32g430_std_periph_driver/src/n32g430_spi.c **** {
 2546              		.loc 1 1018 1
 2547              		.cfi_startproc
 2548              		@ args = 0, pretend = 0, frame = 8
 2549              		@ frame_needed = 1, uses_anonymous_args = 0
 2550              		@ link register save eliminated.
 2551 0000 80B4     		push	{r7}
 2552              	.LCFI236:
 2553              		.cfi_def_cfa_offset 4
 2554              		.cfi_offset 7, -4
 2555 0002 83B0     		sub	sp, sp, #12
 2556              	.LCFI237:
 2557              		.cfi_def_cfa_offset 16
 2558 0004 00AF     		add	r7, sp, #0
 2559              	.LCFI238:
 2560              		.cfi_def_cfa_register 7
 2561 0006 7860     		str	r0, [r7, #4]
 2562 0008 0B46     		mov	r3, r1
 2563 000a FB70     		strb	r3, [r7, #3]
1019:../firmware/n32g430_std_periph_driver/src/n32g430_spi.c ****     return (((SPIx->STS & spi_i2s_flag) == spi_i2s_flag) ? SET : RESET);  
 2564              		.loc 1 1019 19
 2565 000c 7B68     		ldr	r3, [r7, #4]
 2566 000e 1B89     		ldrh	r3, [r3, #8]	@ movhi
 2567 0010 9BB2     		uxth	r3, r3
 2568 0012 1A46     		mov	r2, r3
 2569              		.loc 1 1019 25
 2570 0014 FB78     		ldrb	r3, [r7, #3]	@ zero_extendqisi2
 2571 0016 1A40     		ands	r2, r2, r3
 2572              		.loc 1 1019 64
 2573 0018 FB78     		ldrb	r3, [r7, #3]	@ zero_extendqisi2
 2574 001a 9A42     		cmp	r2, r3
 2575 001c 0CBF     		ite	eq
 2576 001e 0123     		moveq	r3, #1
 2577 0020 0023     		movne	r3, #0
 2578 0022 DBB2     		uxtb	r3, r3
1020:../firmware/n32g430_std_periph_driver/src/n32g430_spi.c **** }
 2579              		.loc 1 1020 1
 2580 0024 1846     		mov	r0, r3
 2581 0026 0C37     		adds	r7, r7, #12
 2582              	.LCFI239:
 2583              		.cfi_def_cfa_offset 4
 2584 0028 BD46     		mov	sp, r7
 2585              	.LCFI240:
 2586              		.cfi_def_cfa_register 13
 2587              		@ sp needed
 2588 002a 5DF8047B 		ldr	r7, [sp], #4
 2589              	.LCFI241:
 2590              		.cfi_restore 7
 2591              		.cfi_def_cfa_offset 0
ARM GAS  C:\Users\ZShuai\AppData\Local\Temp\ccswPVQl.s 			page 63


 2592 002e 7047     		bx	lr
 2593              		.cfi_endproc
 2594              	.LFE170:
 2596              		.section	.text.SPI_I2S_Interrupt_Flag_Status_Get,"ax",%progbits
 2597              		.align	1
 2598              		.global	SPI_I2S_Interrupt_Flag_Status_Get
 2599              		.syntax unified
 2600              		.thumb
 2601              		.thumb_func
 2603              	SPI_I2S_Interrupt_Flag_Status_Get:
 2604              	.LFB171:
1021:../firmware/n32g430_std_periph_driver/src/n32g430_spi.c **** 
1022:../firmware/n32g430_std_periph_driver/src/n32g430_spi.c **** /**
1023:../firmware/n32g430_std_periph_driver/src/n32g430_spi.c **** *\*\name    SPI_I2S_Interrupt_Flag_Status_Get.
1024:../firmware/n32g430_std_periph_driver/src/n32g430_spi.c **** *\*\fun     Get SPI/I2S Interrupt flag status.
1025:../firmware/n32g430_std_periph_driver/src/n32g430_spi.c **** *\*\param   SPIx :
1026:../firmware/n32g430_std_periph_driver/src/n32g430_spi.c **** *\*\          - SPI1
1027:../firmware/n32g430_std_periph_driver/src/n32g430_spi.c **** *\*\          - SPI2
1028:../firmware/n32g430_std_periph_driver/src/n32g430_spi.c **** *\*\param   spi_i2s_flag :
1029:../firmware/n32g430_std_periph_driver/src/n32g430_spi.c **** *\*\          - SPI_I2S_INT_FLAG_RNE
1030:../firmware/n32g430_std_periph_driver/src/n32g430_spi.c **** *\*\          - SPI_I2S_INT_FLAG_TE
1031:../firmware/n32g430_std_periph_driver/src/n32g430_spi.c **** *\*\          - I2S_INT_FLAG_UNDER
1032:../firmware/n32g430_std_periph_driver/src/n32g430_spi.c **** *\*\          - SPI_INT_FLAG_CRCERR
1033:../firmware/n32g430_std_periph_driver/src/n32g430_spi.c **** *\*\          - SPI_INT_FLAG_MODERR
1034:../firmware/n32g430_std_periph_driver/src/n32g430_spi.c **** *\*\          - SPI_I2S_INT_FLAG_OVER
1035:../firmware/n32g430_std_periph_driver/src/n32g430_spi.c **** *\*\          - SPI_I2S_INT_FLAG_ERR
1036:../firmware/n32g430_std_periph_driver/src/n32g430_spi.c **** *\*\return  SET or RESET
1037:../firmware/n32g430_std_periph_driver/src/n32g430_spi.c **** **/
1038:../firmware/n32g430_std_periph_driver/src/n32g430_spi.c **** 
1039:../firmware/n32g430_std_periph_driver/src/n32g430_spi.c **** FlagStatus SPI_I2S_Interrupt_Flag_Status_Get(SPI_Module* SPIx, uint16_t spi_i2s_flag)
1040:../firmware/n32g430_std_periph_driver/src/n32g430_spi.c **** {
 2605              		.loc 1 1040 1
 2606              		.cfi_startproc
 2607              		@ args = 0, pretend = 0, frame = 8
 2608              		@ frame_needed = 1, uses_anonymous_args = 0
 2609              		@ link register save eliminated.
 2610 0000 80B4     		push	{r7}
 2611              	.LCFI242:
 2612              		.cfi_def_cfa_offset 4
 2613              		.cfi_offset 7, -4
 2614 0002 83B0     		sub	sp, sp, #12
 2615              	.LCFI243:
 2616              		.cfi_def_cfa_offset 16
 2617 0004 00AF     		add	r7, sp, #0
 2618              	.LCFI244:
 2619              		.cfi_def_cfa_register 7
 2620 0006 7860     		str	r0, [r7, #4]
 2621 0008 0B46     		mov	r3, r1
 2622 000a 7B80     		strh	r3, [r7, #2]	@ movhi
1041:../firmware/n32g430_std_periph_driver/src/n32g430_spi.c ****     /* Interrupt flag */
1042:../firmware/n32g430_std_periph_driver/src/n32g430_spi.c ****     switch (spi_i2s_flag)
 2623              		.loc 1 1042 5
 2624 000c 7B88     		ldrh	r3, [r7, #2]
 2625 000e 782B     		cmp	r3, #120
 2626 0010 73D0     		beq	.L68
 2627 0012 782B     		cmp	r3, #120
 2628 0014 00F38480 		bgt	.L69
ARM GAS  C:\Users\ZShuai\AppData\Local\Temp\ccswPVQl.s 			page 64


 2629 0018 202B     		cmp	r3, #32
 2630 001a 47DC     		bgt	.L70
 2631 001c 002B     		cmp	r3, #0
 2632 001e 7FDD     		ble	.L69
 2633 0020 013B     		subs	r3, r3, #1
 2634 0022 1F2B     		cmp	r3, #31
 2635 0024 7CD8     		bhi	.L69
 2636 0026 01A2     		adr	r2, .L71
 2637 0028 52F823F0 		ldr	pc, [r2, r3, lsl #2]
 2638              		.p2align 2
 2639              	.L71:
 2640 002c D7000000 		.word	.L73+1
 2641 0030 B3000000 		.word	.L72+1
 2642 0034 21010000 		.word	.L69+1
 2643 0038 21010000 		.word	.L69+1
 2644 003c 21010000 		.word	.L69+1
 2645 0040 21010000 		.word	.L69+1
 2646 0044 21010000 		.word	.L69+1
 2647 0048 FB000000 		.word	.L68+1
 2648 004c 21010000 		.word	.L69+1
 2649 0050 21010000 		.word	.L69+1
 2650 0054 21010000 		.word	.L69+1
 2651 0058 21010000 		.word	.L69+1
 2652 005c 21010000 		.word	.L69+1
 2653 0060 21010000 		.word	.L69+1
 2654 0064 21010000 		.word	.L69+1
 2655 0068 FB000000 		.word	.L68+1
 2656 006c 21010000 		.word	.L69+1
 2657 0070 21010000 		.word	.L69+1
 2658 0074 21010000 		.word	.L69+1
 2659 0078 21010000 		.word	.L69+1
 2660 007c 21010000 		.word	.L69+1
 2661 0080 21010000 		.word	.L69+1
 2662 0084 21010000 		.word	.L69+1
 2663 0088 21010000 		.word	.L69+1
 2664 008c 21010000 		.word	.L69+1
 2665 0090 21010000 		.word	.L69+1
 2666 0094 21010000 		.word	.L69+1
 2667 0098 21010000 		.word	.L69+1
 2668 009c 21010000 		.word	.L69+1
 2669 00a0 21010000 		.word	.L69+1
 2670 00a4 21010000 		.word	.L69+1
 2671 00a8 FB000000 		.word	.L68+1
 2672              		.p2align 1
 2673              	.L70:
 2674 00ac 402B     		cmp	r3, #64
 2675 00ae 24D0     		beq	.L68
 2676 00b0 36E0     		b	.L69
 2677              	.L72:
1043:../firmware/n32g430_std_periph_driver/src/n32g430_spi.c ****     {
1044:../firmware/n32g430_std_periph_driver/src/n32g430_spi.c ****         case SPI_I2S_INT_FLAG_TE:
1045:../firmware/n32g430_std_periph_driver/src/n32g430_spi.c ****             if((SPIx->CTRL2 & SPI_I2S_INT_TE) == SPI_I2S_INT_TE && (SPIx->STS & SPI_I2S_INT_FLAG_TE
 2678              		.loc 1 1045 21
 2679 00b2 7B68     		ldr	r3, [r7, #4]
 2680 00b4 9B88     		ldrh	r3, [r3, #4]	@ movhi
 2681 00b6 9BB2     		uxth	r3, r3
 2682              		.loc 1 1045 29
ARM GAS  C:\Users\ZShuai\AppData\Local\Temp\ccswPVQl.s 			page 65


 2683 00b8 03F08003 		and	r3, r3, #128
 2684              		.loc 1 1045 15
 2685 00bc 802B     		cmp	r3, #128
 2686 00be 08D1     		bne	.L74
 2687              		.loc 1 1045 73 discriminator 1
 2688 00c0 7B68     		ldr	r3, [r7, #4]
 2689 00c2 1B89     		ldrh	r3, [r3, #8]	@ movhi
 2690 00c4 9BB2     		uxth	r3, r3
 2691              		.loc 1 1045 79 discriminator 1
 2692 00c6 03F00203 		and	r3, r3, #2
 2693              		.loc 1 1045 65 discriminator 1
 2694 00ca 022B     		cmp	r3, #2
 2695 00cc 01D1     		bne	.L74
1046:../firmware/n32g430_std_periph_driver/src/n32g430_spi.c ****             {
1047:../firmware/n32g430_std_periph_driver/src/n32g430_spi.c ****                 return SET;
 2696              		.loc 1 1047 24
 2697 00ce 0123     		movs	r3, #1
 2698 00d0 27E0     		b	.L75
 2699              	.L74:
1048:../firmware/n32g430_std_periph_driver/src/n32g430_spi.c ****             }
1049:../firmware/n32g430_std_periph_driver/src/n32g430_spi.c ****             else
1050:../firmware/n32g430_std_periph_driver/src/n32g430_spi.c ****             {
1051:../firmware/n32g430_std_periph_driver/src/n32g430_spi.c ****                 return RESET;
 2700              		.loc 1 1051 24
 2701 00d2 0023     		movs	r3, #0
 2702 00d4 25E0     		b	.L75
 2703              	.L73:
1052:../firmware/n32g430_std_periph_driver/src/n32g430_spi.c ****             }
1053:../firmware/n32g430_std_periph_driver/src/n32g430_spi.c ****         case SPI_I2S_INT_FLAG_RNE:
1054:../firmware/n32g430_std_periph_driver/src/n32g430_spi.c ****             if((SPIx->CTRL2 & SPI_I2S_INT_RNE) && (SPIx->STS & SPI_I2S_INT_FLAG_RNE))
 2704              		.loc 1 1054 21
 2705 00d6 7B68     		ldr	r3, [r7, #4]
 2706 00d8 9B88     		ldrh	r3, [r3, #4]	@ movhi
 2707 00da 9BB2     		uxth	r3, r3
 2708              		.loc 1 1054 29
 2709 00dc 03F04003 		and	r3, r3, #64
 2710              		.loc 1 1054 15
 2711 00e0 002B     		cmp	r3, #0
 2712 00e2 08D0     		beq	.L76
 2713              		.loc 1 1054 56 discriminator 1
 2714 00e4 7B68     		ldr	r3, [r7, #4]
 2715 00e6 1B89     		ldrh	r3, [r3, #8]	@ movhi
 2716 00e8 9BB2     		uxth	r3, r3
 2717              		.loc 1 1054 62 discriminator 1
 2718 00ea 03F00103 		and	r3, r3, #1
 2719              		.loc 1 1054 48 discriminator 1
 2720 00ee 002B     		cmp	r3, #0
 2721 00f0 01D0     		beq	.L76
1055:../firmware/n32g430_std_periph_driver/src/n32g430_spi.c ****             {
1056:../firmware/n32g430_std_periph_driver/src/n32g430_spi.c ****                 return SET;
 2722              		.loc 1 1056 24
 2723 00f2 0123     		movs	r3, #1
 2724 00f4 15E0     		b	.L75
 2725              	.L76:
1057:../firmware/n32g430_std_periph_driver/src/n32g430_spi.c ****             }
1058:../firmware/n32g430_std_periph_driver/src/n32g430_spi.c ****             else
1059:../firmware/n32g430_std_periph_driver/src/n32g430_spi.c ****             {
ARM GAS  C:\Users\ZShuai\AppData\Local\Temp\ccswPVQl.s 			page 66


1060:../firmware/n32g430_std_periph_driver/src/n32g430_spi.c ****                 return RESET;
 2726              		.loc 1 1060 24
 2727 00f6 0023     		movs	r3, #0
 2728 00f8 13E0     		b	.L75
 2729              	.L68:
1061:../firmware/n32g430_std_periph_driver/src/n32g430_spi.c ****             }
1062:../firmware/n32g430_std_periph_driver/src/n32g430_spi.c ****         case SPI_I2S_INT_FLAG_ERR:
1063:../firmware/n32g430_std_periph_driver/src/n32g430_spi.c ****         case I2S_INT_FLAG_UNDER:    
1064:../firmware/n32g430_std_periph_driver/src/n32g430_spi.c ****         case SPI_INT_FLAG_CRCERR:   
1065:../firmware/n32g430_std_periph_driver/src/n32g430_spi.c ****         case SPI_INT_FLAG_MODERR:   
1066:../firmware/n32g430_std_periph_driver/src/n32g430_spi.c ****         case SPI_I2S_INT_FLAG_OVER:
1067:../firmware/n32g430_std_periph_driver/src/n32g430_spi.c ****             if((SPIx->CTRL2 & SPI_I2S_INT_ERR) && (SPIx->STS & spi_i2s_flag))
 2730              		.loc 1 1067 21
 2731 00fa 7B68     		ldr	r3, [r7, #4]
 2732 00fc 9B88     		ldrh	r3, [r3, #4]	@ movhi
 2733 00fe 9BB2     		uxth	r3, r3
 2734              		.loc 1 1067 29
 2735 0100 03F02003 		and	r3, r3, #32
 2736              		.loc 1 1067 15
 2737 0104 002B     		cmp	r3, #0
 2738 0106 09D0     		beq	.L77
 2739              		.loc 1 1067 56 discriminator 1
 2740 0108 7B68     		ldr	r3, [r7, #4]
 2741 010a 1B89     		ldrh	r3, [r3, #8]	@ movhi
 2742 010c 9AB2     		uxth	r2, r3
 2743              		.loc 1 1067 48 discriminator 1
 2744 010e 7B88     		ldrh	r3, [r7, #2]	@ movhi
 2745 0110 1340     		ands	r3, r3, r2
 2746 0112 9BB2     		uxth	r3, r3
 2747 0114 002B     		cmp	r3, #0
 2748 0116 01D0     		beq	.L77
1068:../firmware/n32g430_std_periph_driver/src/n32g430_spi.c ****             {
1069:../firmware/n32g430_std_periph_driver/src/n32g430_spi.c ****                 return SET;
 2749              		.loc 1 1069 24
 2750 0118 0123     		movs	r3, #1
 2751 011a 02E0     		b	.L75
 2752              	.L77:
1070:../firmware/n32g430_std_periph_driver/src/n32g430_spi.c ****             }
1071:../firmware/n32g430_std_periph_driver/src/n32g430_spi.c ****             else
1072:../firmware/n32g430_std_periph_driver/src/n32g430_spi.c ****             {
1073:../firmware/n32g430_std_periph_driver/src/n32g430_spi.c ****                 return RESET;
 2753              		.loc 1 1073 24
 2754 011c 0023     		movs	r3, #0
 2755 011e 00E0     		b	.L75
 2756              	.L69:
1074:../firmware/n32g430_std_periph_driver/src/n32g430_spi.c ****             }
1075:../firmware/n32g430_std_periph_driver/src/n32g430_spi.c ****         default:
1076:../firmware/n32g430_std_periph_driver/src/n32g430_spi.c ****            return RESET;
 2757              		.loc 1 1076 19
 2758 0120 0023     		movs	r3, #0
 2759              	.L75:
1077:../firmware/n32g430_std_periph_driver/src/n32g430_spi.c ****     }
1078:../firmware/n32g430_std_periph_driver/src/n32g430_spi.c **** }
 2760              		.loc 1 1078 1
 2761 0122 1846     		mov	r0, r3
 2762 0124 0C37     		adds	r7, r7, #12
 2763              	.LCFI245:
ARM GAS  C:\Users\ZShuai\AppData\Local\Temp\ccswPVQl.s 			page 67


 2764              		.cfi_def_cfa_offset 4
 2765 0126 BD46     		mov	sp, r7
 2766              	.LCFI246:
 2767              		.cfi_def_cfa_register 13
 2768              		@ sp needed
 2769 0128 5DF8047B 		ldr	r7, [sp], #4
 2770              	.LCFI247:
 2771              		.cfi_restore 7
 2772              		.cfi_def_cfa_offset 0
 2773 012c 7047     		bx	lr
 2774              		.cfi_endproc
 2775              	.LFE171:
 2777 012e 00BF     		.section	.text.SPI_I2S_Clear_Flag_Status,"ax",%progbits
 2778              		.align	1
 2779              		.global	SPI_I2S_Clear_Flag_Status
 2780              		.syntax unified
 2781              		.thumb
 2782              		.thumb_func
 2784              	SPI_I2S_Clear_Flag_Status:
 2785              	.LFB172:
1079:../firmware/n32g430_std_periph_driver/src/n32g430_spi.c **** 
1080:../firmware/n32g430_std_periph_driver/src/n32g430_spi.c **** 
1081:../firmware/n32g430_std_periph_driver/src/n32g430_spi.c **** /**
1082:../firmware/n32g430_std_periph_driver/src/n32g430_spi.c **** *\*\name    SPI_I2S_Clear_Flag_Status.
1083:../firmware/n32g430_std_periph_driver/src/n32g430_spi.c **** *\*\fun     Clear SPI/I2S flag status.
1084:../firmware/n32g430_std_periph_driver/src/n32g430_spi.c **** *\*\param   SPIx :
1085:../firmware/n32g430_std_periph_driver/src/n32g430_spi.c **** *\*\          - SPI1
1086:../firmware/n32g430_std_periph_driver/src/n32g430_spi.c **** *\*\          - SPI2
1087:../firmware/n32g430_std_periph_driver/src/n32g430_spi.c **** *\*\param   spi_i2s_flag :
1088:../firmware/n32g430_std_periph_driver/src/n32g430_spi.c **** *\*\          - SPI_I2S_FLAG_OVER
1089:../firmware/n32g430_std_periph_driver/src/n32g430_spi.c **** *\*\          - SPI_FLAG_CRCERR
1090:../firmware/n32g430_std_periph_driver/src/n32g430_spi.c **** *\*\          - I2S_FLAG_UNDER
1091:../firmware/n32g430_std_periph_driver/src/n32g430_spi.c **** *\*\return  none
1092:../firmware/n32g430_std_periph_driver/src/n32g430_spi.c **** *\*\note
1093:../firmware/n32g430_std_periph_driver/src/n32g430_spi.c **** *\*\ - OVER (OverRun error) flag is cleared by software sequence: a read
1094:../firmware/n32g430_std_periph_driver/src/n32g430_spi.c **** *\*\        operation to SPI_DAT register (SPI_I2S_Data_Get()) followed by a read
1095:../firmware/n32g430_std_periph_driver/src/n32g430_spi.c **** *\*\        operation to SPI_STS register (SPI_I2S_Flag_Status_Get()).
1096:../firmware/n32g430_std_periph_driver/src/n32g430_spi.c **** *\*\ - UNDER (UnderRun error) flag is cleared by a read operation to 
1097:../firmware/n32g430_std_periph_driver/src/n32g430_spi.c **** *\*\        SPI_STS register (SPI_I2S_Flag_Status_Get()).
1098:../firmware/n32g430_std_periph_driver/src/n32g430_spi.c **** *\*\ - MODERR (Mode error) flag is cleared by software sequence: a read/write
1099:../firmware/n32g430_std_periph_driver/src/n32g430_spi.c **** *\*\       operation to SPI_STS register (SPI_I2S_Flag_Status_Get()) followed by a
1100:../firmware/n32g430_std_periph_driver/src/n32g430_spi.c **** *\*\       write operation to SPI_CTRL1 register (SPI_ON() to enable the SPI).
1101:../firmware/n32g430_std_periph_driver/src/n32g430_spi.c **** **/
1102:../firmware/n32g430_std_periph_driver/src/n32g430_spi.c **** void SPI_I2S_Clear_Flag_Status(SPI_Module* SPIx, uint16_t spi_i2s_flag)
1103:../firmware/n32g430_std_periph_driver/src/n32g430_spi.c **** {
 2786              		.loc 1 1103 1
 2787              		.cfi_startproc
 2788              		@ args = 0, pretend = 0, frame = 16
 2789              		@ frame_needed = 1, uses_anonymous_args = 0
 2790              		@ link register save eliminated.
 2791 0000 80B4     		push	{r7}
 2792              	.LCFI248:
 2793              		.cfi_def_cfa_offset 4
 2794              		.cfi_offset 7, -4
 2795 0002 85B0     		sub	sp, sp, #20
 2796              	.LCFI249:
 2797              		.cfi_def_cfa_offset 24
ARM GAS  C:\Users\ZShuai\AppData\Local\Temp\ccswPVQl.s 			page 68


 2798 0004 00AF     		add	r7, sp, #0
 2799              	.LCFI250:
 2800              		.cfi_def_cfa_register 7
 2801 0006 7860     		str	r0, [r7, #4]
 2802 0008 0B46     		mov	r3, r1
 2803 000a 7B80     		strh	r3, [r7, #2]	@ movhi
1104:../firmware/n32g430_std_periph_driver/src/n32g430_spi.c ****     volatile u8 temp_vlue;
1105:../firmware/n32g430_std_periph_driver/src/n32g430_spi.c ****     switch (spi_i2s_flag)
 2804              		.loc 1 1105 5
 2805 000c 7B88     		ldrh	r3, [r7, #2]
 2806 000e 402B     		cmp	r3, #64
 2807 0010 16D0     		beq	.L81
 2808 0012 402B     		cmp	r3, #64
 2809 0014 1FDC     		bgt	.L85
 2810 0016 082B     		cmp	r3, #8
 2811 0018 0CD0     		beq	.L83
 2812 001a 102B     		cmp	r3, #16
 2813 001c 1BD1     		bne	.L85
1106:../firmware/n32g430_std_periph_driver/src/n32g430_spi.c ****     {
1107:../firmware/n32g430_std_periph_driver/src/n32g430_spi.c ****       case SPI_FLAG_CRCERR:
1108:../firmware/n32g430_std_periph_driver/src/n32g430_spi.c ****         /* Clear the selected SPI CRC Error (CRCERR) flag */
1109:../firmware/n32g430_std_periph_driver/src/n32g430_spi.c ****             SPIx->STS &= (uint16_t)(~spi_i2s_flag);
 2814              		.loc 1 1109 17
 2815 001e 7B68     		ldr	r3, [r7, #4]
 2816 0020 1B89     		ldrh	r3, [r3, #8]	@ movhi
 2817 0022 9AB2     		uxth	r2, r3
 2818              		.loc 1 1109 26
 2819 0024 7B88     		ldrh	r3, [r7, #2]	@ movhi
 2820 0026 DB43     		mvns	r3, r3
 2821 0028 9BB2     		uxth	r3, r3
 2822              		.loc 1 1109 23
 2823 002a 1340     		ands	r3, r3, r2
 2824 002c 9AB2     		uxth	r2, r3
 2825 002e 7B68     		ldr	r3, [r7, #4]
 2826 0030 1A81     		strh	r2, [r3, #8]	@ movhi
1110:../firmware/n32g430_std_periph_driver/src/n32g430_spi.c ****         break;
 2827              		.loc 1 1110 9
 2828 0032 11E0     		b	.L84
 2829              	.L83:
1111:../firmware/n32g430_std_periph_driver/src/n32g430_spi.c ****       case I2S_FLAG_UNDER:
1112:../firmware/n32g430_std_periph_driver/src/n32g430_spi.c ****            temp_vlue = SPIx->STS;
 2830              		.loc 1 1112 28
 2831 0034 7B68     		ldr	r3, [r7, #4]
 2832 0036 1B89     		ldrh	r3, [r3, #8]	@ movhi
 2833 0038 9BB2     		uxth	r3, r3
 2834              		.loc 1 1112 22
 2835 003a DBB2     		uxtb	r3, r3
 2836 003c FB73     		strb	r3, [r7, #15]
1113:../firmware/n32g430_std_periph_driver/src/n32g430_spi.c ****         break;
 2837              		.loc 1 1113 9
 2838 003e 0BE0     		b	.L84
 2839              	.L81:
1114:../firmware/n32g430_std_periph_driver/src/n32g430_spi.c ****       case SPI_I2S_FLAG_OVER:
1115:../firmware/n32g430_std_periph_driver/src/n32g430_spi.c ****         /* read SPI_DAT and SPI_STS to Clear the Flag */
1116:../firmware/n32g430_std_periph_driver/src/n32g430_spi.c ****            temp_vlue = SPIx->DAT;
 2840              		.loc 1 1116 28
 2841 0040 7B68     		ldr	r3, [r7, #4]
ARM GAS  C:\Users\ZShuai\AppData\Local\Temp\ccswPVQl.s 			page 69


 2842 0042 9B89     		ldrh	r3, [r3, #12]	@ movhi
 2843 0044 9BB2     		uxth	r3, r3
 2844              		.loc 1 1116 22
 2845 0046 DBB2     		uxtb	r3, r3
 2846 0048 FB73     		strb	r3, [r7, #15]
1117:../firmware/n32g430_std_periph_driver/src/n32g430_spi.c ****            temp_vlue = SPIx->STS;
 2847              		.loc 1 1117 28
 2848 004a 7B68     		ldr	r3, [r7, #4]
 2849 004c 1B89     		ldrh	r3, [r3, #8]	@ movhi
 2850 004e 9BB2     		uxth	r3, r3
 2851              		.loc 1 1117 22
 2852 0050 DBB2     		uxtb	r3, r3
 2853 0052 FB73     		strb	r3, [r7, #15]
1118:../firmware/n32g430_std_periph_driver/src/n32g430_spi.c ****         break;  
 2854              		.loc 1 1118 9
 2855 0054 00E0     		b	.L84
 2856              	.L85:
1119:../firmware/n32g430_std_periph_driver/src/n32g430_spi.c ****       default:
1120:../firmware/n32g430_std_periph_driver/src/n32g430_spi.c ****         break;
 2857              		.loc 1 1120 9
 2858 0056 00BF     		nop
 2859              	.L84:
1121:../firmware/n32g430_std_periph_driver/src/n32g430_spi.c ****     }
1122:../firmware/n32g430_std_periph_driver/src/n32g430_spi.c **** }
 2860              		.loc 1 1122 1
 2861 0058 00BF     		nop
 2862 005a 1437     		adds	r7, r7, #20
 2863              	.LCFI251:
 2864              		.cfi_def_cfa_offset 4
 2865 005c BD46     		mov	sp, r7
 2866              	.LCFI252:
 2867              		.cfi_def_cfa_register 13
 2868              		@ sp needed
 2869 005e 5DF8047B 		ldr	r7, [sp], #4
 2870              	.LCFI253:
 2871              		.cfi_restore 7
 2872              		.cfi_def_cfa_offset 0
 2873 0062 7047     		bx	lr
 2874              		.cfi_endproc
 2875              	.LFE172:
 2877              		.text
 2878              	.Letext0:
 2879              		.file 2 "d:\\program files (x86)\\arm gnu toolchain arm-none-eabi\\12.3 rel1\\arm-none-eabi\\inclu
 2880              		.file 3 "d:\\program files (x86)\\arm gnu toolchain arm-none-eabi\\12.3 rel1\\arm-none-eabi\\inclu
 2881              		.file 4 "../firmware/CMSIS/device/n32g430.h"
 2882              		.file 5 "../firmware/n32g430_std_periph_driver/inc/n32g430_rcc.h"
 2883              		.file 6 "../firmware/n32g430_std_periph_driver/inc/n32g430_spi.h"
ARM GAS  C:\Users\ZShuai\AppData\Local\Temp\ccswPVQl.s 			page 70

