ARM GAS  C:\Users\ZShuai\AppData\Local\Temp\ccV30ir9.s 			page 1


   1              		.cpu cortex-m4
   2              		.arch armv7e-m
   3              		.fpu fpv4-sp-d16
   4              		.eabi_attribute 27, 1
   5              		.eabi_attribute 28, 1
   6              		.eabi_attribute 20, 1
   7              		.eabi_attribute 21, 1
   8              		.eabi_attribute 23, 3
   9              		.eabi_attribute 24, 1
  10              		.eabi_attribute 25, 1
  11              		.eabi_attribute 26, 1
  12              		.eabi_attribute 30, 6
  13              		.eabi_attribute 34, 1
  14              		.eabi_attribute 18, 4
  15              		.file	"n32g430_comp.c"
  16              		.text
  17              	.Ltext0:
  18              		.cfi_sections	.debug_frame
  19              		.file 1 "../firmware/n32g430_std_periph_driver/src/n32g430_comp.c"
  20              		.section	.text.COMP_Reset,"ax",%progbits
  21              		.align	1
  22              		.global	COMP_Reset
  23              		.syntax unified
  24              		.thumb
  25              		.thumb_func
  27              	COMP_Reset:
  28              	.LFB130:
   1:../firmware/n32g430_std_periph_driver/src/n32g430_comp.c **** /**
   2:../firmware/n32g430_std_periph_driver/src/n32g430_comp.c **** *     Copyright (c) 2022, Nations Technologies Inc.
   3:../firmware/n32g430_std_periph_driver/src/n32g430_comp.c **** * 
   4:../firmware/n32g430_std_periph_driver/src/n32g430_comp.c **** *     All rights reserved.
   5:../firmware/n32g430_std_periph_driver/src/n32g430_comp.c **** *
   6:../firmware/n32g430_std_periph_driver/src/n32g430_comp.c **** *     This software is the exclusive property of Nations Technologies Inc. (Hereinafter 
   7:../firmware/n32g430_std_periph_driver/src/n32g430_comp.c **** * referred to as NATIONS). This software, and the product of NATIONS described herein 
   8:../firmware/n32g430_std_periph_driver/src/n32g430_comp.c **** * (Hereinafter referred to as the Product) are owned by NATIONS under the laws and treaties
   9:../firmware/n32g430_std_periph_driver/src/n32g430_comp.c **** * of the People¡¯s Republic of China and other applicable jurisdictions worldwide.
  10:../firmware/n32g430_std_periph_driver/src/n32g430_comp.c **** *
  11:../firmware/n32g430_std_periph_driver/src/n32g430_comp.c **** *     NATIONS does not grant any license under its patents, copyrights, trademarks, or other 
  12:../firmware/n32g430_std_periph_driver/src/n32g430_comp.c **** * intellectual property rights. Names and brands of third party may be mentioned or referred 
  13:../firmware/n32g430_std_periph_driver/src/n32g430_comp.c **** * thereto (if any) for identification purposes only.
  14:../firmware/n32g430_std_periph_driver/src/n32g430_comp.c **** *
  15:../firmware/n32g430_std_periph_driver/src/n32g430_comp.c **** *     NATIONS reserves the right to make changes, corrections, enhancements, modifications, and 
  16:../firmware/n32g430_std_periph_driver/src/n32g430_comp.c **** * improvements to this software at any time without notice. Please contact NATIONS and obtain 
  17:../firmware/n32g430_std_periph_driver/src/n32g430_comp.c **** * the latest version of this software before placing orders.
  18:../firmware/n32g430_std_periph_driver/src/n32g430_comp.c **** 
  19:../firmware/n32g430_std_periph_driver/src/n32g430_comp.c **** *     Although NATIONS has attempted to provide accurate and reliable information, NATIONS assumes 
  20:../firmware/n32g430_std_periph_driver/src/n32g430_comp.c **** * no responsibility for the accuracy and reliability of this software.
  21:../firmware/n32g430_std_periph_driver/src/n32g430_comp.c **** * 
  22:../firmware/n32g430_std_periph_driver/src/n32g430_comp.c **** *     It is the responsibility of the user of this software to properly design, program, and test 
  23:../firmware/n32g430_std_periph_driver/src/n32g430_comp.c **** * the functionality and safety of any application made of this information and any resulting produc
  24:../firmware/n32g430_std_periph_driver/src/n32g430_comp.c **** * In no event shall NATIONS be liable for any direct, indirect, incidental, special,exemplary, or 
  25:../firmware/n32g430_std_periph_driver/src/n32g430_comp.c **** * consequential damages arising in any way out of the use of this software or the Product.
  26:../firmware/n32g430_std_periph_driver/src/n32g430_comp.c **** *
  27:../firmware/n32g430_std_periph_driver/src/n32g430_comp.c **** *     NATIONS Products are neither intended nor warranted for usage in systems or equipment, any
  28:../firmware/n32g430_std_periph_driver/src/n32g430_comp.c **** * malfunction or failure of which may cause loss of human life, bodily injury or severe property 
  29:../firmware/n32g430_std_periph_driver/src/n32g430_comp.c **** * damage. Such applications are deemed, ¡°Insecure Usage¡±.
  30:../firmware/n32g430_std_periph_driver/src/n32g430_comp.c **** *
ARM GAS  C:\Users\ZShuai\AppData\Local\Temp\ccV30ir9.s 			page 2


  31:../firmware/n32g430_std_periph_driver/src/n32g430_comp.c **** *     All Insecure Usage shall be made at user¡¯s risk. User shall indemnify NATIONS and hold NATIO
  32:../firmware/n32g430_std_periph_driver/src/n32g430_comp.c **** * harmless from and against all claims, costs, damages, and other liabilities, arising from or rela
  33:../firmware/n32g430_std_periph_driver/src/n32g430_comp.c **** * to any customer¡¯s Insecure Usage.
  34:../firmware/n32g430_std_periph_driver/src/n32g430_comp.c **** 
  35:../firmware/n32g430_std_periph_driver/src/n32g430_comp.c **** *     Any express or implied warranty with regard to this software or the Product, including,but no
  36:../firmware/n32g430_std_periph_driver/src/n32g430_comp.c **** * limited to, the warranties of merchantability, fitness for a particular purpose and non-infringem
  37:../firmware/n32g430_std_periph_driver/src/n32g430_comp.c **** * are disclaimed to the fullest extent permitted by law.
  38:../firmware/n32g430_std_periph_driver/src/n32g430_comp.c **** 
  39:../firmware/n32g430_std_periph_driver/src/n32g430_comp.c **** *     Unless otherwise explicitly permitted by NATIONS, anyone may not duplicate, modify, transcrib
  40:../firmware/n32g430_std_periph_driver/src/n32g430_comp.c **** * or otherwise distribute this software for any purposes, in whole or in part.
  41:../firmware/n32g430_std_periph_driver/src/n32g430_comp.c **** *
  42:../firmware/n32g430_std_periph_driver/src/n32g430_comp.c **** *     NATIONS products and technologies shall not be used for or incorporated into any products or 
  43:../firmware/n32g430_std_periph_driver/src/n32g430_comp.c **** * whose manufacture, use, or sale is prohibited under any applicable domestic or foreign laws or re
  44:../firmware/n32g430_std_periph_driver/src/n32g430_comp.c **** * User shall comply with any applicable export control laws and regulations promulgated and adminis
  45:../firmware/n32g430_std_periph_driver/src/n32g430_comp.c **** * the governments of any countries asserting jurisdiction over the parties or transactions.
  46:../firmware/n32g430_std_periph_driver/src/n32g430_comp.c **** **/
  47:../firmware/n32g430_std_periph_driver/src/n32g430_comp.c **** 
  48:../firmware/n32g430_std_periph_driver/src/n32g430_comp.c **** /**
  49:../firmware/n32g430_std_periph_driver/src/n32g430_comp.c **** *\*\file n32g430_comp.c
  50:../firmware/n32g430_std_periph_driver/src/n32g430_comp.c **** *\*\author Nations
  51:../firmware/n32g430_std_periph_driver/src/n32g430_comp.c **** *\*\version v1.0.1
  52:../firmware/n32g430_std_periph_driver/src/n32g430_comp.c **** *\*\copyright Copyright (c) 2022, Nations Technologies Inc. All rights reserved.
  53:../firmware/n32g430_std_periph_driver/src/n32g430_comp.c **** **/
  54:../firmware/n32g430_std_periph_driver/src/n32g430_comp.c **** 
  55:../firmware/n32g430_std_periph_driver/src/n32g430_comp.c **** #include "n32g430_comp.h"
  56:../firmware/n32g430_std_periph_driver/src/n32g430_comp.c **** #include "n32g430_rcc.h"
  57:../firmware/n32g430_std_periph_driver/src/n32g430_comp.c **** 
  58:../firmware/n32g430_std_periph_driver/src/n32g430_comp.c **** 
  59:../firmware/n32g430_std_periph_driver/src/n32g430_comp.c **** /** COMP Driving Functions Declaration**/
  60:../firmware/n32g430_std_periph_driver/src/n32g430_comp.c **** 
  61:../firmware/n32g430_std_periph_driver/src/n32g430_comp.c **** 
  62:../firmware/n32g430_std_periph_driver/src/n32g430_comp.c **** /**
  63:../firmware/n32g430_std_periph_driver/src/n32g430_comp.c **** *\*\name    COMP_Reset.
  64:../firmware/n32g430_std_periph_driver/src/n32g430_comp.c **** *\*\fun     Reset the COMP registers.
  65:../firmware/n32g430_std_periph_driver/src/n32g430_comp.c **** *\*\return  none
  66:../firmware/n32g430_std_periph_driver/src/n32g430_comp.c **** **/
  67:../firmware/n32g430_std_periph_driver/src/n32g430_comp.c **** void COMP_Reset(void)
  68:../firmware/n32g430_std_periph_driver/src/n32g430_comp.c **** {
  29              		.loc 1 68 1
  30              		.cfi_startproc
  31              		@ args = 0, pretend = 0, frame = 0
  32              		@ frame_needed = 1, uses_anonymous_args = 0
  33 0000 80B5     		push	{r7, lr}
  34              	.LCFI0:
  35              		.cfi_def_cfa_offset 8
  36              		.cfi_offset 7, -8
  37              		.cfi_offset 14, -4
  38 0002 00AF     		add	r7, sp, #0
  39              	.LCFI1:
  40              		.cfi_def_cfa_register 7
  69:../firmware/n32g430_std_periph_driver/src/n32g430_comp.c ****     RCC_APB1_Peripheral_Reset(RCC_APB1_PERIPH_COMP);
  41              		.loc 1 69 5
  42 0004 4020     		movs	r0, #64
  43 0006 FFF7FEFF 		bl	RCC_APB1_Peripheral_Reset
  70:../firmware/n32g430_std_periph_driver/src/n32g430_comp.c ****     RCC_APB1_Peripheral_Reset(RCC_APB1_PERIPH_COMP_FILT);  
  44              		.loc 1 70 5
  45 000a 8020     		movs	r0, #128
ARM GAS  C:\Users\ZShuai\AppData\Local\Temp\ccV30ir9.s 			page 3


  46 000c FFF7FEFF 		bl	RCC_APB1_Peripheral_Reset
  71:../firmware/n32g430_std_periph_driver/src/n32g430_comp.c **** }
  47              		.loc 1 71 1
  48 0010 00BF     		nop
  49 0012 80BD     		pop	{r7, pc}
  50              		.cfi_endproc
  51              	.LFE130:
  53              		.section	.text.COMP_Initializes_Structure,"ax",%progbits
  54              		.align	1
  55              		.global	COMP_Initializes_Structure
  56              		.syntax unified
  57              		.thumb
  58              		.thumb_func
  60              	COMP_Initializes_Structure:
  61              	.LFB131:
  72:../firmware/n32g430_std_periph_driver/src/n32g430_comp.c **** 
  73:../firmware/n32g430_std_periph_driver/src/n32g430_comp.c **** /**
  74:../firmware/n32g430_std_periph_driver/src/n32g430_comp.c **** *\*\name    COMP_Initializes_Structure.
  75:../firmware/n32g430_std_periph_driver/src/n32g430_comp.c **** *\*\fun     Fills all COMP_initstruct member with default value.
  76:../firmware/n32g430_std_periph_driver/src/n32g430_comp.c **** *\*\param   COMP_initstruct :
  77:../firmware/n32g430_std_periph_driver/src/n32g430_comp.c **** *\*\          - Blking
  78:../firmware/n32g430_std_periph_driver/src/n32g430_comp.c **** *\*\          - Hyst
  79:../firmware/n32g430_std_periph_driver/src/n32g430_comp.c **** *\*\          - PolRev
  80:../firmware/n32g430_std_periph_driver/src/n32g430_comp.c **** *\*\          - OutSel
  81:../firmware/n32g430_std_periph_driver/src/n32g430_comp.c **** *\*\          - InpSel
  82:../firmware/n32g430_std_periph_driver/src/n32g430_comp.c **** *\*\          - InmSel
  83:../firmware/n32g430_std_periph_driver/src/n32g430_comp.c **** *\*\          - FilterEn
  84:../firmware/n32g430_std_periph_driver/src/n32g430_comp.c **** *\*\          - ClkPsc
  85:../firmware/n32g430_std_periph_driver/src/n32g430_comp.c **** *\*\          - SampWindow
  86:../firmware/n32g430_std_periph_driver/src/n32g430_comp.c **** *\*\          - Threshold
  87:../firmware/n32g430_std_periph_driver/src/n32g430_comp.c **** *\*\          - En
  88:../firmware/n32g430_std_periph_driver/src/n32g430_comp.c **** *\*\return  none
  89:../firmware/n32g430_std_periph_driver/src/n32g430_comp.c **** **/
  90:../firmware/n32g430_std_periph_driver/src/n32g430_comp.c **** void COMP_Initializes_Structure(COMP_InitType* COMP_initstruct)
  91:../firmware/n32g430_std_periph_driver/src/n32g430_comp.c **** {
  62              		.loc 1 91 1
  63              		.cfi_startproc
  64              		@ args = 0, pretend = 0, frame = 8
  65              		@ frame_needed = 1, uses_anonymous_args = 0
  66              		@ link register save eliminated.
  67 0000 80B4     		push	{r7}
  68              	.LCFI2:
  69              		.cfi_def_cfa_offset 4
  70              		.cfi_offset 7, -4
  71 0002 83B0     		sub	sp, sp, #12
  72              	.LCFI3:
  73              		.cfi_def_cfa_offset 16
  74 0004 00AF     		add	r7, sp, #0
  75              	.LCFI4:
  76              		.cfi_def_cfa_register 7
  77 0006 7860     		str	r0, [r7, #4]
  92:../firmware/n32g430_std_periph_driver/src/n32g430_comp.c ****     /* Reset COMP init structure parameters values */ 
  93:../firmware/n32g430_std_periph_driver/src/n32g430_comp.c ****     /* Initialize the Blking */
  94:../firmware/n32g430_std_periph_driver/src/n32g430_comp.c ****     COMP_initstruct->Blking            = COMP_BLANKING_NO;
  78              		.loc 1 94 40
  79 0008 7B68     		ldr	r3, [r7, #4]
  80 000a 0022     		movs	r2, #0
ARM GAS  C:\Users\ZShuai\AppData\Local\Temp\ccV30ir9.s 			page 4


  81 000c 1A60     		str	r2, [r3]
  95:../firmware/n32g430_std_periph_driver/src/n32g430_comp.c ****     /* Initialize the Hyst */
  96:../firmware/n32g430_std_periph_driver/src/n32g430_comp.c ****     COMP_initstruct->Hyst              = COMP_HYST_NO;
  82              		.loc 1 96 40
  83 000e 7B68     		ldr	r3, [r7, #4]
  84 0010 0022     		movs	r2, #0
  85 0012 5A60     		str	r2, [r3, #4]
  97:../firmware/n32g430_std_periph_driver/src/n32g430_comp.c ****     /* Initialize the PolRev */
  98:../firmware/n32g430_std_periph_driver/src/n32g430_comp.c ****     COMP_initstruct->PolRev            = COMP_OUTPOL_NFLIP;
  86              		.loc 1 98 40
  87 0014 7B68     		ldr	r3, [r7, #4]
  88 0016 0022     		movs	r2, #0
  89 0018 9A60     		str	r2, [r3, #8]
  99:../firmware/n32g430_std_periph_driver/src/n32g430_comp.c ****     /* Initialize the OutSel */
 100:../firmware/n32g430_std_periph_driver/src/n32g430_comp.c ****     COMP_initstruct->OutSel            = COMP_OUTSEL_RES;
  90              		.loc 1 100 40
  91 001a 7B68     		ldr	r3, [r7, #4]
  92 001c 0022     		movs	r2, #0
  93 001e DA60     		str	r2, [r3, #12]
 101:../firmware/n32g430_std_periph_driver/src/n32g430_comp.c ****     /* Initialize the InpSel */
 102:../firmware/n32g430_std_periph_driver/src/n32g430_comp.c ****     COMP_initstruct->InpSel            = COMP_INPSEL_RES;
  94              		.loc 1 102 40
  95 0020 7B68     		ldr	r3, [r7, #4]
  96 0022 0022     		movs	r2, #0
  97 0024 1A61     		str	r2, [r3, #16]
 103:../firmware/n32g430_std_periph_driver/src/n32g430_comp.c ****     /* Initialize the InmSel */
 104:../firmware/n32g430_std_periph_driver/src/n32g430_comp.c ****     COMP_initstruct->InmSel            = COMP_INMSEL_RES;
  98              		.loc 1 104 40
  99 0026 7B68     		ldr	r3, [r7, #4]
 100 0028 0022     		movs	r2, #0
 101 002a 5A61     		str	r2, [r3, #20]
 105:../firmware/n32g430_std_periph_driver/src/n32g430_comp.c ****     /* Initialize the FilterEn */
 106:../firmware/n32g430_std_periph_driver/src/n32g430_comp.c ****     COMP_initstruct->FilterEn          = DISABLE;
 102              		.loc 1 106 40
 103 002c 7B68     		ldr	r3, [r7, #4]
 104 002e 0022     		movs	r2, #0
 105 0030 9A77     		strb	r2, [r3, #30]
 107:../firmware/n32g430_std_periph_driver/src/n32g430_comp.c ****     /* Initialize the ClkPsc */
 108:../firmware/n32g430_std_periph_driver/src/n32g430_comp.c ****     COMP_initstruct->ClkPsc            = 0;
 106              		.loc 1 108 40
 107 0032 7B68     		ldr	r3, [r7, #4]
 108 0034 0022     		movs	r2, #0
 109 0036 1A84     		strh	r2, [r3, #32]	@ movhi
 109:../firmware/n32g430_std_periph_driver/src/n32g430_comp.c ****     /* Initialize the SampWindow */
 110:../firmware/n32g430_std_periph_driver/src/n32g430_comp.c ****     COMP_initstruct->SampWindow        = 0;
 110              		.loc 1 110 40
 111 0038 7B68     		ldr	r3, [r7, #4]
 112 003a 0022     		movs	r2, #0
 113 003c 1A77     		strb	r2, [r3, #28]
 111:../firmware/n32g430_std_periph_driver/src/n32g430_comp.c ****     /* Initialize the Threshold */
 112:../firmware/n32g430_std_periph_driver/src/n32g430_comp.c ****     COMP_initstruct->Threshold         = 0;
 114              		.loc 1 112 40
 115 003e 7B68     		ldr	r3, [r7, #4]
 116 0040 0022     		movs	r2, #0
 117 0042 5A77     		strb	r2, [r3, #29]
 113:../firmware/n32g430_std_periph_driver/src/n32g430_comp.c ****     /* Initialize the En */
 114:../firmware/n32g430_std_periph_driver/src/n32g430_comp.c ****     COMP_initstruct->En                = DISABLE;
ARM GAS  C:\Users\ZShuai\AppData\Local\Temp\ccV30ir9.s 			page 5


 118              		.loc 1 114 40
 119 0044 7B68     		ldr	r3, [r7, #4]
 120 0046 0022     		movs	r2, #0
 121 0048 9A61     		str	r2, [r3, #24]
 115:../firmware/n32g430_std_periph_driver/src/n32g430_comp.c **** }
 122              		.loc 1 115 1
 123 004a 00BF     		nop
 124 004c 0C37     		adds	r7, r7, #12
 125              	.LCFI5:
 126              		.cfi_def_cfa_offset 4
 127 004e BD46     		mov	sp, r7
 128              	.LCFI6:
 129              		.cfi_def_cfa_register 13
 130              		@ sp needed
 131 0050 5DF8047B 		ldr	r7, [sp], #4
 132              	.LCFI7:
 133              		.cfi_restore 7
 134              		.cfi_def_cfa_offset 0
 135 0054 7047     		bx	lr
 136              		.cfi_endproc
 137              	.LFE131:
 139              		.section	.text.COMP_Filter_SampWindow_Config,"ax",%progbits
 140              		.align	1
 141              		.global	COMP_Filter_SampWindow_Config
 142              		.syntax unified
 143              		.thumb
 144              		.thumb_func
 146              	COMP_Filter_SampWindow_Config:
 147              	.LFB132:
 116:../firmware/n32g430_std_periph_driver/src/n32g430_comp.c **** 
 117:../firmware/n32g430_std_periph_driver/src/n32g430_comp.c **** /**
 118:../firmware/n32g430_std_periph_driver/src/n32g430_comp.c **** *\*\name    COMP_Filter_SampWindow_Config.
 119:../firmware/n32g430_std_periph_driver/src/n32g430_comp.c **** *\*\fun     Configures the COMPx filter sampwindow with a correct value. 
 120:../firmware/n32g430_std_periph_driver/src/n32g430_comp.c **** *\*\param   COMPx :
 121:../firmware/n32g430_std_periph_driver/src/n32g430_comp.c **** *\*\          - COMP1
 122:../firmware/n32g430_std_periph_driver/src/n32g430_comp.c **** *\*\          - COMP2
 123:../firmware/n32g430_std_periph_driver/src/n32g430_comp.c **** *\*\          - COMP3
 124:../firmware/n32g430_std_periph_driver/src/n32g430_comp.c **** *\*\param   sampwin;_value:
 125:../firmware/n32g430_std_periph_driver/src/n32g430_comp.c **** *\*\          - from 0 to 31.
 126:../firmware/n32g430_std_periph_driver/src/n32g430_comp.c **** *\*\return  none
 127:../firmware/n32g430_std_periph_driver/src/n32g430_comp.c **** **/
 128:../firmware/n32g430_std_periph_driver/src/n32g430_comp.c **** void COMP_Filter_SampWindow_Config(COMPX COMPx, uint8_t sampwin_value)
 129:../firmware/n32g430_std_periph_driver/src/n32g430_comp.c **** {
 148              		.loc 1 129 1
 149              		.cfi_startproc
 150              		@ args = 0, pretend = 0, frame = 8
 151              		@ frame_needed = 1, uses_anonymous_args = 0
 152              		@ link register save eliminated.
 153 0000 80B4     		push	{r7}
 154              	.LCFI8:
 155              		.cfi_def_cfa_offset 4
 156              		.cfi_offset 7, -4
 157 0002 83B0     		sub	sp, sp, #12
 158              	.LCFI9:
 159              		.cfi_def_cfa_offset 16
 160 0004 00AF     		add	r7, sp, #0
 161              	.LCFI10:
ARM GAS  C:\Users\ZShuai\AppData\Local\Temp\ccV30ir9.s 			page 6


 162              		.cfi_def_cfa_register 7
 163 0006 0346     		mov	r3, r0
 164 0008 0A46     		mov	r2, r1
 165 000a FB71     		strb	r3, [r7, #7]
 166 000c 1346     		mov	r3, r2
 167 000e BB71     		strb	r3, [r7, #6]
 130:../firmware/n32g430_std_periph_driver/src/n32g430_comp.c ****     switch (COMPx)
 168              		.loc 1 130 5
 169 0010 FB79     		ldrb	r3, [r7, #7]	@ zero_extendqisi2
 170 0012 022B     		cmp	r3, #2
 171 0014 24D0     		beq	.L4
 172 0016 022B     		cmp	r3, #2
 173 0018 31DC     		bgt	.L9
 174 001a 002B     		cmp	r3, #0
 175 001c 02D0     		beq	.L6
 176 001e 012B     		cmp	r3, #1
 177 0020 0FD0     		beq	.L7
 131:../firmware/n32g430_std_periph_driver/src/n32g430_comp.c ****     {
 132:../firmware/n32g430_std_periph_driver/src/n32g430_comp.c ****         case  COMP1:
 133:../firmware/n32g430_std_periph_driver/src/n32g430_comp.c ****             /* Clear COMPx_FILC SAMPW[4:0] bits */
 134:../firmware/n32g430_std_periph_driver/src/n32g430_comp.c ****             COMP->Cmp1.FILC &= COMP_FILTER_SAMPW_MASK;
 135:../firmware/n32g430_std_periph_driver/src/n32g430_comp.c ****             /* Set COMPx_FILC SAMPW[4:0] bits */
 136:../firmware/n32g430_std_periph_driver/src/n32g430_comp.c ****             COMP->Cmp1.FILC |= sampwin_value << REG_BIT6_OFFSET;
 137:../firmware/n32g430_std_periph_driver/src/n32g430_comp.c ****             break;
 138:../firmware/n32g430_std_periph_driver/src/n32g430_comp.c ****         case  COMP2:
 139:../firmware/n32g430_std_periph_driver/src/n32g430_comp.c ****             /* Clear COMPx_FILC SAMPW[4:0] bits */
 140:../firmware/n32g430_std_periph_driver/src/n32g430_comp.c ****             COMP->Cmp2.FILC &= COMP_FILTER_SAMPW_MASK;
 141:../firmware/n32g430_std_periph_driver/src/n32g430_comp.c ****             /* Set COMPx_FILC SAMPW[4:0] bits */
 142:../firmware/n32g430_std_periph_driver/src/n32g430_comp.c ****             COMP->Cmp2.FILC |= sampwin_value << REG_BIT6_OFFSET;
 143:../firmware/n32g430_std_periph_driver/src/n32g430_comp.c ****             break;
 144:../firmware/n32g430_std_periph_driver/src/n32g430_comp.c ****         case  COMP3:
 145:../firmware/n32g430_std_periph_driver/src/n32g430_comp.c ****             /* Clear COMPx_FILC SAMPW[4:0] bits */
 146:../firmware/n32g430_std_periph_driver/src/n32g430_comp.c ****             COMP->Cmp3.FILC &= COMP_FILTER_SAMPW_MASK;
 147:../firmware/n32g430_std_periph_driver/src/n32g430_comp.c ****             /* Set COMPx_FILC SAMPW[4:0] bits */
 148:../firmware/n32g430_std_periph_driver/src/n32g430_comp.c ****             COMP->Cmp3.FILC |= sampwin_value << REG_BIT6_OFFSET;
 149:../firmware/n32g430_std_periph_driver/src/n32g430_comp.c ****             break;
 150:../firmware/n32g430_std_periph_driver/src/n32g430_comp.c ****         default:
 151:../firmware/n32g430_std_periph_driver/src/n32g430_comp.c ****             break;
 178              		.loc 1 151 13
 179 0022 2CE0     		b	.L9
 180              	.L6:
 134:../firmware/n32g430_std_periph_driver/src/n32g430_comp.c ****             /* Set COMPx_FILC SAMPW[4:0] bits */
 181              		.loc 1 134 17
 182 0024 194B     		ldr	r3, .L10
 134:../firmware/n32g430_std_periph_driver/src/n32g430_comp.c ****             /* Set COMPx_FILC SAMPW[4:0] bits */
 183              		.loc 1 134 23
 184 0026 5A69     		ldr	r2, [r3, #20]
 134:../firmware/n32g430_std_periph_driver/src/n32g430_comp.c ****             /* Set COMPx_FILC SAMPW[4:0] bits */
 185              		.loc 1 134 17
 186 0028 1849     		ldr	r1, .L10
 134:../firmware/n32g430_std_periph_driver/src/n32g430_comp.c ****             /* Set COMPx_FILC SAMPW[4:0] bits */
 187              		.loc 1 134 29
 188 002a 4FF63F03 		movw	r3, #63551
 189 002e 1340     		ands	r3, r3, r2
 190 0030 4B61     		str	r3, [r1, #20]
 136:../firmware/n32g430_std_periph_driver/src/n32g430_comp.c ****             break;
 191              		.loc 1 136 17
ARM GAS  C:\Users\ZShuai\AppData\Local\Temp\ccV30ir9.s 			page 7


 192 0032 164B     		ldr	r3, .L10
 136:../firmware/n32g430_std_periph_driver/src/n32g430_comp.c ****             break;
 193              		.loc 1 136 23
 194 0034 5A69     		ldr	r2, [r3, #20]
 136:../firmware/n32g430_std_periph_driver/src/n32g430_comp.c ****             break;
 195              		.loc 1 136 46
 196 0036 BB79     		ldrb	r3, [r7, #6]	@ zero_extendqisi2
 197 0038 9B01     		lsls	r3, r3, #6
 136:../firmware/n32g430_std_periph_driver/src/n32g430_comp.c ****             break;
 198              		.loc 1 136 17
 199 003a 1449     		ldr	r1, .L10
 136:../firmware/n32g430_std_periph_driver/src/n32g430_comp.c ****             break;
 200              		.loc 1 136 29
 201 003c 1343     		orrs	r3, r3, r2
 202 003e 4B61     		str	r3, [r1, #20]
 137:../firmware/n32g430_std_periph_driver/src/n32g430_comp.c ****         case  COMP2:
 203              		.loc 1 137 13
 204 0040 1EE0     		b	.L8
 205              	.L7:
 140:../firmware/n32g430_std_periph_driver/src/n32g430_comp.c ****             /* Set COMPx_FILC SAMPW[4:0] bits */
 206              		.loc 1 140 17
 207 0042 124B     		ldr	r3, .L10
 140:../firmware/n32g430_std_periph_driver/src/n32g430_comp.c ****             /* Set COMPx_FILC SAMPW[4:0] bits */
 208              		.loc 1 140 23
 209 0044 5A6A     		ldr	r2, [r3, #36]
 140:../firmware/n32g430_std_periph_driver/src/n32g430_comp.c ****             /* Set COMPx_FILC SAMPW[4:0] bits */
 210              		.loc 1 140 17
 211 0046 1149     		ldr	r1, .L10
 140:../firmware/n32g430_std_periph_driver/src/n32g430_comp.c ****             /* Set COMPx_FILC SAMPW[4:0] bits */
 212              		.loc 1 140 29
 213 0048 4FF63F03 		movw	r3, #63551
 214 004c 1340     		ands	r3, r3, r2
 215 004e 4B62     		str	r3, [r1, #36]
 142:../firmware/n32g430_std_periph_driver/src/n32g430_comp.c ****             break;
 216              		.loc 1 142 17
 217 0050 0E4B     		ldr	r3, .L10
 142:../firmware/n32g430_std_periph_driver/src/n32g430_comp.c ****             break;
 218              		.loc 1 142 23
 219 0052 5A6A     		ldr	r2, [r3, #36]
 142:../firmware/n32g430_std_periph_driver/src/n32g430_comp.c ****             break;
 220              		.loc 1 142 46
 221 0054 BB79     		ldrb	r3, [r7, #6]	@ zero_extendqisi2
 222 0056 9B01     		lsls	r3, r3, #6
 142:../firmware/n32g430_std_periph_driver/src/n32g430_comp.c ****             break;
 223              		.loc 1 142 17
 224 0058 0C49     		ldr	r1, .L10
 142:../firmware/n32g430_std_periph_driver/src/n32g430_comp.c ****             break;
 225              		.loc 1 142 29
 226 005a 1343     		orrs	r3, r3, r2
 227 005c 4B62     		str	r3, [r1, #36]
 143:../firmware/n32g430_std_periph_driver/src/n32g430_comp.c ****         case  COMP3:
 228              		.loc 1 143 13
 229 005e 0FE0     		b	.L8
 230              	.L4:
 146:../firmware/n32g430_std_periph_driver/src/n32g430_comp.c ****             /* Set COMPx_FILC SAMPW[4:0] bits */
 231              		.loc 1 146 17
 232 0060 0A4B     		ldr	r3, .L10
ARM GAS  C:\Users\ZShuai\AppData\Local\Temp\ccV30ir9.s 			page 8


 146:../firmware/n32g430_std_periph_driver/src/n32g430_comp.c ****             /* Set COMPx_FILC SAMPW[4:0] bits */
 233              		.loc 1 146 23
 234 0062 5A6B     		ldr	r2, [r3, #52]
 146:../firmware/n32g430_std_periph_driver/src/n32g430_comp.c ****             /* Set COMPx_FILC SAMPW[4:0] bits */
 235              		.loc 1 146 17
 236 0064 0949     		ldr	r1, .L10
 146:../firmware/n32g430_std_periph_driver/src/n32g430_comp.c ****             /* Set COMPx_FILC SAMPW[4:0] bits */
 237              		.loc 1 146 29
 238 0066 4FF63F03 		movw	r3, #63551
 239 006a 1340     		ands	r3, r3, r2
 240 006c 4B63     		str	r3, [r1, #52]
 148:../firmware/n32g430_std_periph_driver/src/n32g430_comp.c ****             break;
 241              		.loc 1 148 17
 242 006e 074B     		ldr	r3, .L10
 148:../firmware/n32g430_std_periph_driver/src/n32g430_comp.c ****             break;
 243              		.loc 1 148 23
 244 0070 5A6B     		ldr	r2, [r3, #52]
 148:../firmware/n32g430_std_periph_driver/src/n32g430_comp.c ****             break;
 245              		.loc 1 148 46
 246 0072 BB79     		ldrb	r3, [r7, #6]	@ zero_extendqisi2
 247 0074 9B01     		lsls	r3, r3, #6
 148:../firmware/n32g430_std_periph_driver/src/n32g430_comp.c ****             break;
 248              		.loc 1 148 17
 249 0076 0549     		ldr	r1, .L10
 148:../firmware/n32g430_std_periph_driver/src/n32g430_comp.c ****             break;
 250              		.loc 1 148 29
 251 0078 1343     		orrs	r3, r3, r2
 252 007a 4B63     		str	r3, [r1, #52]
 149:../firmware/n32g430_std_periph_driver/src/n32g430_comp.c ****         default:
 253              		.loc 1 149 13
 254 007c 00E0     		b	.L8
 255              	.L9:
 256              		.loc 1 151 13
 257 007e 00BF     		nop
 258              	.L8:
 152:../firmware/n32g430_std_periph_driver/src/n32g430_comp.c ****     }
 153:../firmware/n32g430_std_periph_driver/src/n32g430_comp.c **** }
 259              		.loc 1 153 1
 260 0080 00BF     		nop
 261 0082 0C37     		adds	r7, r7, #12
 262              	.LCFI11:
 263              		.cfi_def_cfa_offset 4
 264 0084 BD46     		mov	sp, r7
 265              	.LCFI12:
 266              		.cfi_def_cfa_register 13
 267              		@ sp needed
 268 0086 5DF8047B 		ldr	r7, [sp], #4
 269              	.LCFI13:
 270              		.cfi_restore 7
 271              		.cfi_def_cfa_offset 0
 272 008a 7047     		bx	lr
 273              	.L11:
 274              		.align	2
 275              	.L10:
 276 008c 00240040 		.word	1073751040
 277              		.cfi_endproc
 278              	.LFE132:
ARM GAS  C:\Users\ZShuai\AppData\Local\Temp\ccV30ir9.s 			page 9


 280              		.section	.text.COMP_Filter_Threshold_Config,"ax",%progbits
 281              		.align	1
 282              		.global	COMP_Filter_Threshold_Config
 283              		.syntax unified
 284              		.thumb
 285              		.thumb_func
 287              	COMP_Filter_Threshold_Config:
 288              	.LFB133:
 154:../firmware/n32g430_std_periph_driver/src/n32g430_comp.c **** 
 155:../firmware/n32g430_std_periph_driver/src/n32g430_comp.c **** /**
 156:../firmware/n32g430_std_periph_driver/src/n32g430_comp.c **** *\*\name    COMP_Filter_Threshold_Config.
 157:../firmware/n32g430_std_periph_driver/src/n32g430_comp.c **** *\*\fun     Configures the COMPx filter Threshold with a correct value. 
 158:../firmware/n32g430_std_periph_driver/src/n32g430_comp.c **** *\*\param   COMPx :
 159:../firmware/n32g430_std_periph_driver/src/n32g430_comp.c **** *\*\          - COMP1
 160:../firmware/n32g430_std_periph_driver/src/n32g430_comp.c **** *\*\          - COMP2
 161:../firmware/n32g430_std_periph_driver/src/n32g430_comp.c **** *\*\          - COMP3
 162:../firmware/n32g430_std_periph_driver/src/n32g430_comp.c **** *\*\param   Threshold_value:
 163:../firmware/n32g430_std_periph_driver/src/n32g430_comp.c **** *\*\          - Value must be greater than SAMPW / 2 .
 164:../firmware/n32g430_std_periph_driver/src/n32g430_comp.c **** *\*\return  none
 165:../firmware/n32g430_std_periph_driver/src/n32g430_comp.c **** **/
 166:../firmware/n32g430_std_periph_driver/src/n32g430_comp.c **** void COMP_Filter_Threshold_Config(COMPX COMPx, uint8_t Threshold_value)
 167:../firmware/n32g430_std_periph_driver/src/n32g430_comp.c **** {
 289              		.loc 1 167 1
 290              		.cfi_startproc
 291              		@ args = 0, pretend = 0, frame = 8
 292              		@ frame_needed = 1, uses_anonymous_args = 0
 293              		@ link register save eliminated.
 294 0000 80B4     		push	{r7}
 295              	.LCFI14:
 296              		.cfi_def_cfa_offset 4
 297              		.cfi_offset 7, -4
 298 0002 83B0     		sub	sp, sp, #12
 299              	.LCFI15:
 300              		.cfi_def_cfa_offset 16
 301 0004 00AF     		add	r7, sp, #0
 302              	.LCFI16:
 303              		.cfi_def_cfa_register 7
 304 0006 0346     		mov	r3, r0
 305 0008 0A46     		mov	r2, r1
 306 000a FB71     		strb	r3, [r7, #7]
 307 000c 1346     		mov	r3, r2
 308 000e BB71     		strb	r3, [r7, #6]
 168:../firmware/n32g430_std_periph_driver/src/n32g430_comp.c ****     switch (COMPx)
 309              		.loc 1 168 5
 310 0010 FB79     		ldrb	r3, [r7, #7]	@ zero_extendqisi2
 311 0012 022B     		cmp	r3, #2
 312 0014 24D0     		beq	.L13
 313 0016 022B     		cmp	r3, #2
 314 0018 31DC     		bgt	.L18
 315 001a 002B     		cmp	r3, #0
 316 001c 02D0     		beq	.L15
 317 001e 012B     		cmp	r3, #1
 318 0020 0FD0     		beq	.L16
 169:../firmware/n32g430_std_periph_driver/src/n32g430_comp.c ****     {
 170:../firmware/n32g430_std_periph_driver/src/n32g430_comp.c ****         case  COMP1:
 171:../firmware/n32g430_std_periph_driver/src/n32g430_comp.c ****             /* Clear COMPx_FILC THRESH[4:0] bits */
 172:../firmware/n32g430_std_periph_driver/src/n32g430_comp.c ****             COMP->Cmp1.FILC &= COMP_FILTER_THRESHOLD_MASK;
ARM GAS  C:\Users\ZShuai\AppData\Local\Temp\ccV30ir9.s 			page 10


 173:../firmware/n32g430_std_periph_driver/src/n32g430_comp.c ****             /* Set COMPx_FILC THRESH[4:0] bits */
 174:../firmware/n32g430_std_periph_driver/src/n32g430_comp.c ****             COMP->Cmp1.FILC |= Threshold_value << REG_BIT1_OFFSET;
 175:../firmware/n32g430_std_periph_driver/src/n32g430_comp.c ****             break;
 176:../firmware/n32g430_std_periph_driver/src/n32g430_comp.c ****         case  COMP2:
 177:../firmware/n32g430_std_periph_driver/src/n32g430_comp.c ****             /* Clear COMPx_FILC THRESH[4:0] bits */
 178:../firmware/n32g430_std_periph_driver/src/n32g430_comp.c ****             COMP->Cmp2.FILC &= COMP_FILTER_THRESHOLD_MASK;
 179:../firmware/n32g430_std_periph_driver/src/n32g430_comp.c ****             /* Set COMPx_FILC THRESH[4:0] bits */
 180:../firmware/n32g430_std_periph_driver/src/n32g430_comp.c ****             COMP->Cmp2.FILC |= Threshold_value << REG_BIT1_OFFSET;
 181:../firmware/n32g430_std_periph_driver/src/n32g430_comp.c ****             break;
 182:../firmware/n32g430_std_periph_driver/src/n32g430_comp.c ****         case  COMP3:
 183:../firmware/n32g430_std_periph_driver/src/n32g430_comp.c ****             /* Clear COMPx_FILC THRESH[4:0] bits */
 184:../firmware/n32g430_std_periph_driver/src/n32g430_comp.c ****             COMP->Cmp3.FILC &= COMP_FILTER_THRESHOLD_MASK;
 185:../firmware/n32g430_std_periph_driver/src/n32g430_comp.c ****             /* Set COMPx_FILC THRESH[4:0] bits */
 186:../firmware/n32g430_std_periph_driver/src/n32g430_comp.c ****             COMP->Cmp3.FILC |= Threshold_value << REG_BIT1_OFFSET;
 187:../firmware/n32g430_std_periph_driver/src/n32g430_comp.c ****             break;
 188:../firmware/n32g430_std_periph_driver/src/n32g430_comp.c ****         default:
 189:../firmware/n32g430_std_periph_driver/src/n32g430_comp.c ****             break;
 319              		.loc 1 189 13
 320 0022 2CE0     		b	.L18
 321              	.L15:
 172:../firmware/n32g430_std_periph_driver/src/n32g430_comp.c ****             /* Set COMPx_FILC THRESH[4:0] bits */
 322              		.loc 1 172 17
 323 0024 194B     		ldr	r3, .L19
 172:../firmware/n32g430_std_periph_driver/src/n32g430_comp.c ****             /* Set COMPx_FILC THRESH[4:0] bits */
 324              		.loc 1 172 23
 325 0026 5A69     		ldr	r2, [r3, #20]
 172:../firmware/n32g430_std_periph_driver/src/n32g430_comp.c ****             /* Set COMPx_FILC THRESH[4:0] bits */
 326              		.loc 1 172 17
 327 0028 1849     		ldr	r1, .L19
 172:../firmware/n32g430_std_periph_driver/src/n32g430_comp.c ****             /* Set COMPx_FILC THRESH[4:0] bits */
 328              		.loc 1 172 29
 329 002a 4FF6C173 		movw	r3, #65473
 330 002e 1340     		ands	r3, r3, r2
 331 0030 4B61     		str	r3, [r1, #20]
 174:../firmware/n32g430_std_periph_driver/src/n32g430_comp.c ****             break;
 332              		.loc 1 174 17
 333 0032 164B     		ldr	r3, .L19
 174:../firmware/n32g430_std_periph_driver/src/n32g430_comp.c ****             break;
 334              		.loc 1 174 23
 335 0034 5A69     		ldr	r2, [r3, #20]
 174:../firmware/n32g430_std_periph_driver/src/n32g430_comp.c ****             break;
 336              		.loc 1 174 48
 337 0036 BB79     		ldrb	r3, [r7, #6]	@ zero_extendqisi2
 338 0038 5B00     		lsls	r3, r3, #1
 174:../firmware/n32g430_std_periph_driver/src/n32g430_comp.c ****             break;
 339              		.loc 1 174 17
 340 003a 1449     		ldr	r1, .L19
 174:../firmware/n32g430_std_periph_driver/src/n32g430_comp.c ****             break;
 341              		.loc 1 174 29
 342 003c 1343     		orrs	r3, r3, r2
 343 003e 4B61     		str	r3, [r1, #20]
 175:../firmware/n32g430_std_periph_driver/src/n32g430_comp.c ****         case  COMP2:
 344              		.loc 1 175 13
 345 0040 1EE0     		b	.L17
 346              	.L16:
 178:../firmware/n32g430_std_periph_driver/src/n32g430_comp.c ****             /* Set COMPx_FILC THRESH[4:0] bits */
 347              		.loc 1 178 17
ARM GAS  C:\Users\ZShuai\AppData\Local\Temp\ccV30ir9.s 			page 11


 348 0042 124B     		ldr	r3, .L19
 178:../firmware/n32g430_std_periph_driver/src/n32g430_comp.c ****             /* Set COMPx_FILC THRESH[4:0] bits */
 349              		.loc 1 178 23
 350 0044 5A6A     		ldr	r2, [r3, #36]
 178:../firmware/n32g430_std_periph_driver/src/n32g430_comp.c ****             /* Set COMPx_FILC THRESH[4:0] bits */
 351              		.loc 1 178 17
 352 0046 1149     		ldr	r1, .L19
 178:../firmware/n32g430_std_periph_driver/src/n32g430_comp.c ****             /* Set COMPx_FILC THRESH[4:0] bits */
 353              		.loc 1 178 29
 354 0048 4FF6C173 		movw	r3, #65473
 355 004c 1340     		ands	r3, r3, r2
 356 004e 4B62     		str	r3, [r1, #36]
 180:../firmware/n32g430_std_periph_driver/src/n32g430_comp.c ****             break;
 357              		.loc 1 180 17
 358 0050 0E4B     		ldr	r3, .L19
 180:../firmware/n32g430_std_periph_driver/src/n32g430_comp.c ****             break;
 359              		.loc 1 180 23
 360 0052 5A6A     		ldr	r2, [r3, #36]
 180:../firmware/n32g430_std_periph_driver/src/n32g430_comp.c ****             break;
 361              		.loc 1 180 48
 362 0054 BB79     		ldrb	r3, [r7, #6]	@ zero_extendqisi2
 363 0056 5B00     		lsls	r3, r3, #1
 180:../firmware/n32g430_std_periph_driver/src/n32g430_comp.c ****             break;
 364              		.loc 1 180 17
 365 0058 0C49     		ldr	r1, .L19
 180:../firmware/n32g430_std_periph_driver/src/n32g430_comp.c ****             break;
 366              		.loc 1 180 29
 367 005a 1343     		orrs	r3, r3, r2
 368 005c 4B62     		str	r3, [r1, #36]
 181:../firmware/n32g430_std_periph_driver/src/n32g430_comp.c ****         case  COMP3:
 369              		.loc 1 181 13
 370 005e 0FE0     		b	.L17
 371              	.L13:
 184:../firmware/n32g430_std_periph_driver/src/n32g430_comp.c ****             /* Set COMPx_FILC THRESH[4:0] bits */
 372              		.loc 1 184 17
 373 0060 0A4B     		ldr	r3, .L19
 184:../firmware/n32g430_std_periph_driver/src/n32g430_comp.c ****             /* Set COMPx_FILC THRESH[4:0] bits */
 374              		.loc 1 184 23
 375 0062 5A6B     		ldr	r2, [r3, #52]
 184:../firmware/n32g430_std_periph_driver/src/n32g430_comp.c ****             /* Set COMPx_FILC THRESH[4:0] bits */
 376              		.loc 1 184 17
 377 0064 0949     		ldr	r1, .L19
 184:../firmware/n32g430_std_periph_driver/src/n32g430_comp.c ****             /* Set COMPx_FILC THRESH[4:0] bits */
 378              		.loc 1 184 29
 379 0066 4FF6C173 		movw	r3, #65473
 380 006a 1340     		ands	r3, r3, r2
 381 006c 4B63     		str	r3, [r1, #52]
 186:../firmware/n32g430_std_periph_driver/src/n32g430_comp.c ****             break;
 382              		.loc 1 186 17
 383 006e 074B     		ldr	r3, .L19
 186:../firmware/n32g430_std_periph_driver/src/n32g430_comp.c ****             break;
 384              		.loc 1 186 23
 385 0070 5A6B     		ldr	r2, [r3, #52]
 186:../firmware/n32g430_std_periph_driver/src/n32g430_comp.c ****             break;
 386              		.loc 1 186 48
 387 0072 BB79     		ldrb	r3, [r7, #6]	@ zero_extendqisi2
 388 0074 5B00     		lsls	r3, r3, #1
ARM GAS  C:\Users\ZShuai\AppData\Local\Temp\ccV30ir9.s 			page 12


 186:../firmware/n32g430_std_periph_driver/src/n32g430_comp.c ****             break;
 389              		.loc 1 186 17
 390 0076 0549     		ldr	r1, .L19
 186:../firmware/n32g430_std_periph_driver/src/n32g430_comp.c ****             break;
 391              		.loc 1 186 29
 392 0078 1343     		orrs	r3, r3, r2
 393 007a 4B63     		str	r3, [r1, #52]
 187:../firmware/n32g430_std_periph_driver/src/n32g430_comp.c ****         default:
 394              		.loc 1 187 13
 395 007c 00E0     		b	.L17
 396              	.L18:
 397              		.loc 1 189 13
 398 007e 00BF     		nop
 399              	.L17:
 190:../firmware/n32g430_std_periph_driver/src/n32g430_comp.c ****     }
 191:../firmware/n32g430_std_periph_driver/src/n32g430_comp.c **** }
 400              		.loc 1 191 1
 401 0080 00BF     		nop
 402 0082 0C37     		adds	r7, r7, #12
 403              	.LCFI17:
 404              		.cfi_def_cfa_offset 4
 405 0084 BD46     		mov	sp, r7
 406              	.LCFI18:
 407              		.cfi_def_cfa_register 13
 408              		@ sp needed
 409 0086 5DF8047B 		ldr	r7, [sp], #4
 410              	.LCFI19:
 411              		.cfi_restore 7
 412              		.cfi_def_cfa_offset 0
 413 008a 7047     		bx	lr
 414              	.L20:
 415              		.align	2
 416              	.L19:
 417 008c 00240040 		.word	1073751040
 418              		.cfi_endproc
 419              	.LFE133:
 421              		.section	.text.COMP_Filter_Enable,"ax",%progbits
 422              		.align	1
 423              		.global	COMP_Filter_Enable
 424              		.syntax unified
 425              		.thumb
 426              		.thumb_func
 428              	COMP_Filter_Enable:
 429              	.LFB134:
 192:../firmware/n32g430_std_periph_driver/src/n32g430_comp.c **** 
 193:../firmware/n32g430_std_periph_driver/src/n32g430_comp.c **** /**
 194:../firmware/n32g430_std_periph_driver/src/n32g430_comp.c **** *\*\name    COMP_Filter_Enable.
 195:../firmware/n32g430_std_periph_driver/src/n32g430_comp.c **** *\*\fun     Configures COMPx filter enable.
 196:../firmware/n32g430_std_periph_driver/src/n32g430_comp.c **** *\*\          - Before the COMPx filter is enabled, the clock of the COMPx filter must be turned on
 197:../firmware/n32g430_std_periph_driver/src/n32g430_comp.c **** *\*\          - Configure RCC_APB1PCLKEN. COMPFILTEN = 1 to enable COMPx filter, the RCC driver fun
 198:../firmware/n32g430_std_periph_driver/src/n32g430_comp.c **** *\*\param   COMPx :
 199:../firmware/n32g430_std_periph_driver/src/n32g430_comp.c **** *\*\          - COMP1
 200:../firmware/n32g430_std_periph_driver/src/n32g430_comp.c **** *\*\          - COMP2
 201:../firmware/n32g430_std_periph_driver/src/n32g430_comp.c **** *\*\          - COMP3
 202:../firmware/n32g430_std_periph_driver/src/n32g430_comp.c **** *\*\return  none
 203:../firmware/n32g430_std_periph_driver/src/n32g430_comp.c **** **/
 204:../firmware/n32g430_std_periph_driver/src/n32g430_comp.c **** void COMP_Filter_Enable(COMPX COMPx)
ARM GAS  C:\Users\ZShuai\AppData\Local\Temp\ccV30ir9.s 			page 13


 205:../firmware/n32g430_std_periph_driver/src/n32g430_comp.c **** {
 430              		.loc 1 205 1
 431              		.cfi_startproc
 432              		@ args = 0, pretend = 0, frame = 8
 433              		@ frame_needed = 1, uses_anonymous_args = 0
 434              		@ link register save eliminated.
 435 0000 80B4     		push	{r7}
 436              	.LCFI20:
 437              		.cfi_def_cfa_offset 4
 438              		.cfi_offset 7, -4
 439 0002 83B0     		sub	sp, sp, #12
 440              	.LCFI21:
 441              		.cfi_def_cfa_offset 16
 442 0004 00AF     		add	r7, sp, #0
 443              	.LCFI22:
 444              		.cfi_def_cfa_register 7
 445 0006 0346     		mov	r3, r0
 446 0008 FB71     		strb	r3, [r7, #7]
 206:../firmware/n32g430_std_periph_driver/src/n32g430_comp.c ****     switch (COMPx)
 447              		.loc 1 206 5
 448 000a FB79     		ldrb	r3, [r7, #7]	@ zero_extendqisi2
 449 000c 022B     		cmp	r3, #2
 450 000e 14D0     		beq	.L22
 451 0010 022B     		cmp	r3, #2
 452 0012 19DC     		bgt	.L27
 453 0014 002B     		cmp	r3, #0
 454 0016 02D0     		beq	.L24
 455 0018 012B     		cmp	r3, #1
 456 001a 07D0     		beq	.L25
 207:../firmware/n32g430_std_periph_driver/src/n32g430_comp.c ****     {
 208:../firmware/n32g430_std_periph_driver/src/n32g430_comp.c ****         case COMP1:
 209:../firmware/n32g430_std_periph_driver/src/n32g430_comp.c ****             /* Set COMPx_FILC FILTER bits */
 210:../firmware/n32g430_std_periph_driver/src/n32g430_comp.c ****             COMP->Cmp1.FILC |= COMP_FILTER_ENBALE;
 211:../firmware/n32g430_std_periph_driver/src/n32g430_comp.c ****             break;
 212:../firmware/n32g430_std_periph_driver/src/n32g430_comp.c ****         case COMP2:
 213:../firmware/n32g430_std_periph_driver/src/n32g430_comp.c ****             /* Set COMPx_FILC FILTER bits */
 214:../firmware/n32g430_std_periph_driver/src/n32g430_comp.c ****             COMP->Cmp2.FILC |= COMP_FILTER_ENBALE;
 215:../firmware/n32g430_std_periph_driver/src/n32g430_comp.c ****             break;
 216:../firmware/n32g430_std_periph_driver/src/n32g430_comp.c ****         case COMP3:
 217:../firmware/n32g430_std_periph_driver/src/n32g430_comp.c ****             /* Set COMPx_FILC FILTER bits */
 218:../firmware/n32g430_std_periph_driver/src/n32g430_comp.c ****             COMP->Cmp3.FILC |= COMP_FILTER_ENBALE;
 219:../firmware/n32g430_std_periph_driver/src/n32g430_comp.c ****             break;
 220:../firmware/n32g430_std_periph_driver/src/n32g430_comp.c ****         default:
 221:../firmware/n32g430_std_periph_driver/src/n32g430_comp.c ****             break;
 457              		.loc 1 221 13
 458 001c 14E0     		b	.L27
 459              	.L24:
 210:../firmware/n32g430_std_periph_driver/src/n32g430_comp.c ****             break;
 460              		.loc 1 210 17
 461 001e 0E4B     		ldr	r3, .L28
 210:../firmware/n32g430_std_periph_driver/src/n32g430_comp.c ****             break;
 462              		.loc 1 210 23
 463 0020 5B69     		ldr	r3, [r3, #20]
 210:../firmware/n32g430_std_periph_driver/src/n32g430_comp.c ****             break;
 464              		.loc 1 210 17
 465 0022 0D4A     		ldr	r2, .L28
 210:../firmware/n32g430_std_periph_driver/src/n32g430_comp.c ****             break;
ARM GAS  C:\Users\ZShuai\AppData\Local\Temp\ccV30ir9.s 			page 14


 466              		.loc 1 210 29
 467 0024 43F00103 		orr	r3, r3, #1
 468 0028 5361     		str	r3, [r2, #20]
 211:../firmware/n32g430_std_periph_driver/src/n32g430_comp.c ****         case COMP2:
 469              		.loc 1 211 13
 470 002a 0EE0     		b	.L26
 471              	.L25:
 214:../firmware/n32g430_std_periph_driver/src/n32g430_comp.c ****             break;
 472              		.loc 1 214 17
 473 002c 0A4B     		ldr	r3, .L28
 214:../firmware/n32g430_std_periph_driver/src/n32g430_comp.c ****             break;
 474              		.loc 1 214 23
 475 002e 5B6A     		ldr	r3, [r3, #36]
 214:../firmware/n32g430_std_periph_driver/src/n32g430_comp.c ****             break;
 476              		.loc 1 214 17
 477 0030 094A     		ldr	r2, .L28
 214:../firmware/n32g430_std_periph_driver/src/n32g430_comp.c ****             break;
 478              		.loc 1 214 29
 479 0032 43F00103 		orr	r3, r3, #1
 480 0036 5362     		str	r3, [r2, #36]
 215:../firmware/n32g430_std_periph_driver/src/n32g430_comp.c ****         case COMP3:
 481              		.loc 1 215 13
 482 0038 07E0     		b	.L26
 483              	.L22:
 218:../firmware/n32g430_std_periph_driver/src/n32g430_comp.c ****             break;
 484              		.loc 1 218 17
 485 003a 074B     		ldr	r3, .L28
 218:../firmware/n32g430_std_periph_driver/src/n32g430_comp.c ****             break;
 486              		.loc 1 218 23
 487 003c 5B6B     		ldr	r3, [r3, #52]
 218:../firmware/n32g430_std_periph_driver/src/n32g430_comp.c ****             break;
 488              		.loc 1 218 17
 489 003e 064A     		ldr	r2, .L28
 218:../firmware/n32g430_std_periph_driver/src/n32g430_comp.c ****             break;
 490              		.loc 1 218 29
 491 0040 43F00103 		orr	r3, r3, #1
 492 0044 5363     		str	r3, [r2, #52]
 219:../firmware/n32g430_std_periph_driver/src/n32g430_comp.c ****         default:
 493              		.loc 1 219 13
 494 0046 00E0     		b	.L26
 495              	.L27:
 496              		.loc 1 221 13
 497 0048 00BF     		nop
 498              	.L26:
 222:../firmware/n32g430_std_periph_driver/src/n32g430_comp.c ****     }
 223:../firmware/n32g430_std_periph_driver/src/n32g430_comp.c **** }
 499              		.loc 1 223 1
 500 004a 00BF     		nop
 501 004c 0C37     		adds	r7, r7, #12
 502              	.LCFI23:
 503              		.cfi_def_cfa_offset 4
 504 004e BD46     		mov	sp, r7
 505              	.LCFI24:
 506              		.cfi_def_cfa_register 13
 507              		@ sp needed
 508 0050 5DF8047B 		ldr	r7, [sp], #4
 509              	.LCFI25:
ARM GAS  C:\Users\ZShuai\AppData\Local\Temp\ccV30ir9.s 			page 15


 510              		.cfi_restore 7
 511              		.cfi_def_cfa_offset 0
 512 0054 7047     		bx	lr
 513              	.L29:
 514 0056 00BF     		.align	2
 515              	.L28:
 516 0058 00240040 		.word	1073751040
 517              		.cfi_endproc
 518              	.LFE134:
 520              		.section	.text.COMP_Filter_Disable,"ax",%progbits
 521              		.align	1
 522              		.global	COMP_Filter_Disable
 523              		.syntax unified
 524              		.thumb
 525              		.thumb_func
 527              	COMP_Filter_Disable:
 528              	.LFB135:
 224:../firmware/n32g430_std_periph_driver/src/n32g430_comp.c **** 
 225:../firmware/n32g430_std_periph_driver/src/n32g430_comp.c **** /**
 226:../firmware/n32g430_std_periph_driver/src/n32g430_comp.c **** *\*\name    COMP_Filter_Disable.
 227:../firmware/n32g430_std_periph_driver/src/n32g430_comp.c **** *\*\fun     Configures COMPx filter disable.
 228:../firmware/n32g430_std_periph_driver/src/n32g430_comp.c **** *\*\param   COMPx :
 229:../firmware/n32g430_std_periph_driver/src/n32g430_comp.c **** *\*\          - COMP1
 230:../firmware/n32g430_std_periph_driver/src/n32g430_comp.c **** *\*\          - COMP2
 231:../firmware/n32g430_std_periph_driver/src/n32g430_comp.c **** *\*\          - COMP3
 232:../firmware/n32g430_std_periph_driver/src/n32g430_comp.c **** *\*\return  none
 233:../firmware/n32g430_std_periph_driver/src/n32g430_comp.c **** **/
 234:../firmware/n32g430_std_periph_driver/src/n32g430_comp.c **** void COMP_Filter_Disable(COMPX COMPx)
 235:../firmware/n32g430_std_periph_driver/src/n32g430_comp.c **** {
 529              		.loc 1 235 1
 530              		.cfi_startproc
 531              		@ args = 0, pretend = 0, frame = 8
 532              		@ frame_needed = 1, uses_anonymous_args = 0
 533              		@ link register save eliminated.
 534 0000 80B4     		push	{r7}
 535              	.LCFI26:
 536              		.cfi_def_cfa_offset 4
 537              		.cfi_offset 7, -4
 538 0002 83B0     		sub	sp, sp, #12
 539              	.LCFI27:
 540              		.cfi_def_cfa_offset 16
 541 0004 00AF     		add	r7, sp, #0
 542              	.LCFI28:
 543              		.cfi_def_cfa_register 7
 544 0006 0346     		mov	r3, r0
 545 0008 FB71     		strb	r3, [r7, #7]
 236:../firmware/n32g430_std_periph_driver/src/n32g430_comp.c ****     switch (COMPx)
 546              		.loc 1 236 5
 547 000a FB79     		ldrb	r3, [r7, #7]	@ zero_extendqisi2
 548 000c 022B     		cmp	r3, #2
 549 000e 16D0     		beq	.L31
 550 0010 022B     		cmp	r3, #2
 551 0012 1CDC     		bgt	.L36
 552 0014 002B     		cmp	r3, #0
 553 0016 02D0     		beq	.L33
 554 0018 012B     		cmp	r3, #1
 555 001a 08D0     		beq	.L34
ARM GAS  C:\Users\ZShuai\AppData\Local\Temp\ccV30ir9.s 			page 16


 237:../firmware/n32g430_std_periph_driver/src/n32g430_comp.c ****     {
 238:../firmware/n32g430_std_periph_driver/src/n32g430_comp.c ****         case COMP1:
 239:../firmware/n32g430_std_periph_driver/src/n32g430_comp.c ****             /* Clear COMPx_FILC FILTER bits */
 240:../firmware/n32g430_std_periph_driver/src/n32g430_comp.c ****             COMP->Cmp1.FILC &= COMP_FILTER_DISABLE;
 241:../firmware/n32g430_std_periph_driver/src/n32g430_comp.c ****             break;
 242:../firmware/n32g430_std_periph_driver/src/n32g430_comp.c ****         case COMP2:
 243:../firmware/n32g430_std_periph_driver/src/n32g430_comp.c ****             /* Clear COMPx_FILC FILTER bits */
 244:../firmware/n32g430_std_periph_driver/src/n32g430_comp.c ****             COMP->Cmp2.FILC &= COMP_FILTER_DISABLE;
 245:../firmware/n32g430_std_periph_driver/src/n32g430_comp.c ****             break;
 246:../firmware/n32g430_std_periph_driver/src/n32g430_comp.c ****         case COMP3:
 247:../firmware/n32g430_std_periph_driver/src/n32g430_comp.c ****             /* Clear COMPx_FILC FILTER bits */
 248:../firmware/n32g430_std_periph_driver/src/n32g430_comp.c ****             COMP->Cmp3.FILC &= COMP_FILTER_DISABLE;
 249:../firmware/n32g430_std_periph_driver/src/n32g430_comp.c ****             break;
 250:../firmware/n32g430_std_periph_driver/src/n32g430_comp.c ****         default:
 251:../firmware/n32g430_std_periph_driver/src/n32g430_comp.c ****             break;
 556              		.loc 1 251 13
 557 001c 17E0     		b	.L36
 558              	.L33:
 240:../firmware/n32g430_std_periph_driver/src/n32g430_comp.c ****             break;
 559              		.loc 1 240 17
 560 001e 0F4B     		ldr	r3, .L37
 240:../firmware/n32g430_std_periph_driver/src/n32g430_comp.c ****             break;
 561              		.loc 1 240 23
 562 0020 5A69     		ldr	r2, [r3, #20]
 240:../firmware/n32g430_std_periph_driver/src/n32g430_comp.c ****             break;
 563              		.loc 1 240 17
 564 0022 0E49     		ldr	r1, .L37
 240:../firmware/n32g430_std_periph_driver/src/n32g430_comp.c ****             break;
 565              		.loc 1 240 29
 566 0024 4FF6FE73 		movw	r3, #65534
 567 0028 1340     		ands	r3, r3, r2
 568 002a 4B61     		str	r3, [r1, #20]
 241:../firmware/n32g430_std_periph_driver/src/n32g430_comp.c ****         case COMP2:
 569              		.loc 1 241 13
 570 002c 10E0     		b	.L35
 571              	.L34:
 244:../firmware/n32g430_std_periph_driver/src/n32g430_comp.c ****             break;
 572              		.loc 1 244 17
 573 002e 0B4B     		ldr	r3, .L37
 244:../firmware/n32g430_std_periph_driver/src/n32g430_comp.c ****             break;
 574              		.loc 1 244 23
 575 0030 5A6A     		ldr	r2, [r3, #36]
 244:../firmware/n32g430_std_periph_driver/src/n32g430_comp.c ****             break;
 576              		.loc 1 244 17
 577 0032 0A49     		ldr	r1, .L37
 244:../firmware/n32g430_std_periph_driver/src/n32g430_comp.c ****             break;
 578              		.loc 1 244 29
 579 0034 4FF6FE73 		movw	r3, #65534
 580 0038 1340     		ands	r3, r3, r2
 581 003a 4B62     		str	r3, [r1, #36]
 245:../firmware/n32g430_std_periph_driver/src/n32g430_comp.c ****         case COMP3:
 582              		.loc 1 245 13
 583 003c 08E0     		b	.L35
 584              	.L31:
 248:../firmware/n32g430_std_periph_driver/src/n32g430_comp.c ****             break;
 585              		.loc 1 248 17
 586 003e 074B     		ldr	r3, .L37
ARM GAS  C:\Users\ZShuai\AppData\Local\Temp\ccV30ir9.s 			page 17


 248:../firmware/n32g430_std_periph_driver/src/n32g430_comp.c ****             break;
 587              		.loc 1 248 23
 588 0040 5A6B     		ldr	r2, [r3, #52]
 248:../firmware/n32g430_std_periph_driver/src/n32g430_comp.c ****             break;
 589              		.loc 1 248 17
 590 0042 0649     		ldr	r1, .L37
 248:../firmware/n32g430_std_periph_driver/src/n32g430_comp.c ****             break;
 591              		.loc 1 248 29
 592 0044 4FF6FE73 		movw	r3, #65534
 593 0048 1340     		ands	r3, r3, r2
 594 004a 4B63     		str	r3, [r1, #52]
 249:../firmware/n32g430_std_periph_driver/src/n32g430_comp.c ****         default:
 595              		.loc 1 249 13
 596 004c 00E0     		b	.L35
 597              	.L36:
 598              		.loc 1 251 13
 599 004e 00BF     		nop
 600              	.L35:
 252:../firmware/n32g430_std_periph_driver/src/n32g430_comp.c ****     }
 253:../firmware/n32g430_std_periph_driver/src/n32g430_comp.c **** }
 601              		.loc 1 253 1
 602 0050 00BF     		nop
 603 0052 0C37     		adds	r7, r7, #12
 604              	.LCFI29:
 605              		.cfi_def_cfa_offset 4
 606 0054 BD46     		mov	sp, r7
 607              	.LCFI30:
 608              		.cfi_def_cfa_register 13
 609              		@ sp needed
 610 0056 5DF8047B 		ldr	r7, [sp], #4
 611              	.LCFI31:
 612              		.cfi_restore 7
 613              		.cfi_def_cfa_offset 0
 614 005a 7047     		bx	lr
 615              	.L38:
 616              		.align	2
 617              	.L37:
 618 005c 00240040 		.word	1073751040
 619              		.cfi_endproc
 620              	.LFE135:
 622              		.section	.text.COMP_Filter_Clock_Prescale_Config,"ax",%progbits
 623              		.align	1
 624              		.global	COMP_Filter_Clock_Prescale_Config
 625              		.syntax unified
 626              		.thumb
 627              		.thumb_func
 629              	COMP_Filter_Clock_Prescale_Config:
 630              	.LFB136:
 254:../firmware/n32g430_std_periph_driver/src/n32g430_comp.c **** 
 255:../firmware/n32g430_std_periph_driver/src/n32g430_comp.c **** /**
 256:../firmware/n32g430_std_periph_driver/src/n32g430_comp.c **** *\*\name    COMP_Filter_Clock_Prescale_Config.
 257:../firmware/n32g430_std_periph_driver/src/n32g430_comp.c **** *\*\fun     Configures The COMPx low filter prescale . 
 258:../firmware/n32g430_std_periph_driver/src/n32g430_comp.c **** *\*\param   COMPx :
 259:../firmware/n32g430_std_periph_driver/src/n32g430_comp.c **** *\*\          - COMP1
 260:../firmware/n32g430_std_periph_driver/src/n32g430_comp.c **** *\*\          - COMP2
 261:../firmware/n32g430_std_periph_driver/src/n32g430_comp.c **** *\*\          - COMP3
 262:../firmware/n32g430_std_periph_driver/src/n32g430_comp.c **** *\*\param   clkpsc_value:
ARM GAS  C:\Users\ZShuai\AppData\Local\Temp\ccV30ir9.s 			page 18


 263:../firmware/n32g430_std_periph_driver/src/n32g430_comp.c **** *\*\        Value can be set from 0 to 32767.
 264:../firmware/n32g430_std_periph_driver/src/n32g430_comp.c **** *\*\return  none
 265:../firmware/n32g430_std_periph_driver/src/n32g430_comp.c **** **/
 266:../firmware/n32g430_std_periph_driver/src/n32g430_comp.c **** void COMP_Filter_Clock_Prescale_Config(COMPX COMPx, uint16_t clkpsc_value)
 267:../firmware/n32g430_std_periph_driver/src/n32g430_comp.c **** {
 631              		.loc 1 267 1
 632              		.cfi_startproc
 633              		@ args = 0, pretend = 0, frame = 8
 634              		@ frame_needed = 1, uses_anonymous_args = 0
 635              		@ link register save eliminated.
 636 0000 80B4     		push	{r7}
 637              	.LCFI32:
 638              		.cfi_def_cfa_offset 4
 639              		.cfi_offset 7, -4
 640 0002 83B0     		sub	sp, sp, #12
 641              	.LCFI33:
 642              		.cfi_def_cfa_offset 16
 643 0004 00AF     		add	r7, sp, #0
 644              	.LCFI34:
 645              		.cfi_def_cfa_register 7
 646 0006 0346     		mov	r3, r0
 647 0008 0A46     		mov	r2, r1
 648 000a FB71     		strb	r3, [r7, #7]
 649 000c 1346     		mov	r3, r2	@ movhi
 650 000e BB80     		strh	r3, [r7, #4]	@ movhi
 268:../firmware/n32g430_std_periph_driver/src/n32g430_comp.c ****     switch (COMPx)
 651              		.loc 1 268 5
 652 0010 FB79     		ldrb	r3, [r7, #7]	@ zero_extendqisi2
 653 0012 022B     		cmp	r3, #2
 654 0014 1ED0     		beq	.L40
 655 0016 022B     		cmp	r3, #2
 656 0018 28DC     		bgt	.L45
 657 001a 002B     		cmp	r3, #0
 658 001c 02D0     		beq	.L42
 659 001e 012B     		cmp	r3, #1
 660 0020 0CD0     		beq	.L43
 269:../firmware/n32g430_std_periph_driver/src/n32g430_comp.c ****     {
 270:../firmware/n32g430_std_periph_driver/src/n32g430_comp.c ****         case COMP1:
 271:../firmware/n32g430_std_periph_driver/src/n32g430_comp.c ****             /* Clear COMPx_FILP CLKPSC[15:0] bits */
 272:../firmware/n32g430_std_periph_driver/src/n32g430_comp.c ****             COMP->Cmp1.FILP &= COMP_FILTER_CLKPSC_MASK;
 273:../firmware/n32g430_std_periph_driver/src/n32g430_comp.c ****             /* Set COMPx_FILP CLKPSC[15:0] bits */
 274:../firmware/n32g430_std_periph_driver/src/n32g430_comp.c ****             COMP->Cmp1.FILP |= clkpsc_value;
 275:../firmware/n32g430_std_periph_driver/src/n32g430_comp.c ****             break;
 276:../firmware/n32g430_std_periph_driver/src/n32g430_comp.c ****         case COMP2:
 277:../firmware/n32g430_std_periph_driver/src/n32g430_comp.c ****             /* Clear COMPx_FILP CLKPSC[15:0] bits */
 278:../firmware/n32g430_std_periph_driver/src/n32g430_comp.c ****             COMP->Cmp2.FILP &= COMP_FILTER_CLKPSC_MASK;
 279:../firmware/n32g430_std_periph_driver/src/n32g430_comp.c ****             /* Set COMPx_FILP CLKPSC[15:0] bits */
 280:../firmware/n32g430_std_periph_driver/src/n32g430_comp.c ****             COMP->Cmp2.FILP |= clkpsc_value;
 281:../firmware/n32g430_std_periph_driver/src/n32g430_comp.c ****             break;
 282:../firmware/n32g430_std_periph_driver/src/n32g430_comp.c ****         case COMP3:
 283:../firmware/n32g430_std_periph_driver/src/n32g430_comp.c ****             /* Clear COMPx_FILP CLKPSC[15:0] bits */
 284:../firmware/n32g430_std_periph_driver/src/n32g430_comp.c ****             COMP->Cmp3.FILP &= COMP_FILTER_CLKPSC_MASK;
 285:../firmware/n32g430_std_periph_driver/src/n32g430_comp.c ****             /* Set COMPx_FILP CLKPSC[15:0] bits */
 286:../firmware/n32g430_std_periph_driver/src/n32g430_comp.c ****             COMP->Cmp3.FILP |= clkpsc_value;
 287:../firmware/n32g430_std_periph_driver/src/n32g430_comp.c ****             break;
 288:../firmware/n32g430_std_periph_driver/src/n32g430_comp.c ****         default:
 289:../firmware/n32g430_std_periph_driver/src/n32g430_comp.c ****             break;
ARM GAS  C:\Users\ZShuai\AppData\Local\Temp\ccV30ir9.s 			page 19


 661              		.loc 1 289 13
 662 0022 23E0     		b	.L45
 663              	.L42:
 272:../firmware/n32g430_std_periph_driver/src/n32g430_comp.c ****             /* Set COMPx_FILP CLKPSC[15:0] bits */
 664              		.loc 1 272 17
 665 0024 154B     		ldr	r3, .L46
 272:../firmware/n32g430_std_periph_driver/src/n32g430_comp.c ****             /* Set COMPx_FILP CLKPSC[15:0] bits */
 666              		.loc 1 272 23
 667 0026 9B69     		ldr	r3, [r3, #24]
 272:../firmware/n32g430_std_periph_driver/src/n32g430_comp.c ****             /* Set COMPx_FILP CLKPSC[15:0] bits */
 668              		.loc 1 272 17
 669 0028 144B     		ldr	r3, .L46
 272:../firmware/n32g430_std_periph_driver/src/n32g430_comp.c ****             /* Set COMPx_FILP CLKPSC[15:0] bits */
 670              		.loc 1 272 29
 671 002a 0022     		movs	r2, #0
 672 002c 9A61     		str	r2, [r3, #24]
 274:../firmware/n32g430_std_periph_driver/src/n32g430_comp.c ****             break;
 673              		.loc 1 274 17
 674 002e 134B     		ldr	r3, .L46
 274:../firmware/n32g430_std_periph_driver/src/n32g430_comp.c ****             break;
 675              		.loc 1 274 23
 676 0030 9A69     		ldr	r2, [r3, #24]
 274:../firmware/n32g430_std_periph_driver/src/n32g430_comp.c ****             break;
 677              		.loc 1 274 29
 678 0032 BB88     		ldrh	r3, [r7, #4]
 274:../firmware/n32g430_std_periph_driver/src/n32g430_comp.c ****             break;
 679              		.loc 1 274 17
 680 0034 1149     		ldr	r1, .L46
 274:../firmware/n32g430_std_periph_driver/src/n32g430_comp.c ****             break;
 681              		.loc 1 274 29
 682 0036 1343     		orrs	r3, r3, r2
 683 0038 8B61     		str	r3, [r1, #24]
 275:../firmware/n32g430_std_periph_driver/src/n32g430_comp.c ****         case COMP2:
 684              		.loc 1 275 13
 685 003a 18E0     		b	.L44
 686              	.L43:
 278:../firmware/n32g430_std_periph_driver/src/n32g430_comp.c ****             /* Set COMPx_FILP CLKPSC[15:0] bits */
 687              		.loc 1 278 17
 688 003c 0F4B     		ldr	r3, .L46
 278:../firmware/n32g430_std_periph_driver/src/n32g430_comp.c ****             /* Set COMPx_FILP CLKPSC[15:0] bits */
 689              		.loc 1 278 23
 690 003e 9B6A     		ldr	r3, [r3, #40]
 278:../firmware/n32g430_std_periph_driver/src/n32g430_comp.c ****             /* Set COMPx_FILP CLKPSC[15:0] bits */
 691              		.loc 1 278 17
 692 0040 0E4B     		ldr	r3, .L46
 278:../firmware/n32g430_std_periph_driver/src/n32g430_comp.c ****             /* Set COMPx_FILP CLKPSC[15:0] bits */
 693              		.loc 1 278 29
 694 0042 0022     		movs	r2, #0
 695 0044 9A62     		str	r2, [r3, #40]
 280:../firmware/n32g430_std_periph_driver/src/n32g430_comp.c ****             break;
 696              		.loc 1 280 17
 697 0046 0D4B     		ldr	r3, .L46
 280:../firmware/n32g430_std_periph_driver/src/n32g430_comp.c ****             break;
 698              		.loc 1 280 23
 699 0048 9A6A     		ldr	r2, [r3, #40]
 280:../firmware/n32g430_std_periph_driver/src/n32g430_comp.c ****             break;
 700              		.loc 1 280 29
ARM GAS  C:\Users\ZShuai\AppData\Local\Temp\ccV30ir9.s 			page 20


 701 004a BB88     		ldrh	r3, [r7, #4]
 280:../firmware/n32g430_std_periph_driver/src/n32g430_comp.c ****             break;
 702              		.loc 1 280 17
 703 004c 0B49     		ldr	r1, .L46
 280:../firmware/n32g430_std_periph_driver/src/n32g430_comp.c ****             break;
 704              		.loc 1 280 29
 705 004e 1343     		orrs	r3, r3, r2
 706 0050 8B62     		str	r3, [r1, #40]
 281:../firmware/n32g430_std_periph_driver/src/n32g430_comp.c ****         case COMP3:
 707              		.loc 1 281 13
 708 0052 0CE0     		b	.L44
 709              	.L40:
 284:../firmware/n32g430_std_periph_driver/src/n32g430_comp.c ****             /* Set COMPx_FILP CLKPSC[15:0] bits */
 710              		.loc 1 284 17
 711 0054 094B     		ldr	r3, .L46
 284:../firmware/n32g430_std_periph_driver/src/n32g430_comp.c ****             /* Set COMPx_FILP CLKPSC[15:0] bits */
 712              		.loc 1 284 23
 713 0056 9B6B     		ldr	r3, [r3, #56]
 284:../firmware/n32g430_std_periph_driver/src/n32g430_comp.c ****             /* Set COMPx_FILP CLKPSC[15:0] bits */
 714              		.loc 1 284 17
 715 0058 084B     		ldr	r3, .L46
 284:../firmware/n32g430_std_periph_driver/src/n32g430_comp.c ****             /* Set COMPx_FILP CLKPSC[15:0] bits */
 716              		.loc 1 284 29
 717 005a 0022     		movs	r2, #0
 718 005c 9A63     		str	r2, [r3, #56]
 286:../firmware/n32g430_std_periph_driver/src/n32g430_comp.c ****             break;
 719              		.loc 1 286 17
 720 005e 074B     		ldr	r3, .L46
 286:../firmware/n32g430_std_periph_driver/src/n32g430_comp.c ****             break;
 721              		.loc 1 286 23
 722 0060 9A6B     		ldr	r2, [r3, #56]
 286:../firmware/n32g430_std_periph_driver/src/n32g430_comp.c ****             break;
 723              		.loc 1 286 29
 724 0062 BB88     		ldrh	r3, [r7, #4]
 286:../firmware/n32g430_std_periph_driver/src/n32g430_comp.c ****             break;
 725              		.loc 1 286 17
 726 0064 0549     		ldr	r1, .L46
 286:../firmware/n32g430_std_periph_driver/src/n32g430_comp.c ****             break;
 727              		.loc 1 286 29
 728 0066 1343     		orrs	r3, r3, r2
 729 0068 8B63     		str	r3, [r1, #56]
 287:../firmware/n32g430_std_periph_driver/src/n32g430_comp.c ****         default:
 730              		.loc 1 287 13
 731 006a 00E0     		b	.L44
 732              	.L45:
 733              		.loc 1 289 13
 734 006c 00BF     		nop
 735              	.L44:
 290:../firmware/n32g430_std_periph_driver/src/n32g430_comp.c ****     }
 291:../firmware/n32g430_std_periph_driver/src/n32g430_comp.c **** }
 736              		.loc 1 291 1
 737 006e 00BF     		nop
 738 0070 0C37     		adds	r7, r7, #12
 739              	.LCFI35:
 740              		.cfi_def_cfa_offset 4
 741 0072 BD46     		mov	sp, r7
 742              	.LCFI36:
ARM GAS  C:\Users\ZShuai\AppData\Local\Temp\ccV30ir9.s 			page 21


 743              		.cfi_def_cfa_register 13
 744              		@ sp needed
 745 0074 5DF8047B 		ldr	r7, [sp], #4
 746              	.LCFI37:
 747              		.cfi_restore 7
 748              		.cfi_def_cfa_offset 0
 749 0078 7047     		bx	lr
 750              	.L47:
 751 007a 00BF     		.align	2
 752              	.L46:
 753 007c 00240040 		.word	1073751040
 754              		.cfi_endproc
 755              	.LFE136:
 757              		.section	.text.COMP_Blking_Soucre_Config,"ax",%progbits
 758              		.align	1
 759              		.global	COMP_Blking_Soucre_Config
 760              		.syntax unified
 761              		.thumb
 762              		.thumb_func
 764              	COMP_Blking_Soucre_Config:
 765              	.LFB137:
 292:../firmware/n32g430_std_periph_driver/src/n32g430_comp.c **** 
 293:../firmware/n32g430_std_periph_driver/src/n32g430_comp.c **** /**
 294:../firmware/n32g430_std_periph_driver/src/n32g430_comp.c **** *\*\name    COMP_Blking_Soucre_Config.
 295:../firmware/n32g430_std_periph_driver/src/n32g430_comp.c **** *\*\fun     Configures which TIMx output signal to control COMPx Blking. 
 296:../firmware/n32g430_std_periph_driver/src/n32g430_comp.c **** *\*\param   COMPx :
 297:../firmware/n32g430_std_periph_driver/src/n32g430_comp.c **** *\*\          - COMP1
 298:../firmware/n32g430_std_periph_driver/src/n32g430_comp.c **** *\*\          - COMP2
 299:../firmware/n32g430_std_periph_driver/src/n32g430_comp.c **** *\*\          - COMP3
 300:../firmware/n32g430_std_periph_driver/src/n32g430_comp.c **** *\*\param   blking_mode :
 301:../firmware/n32g430_std_periph_driver/src/n32g430_comp.c **** *\*\          - COMP_BLANKING_NO
 302:../firmware/n32g430_std_periph_driver/src/n32g430_comp.c **** *\*\          - COMP_BLANKING_TIM1_OC5
 303:../firmware/n32g430_std_periph_driver/src/n32g430_comp.c **** *\*\          - COMP_BLANKING_TIM8_OC5
 304:../firmware/n32g430_std_periph_driver/src/n32g430_comp.c **** *\*\return  none
 305:../firmware/n32g430_std_periph_driver/src/n32g430_comp.c **** **/
 306:../firmware/n32g430_std_periph_driver/src/n32g430_comp.c **** void COMP_Blking_Soucre_Config(COMPX COMPx, uint32_t blking_mode)
 307:../firmware/n32g430_std_periph_driver/src/n32g430_comp.c **** {
 766              		.loc 1 307 1
 767              		.cfi_startproc
 768              		@ args = 0, pretend = 0, frame = 8
 769              		@ frame_needed = 1, uses_anonymous_args = 0
 770              		@ link register save eliminated.
 771 0000 80B4     		push	{r7}
 772              	.LCFI38:
 773              		.cfi_def_cfa_offset 4
 774              		.cfi_offset 7, -4
 775 0002 83B0     		sub	sp, sp, #12
 776              	.LCFI39:
 777              		.cfi_def_cfa_offset 16
 778 0004 00AF     		add	r7, sp, #0
 779              	.LCFI40:
 780              		.cfi_def_cfa_register 7
 781 0006 0346     		mov	r3, r0
 782 0008 3960     		str	r1, [r7]
 783 000a FB71     		strb	r3, [r7, #7]
 308:../firmware/n32g430_std_periph_driver/src/n32g430_comp.c ****     switch (COMPx)
 784              		.loc 1 308 5
ARM GAS  C:\Users\ZShuai\AppData\Local\Temp\ccV30ir9.s 			page 22


 785 000c FB79     		ldrb	r3, [r7, #7]	@ zero_extendqisi2
 786 000e 022B     		cmp	r3, #2
 787 0010 20D0     		beq	.L49
 788 0012 022B     		cmp	r3, #2
 789 0014 2BDC     		bgt	.L54
 790 0016 002B     		cmp	r3, #0
 791 0018 02D0     		beq	.L51
 792 001a 012B     		cmp	r3, #1
 793 001c 0DD0     		beq	.L52
 309:../firmware/n32g430_std_periph_driver/src/n32g430_comp.c ****     {
 310:../firmware/n32g430_std_periph_driver/src/n32g430_comp.c ****         case COMP1:
 311:../firmware/n32g430_std_periph_driver/src/n32g430_comp.c ****             /* Clear COMPx_CTRL BLKING[2:0] bits */
 312:../firmware/n32g430_std_periph_driver/src/n32g430_comp.c ****             COMP->Cmp1.CTRL &= COMP_BLANKING_MASK;
 313:../firmware/n32g430_std_periph_driver/src/n32g430_comp.c ****             /* Set COMPx_CTRL BLKING[2:0] bits */
 314:../firmware/n32g430_std_periph_driver/src/n32g430_comp.c ****             COMP->Cmp1.CTRL |= blking_mode;
 315:../firmware/n32g430_std_periph_driver/src/n32g430_comp.c ****             break;
 316:../firmware/n32g430_std_periph_driver/src/n32g430_comp.c ****         case COMP2:
 317:../firmware/n32g430_std_periph_driver/src/n32g430_comp.c ****             /* Clear COMPx_CTRL BLKING[2:0] bits */
 318:../firmware/n32g430_std_periph_driver/src/n32g430_comp.c ****             COMP->Cmp2.CTRL &= COMP_BLANKING_MASK;
 319:../firmware/n32g430_std_periph_driver/src/n32g430_comp.c ****             /* Set COMPx_CTRL BLKING[2:0] bits */
 320:../firmware/n32g430_std_periph_driver/src/n32g430_comp.c ****             COMP->Cmp2.CTRL |= blking_mode;
 321:../firmware/n32g430_std_periph_driver/src/n32g430_comp.c ****             break;
 322:../firmware/n32g430_std_periph_driver/src/n32g430_comp.c ****         case COMP3:
 323:../firmware/n32g430_std_periph_driver/src/n32g430_comp.c ****             /* Clear COMPx_CTRL BLKING[2:0] bits */
 324:../firmware/n32g430_std_periph_driver/src/n32g430_comp.c ****             COMP->Cmp3.CTRL &= COMP_BLANKING_MASK;
 325:../firmware/n32g430_std_periph_driver/src/n32g430_comp.c ****             /* Set COMPx_CTRL BLKING[2:0] bits */
 326:../firmware/n32g430_std_periph_driver/src/n32g430_comp.c ****             COMP->Cmp3.CTRL |= blking_mode;
 327:../firmware/n32g430_std_periph_driver/src/n32g430_comp.c ****             break;
 328:../firmware/n32g430_std_periph_driver/src/n32g430_comp.c ****         default:
 329:../firmware/n32g430_std_periph_driver/src/n32g430_comp.c ****             break;
 794              		.loc 1 329 13
 795 001e 26E0     		b	.L54
 796              	.L51:
 312:../firmware/n32g430_std_periph_driver/src/n32g430_comp.c ****             /* Set COMPx_CTRL BLKING[2:0] bits */
 797              		.loc 1 312 17
 798 0020 164B     		ldr	r3, .L55
 312:../firmware/n32g430_std_periph_driver/src/n32g430_comp.c ****             /* Set COMPx_CTRL BLKING[2:0] bits */
 799              		.loc 1 312 23
 800 0022 1B69     		ldr	r3, [r3, #16]
 312:../firmware/n32g430_std_periph_driver/src/n32g430_comp.c ****             /* Set COMPx_CTRL BLKING[2:0] bits */
 801              		.loc 1 312 17
 802 0024 154A     		ldr	r2, .L55
 312:../firmware/n32g430_std_periph_driver/src/n32g430_comp.c ****             /* Set COMPx_CTRL BLKING[2:0] bits */
 803              		.loc 1 312 29
 804 0026 23F4E023 		bic	r3, r3, #458752
 805 002a 1361     		str	r3, [r2, #16]
 314:../firmware/n32g430_std_periph_driver/src/n32g430_comp.c ****             break;
 806              		.loc 1 314 17
 807 002c 134B     		ldr	r3, .L55
 314:../firmware/n32g430_std_periph_driver/src/n32g430_comp.c ****             break;
 808              		.loc 1 314 23
 809 002e 1A69     		ldr	r2, [r3, #16]
 314:../firmware/n32g430_std_periph_driver/src/n32g430_comp.c ****             break;
 810              		.loc 1 314 17
 811 0030 1249     		ldr	r1, .L55
 314:../firmware/n32g430_std_periph_driver/src/n32g430_comp.c ****             break;
 812              		.loc 1 314 29
ARM GAS  C:\Users\ZShuai\AppData\Local\Temp\ccV30ir9.s 			page 23


 813 0032 3B68     		ldr	r3, [r7]
 814 0034 1343     		orrs	r3, r3, r2
 815 0036 0B61     		str	r3, [r1, #16]
 315:../firmware/n32g430_std_periph_driver/src/n32g430_comp.c ****         case COMP2:
 816              		.loc 1 315 13
 817 0038 1AE0     		b	.L53
 818              	.L52:
 318:../firmware/n32g430_std_periph_driver/src/n32g430_comp.c ****             /* Set COMPx_CTRL BLKING[2:0] bits */
 819              		.loc 1 318 17
 820 003a 104B     		ldr	r3, .L55
 318:../firmware/n32g430_std_periph_driver/src/n32g430_comp.c ****             /* Set COMPx_CTRL BLKING[2:0] bits */
 821              		.loc 1 318 23
 822 003c 1B6A     		ldr	r3, [r3, #32]
 318:../firmware/n32g430_std_periph_driver/src/n32g430_comp.c ****             /* Set COMPx_CTRL BLKING[2:0] bits */
 823              		.loc 1 318 17
 824 003e 0F4A     		ldr	r2, .L55
 318:../firmware/n32g430_std_periph_driver/src/n32g430_comp.c ****             /* Set COMPx_CTRL BLKING[2:0] bits */
 825              		.loc 1 318 29
 826 0040 23F4E023 		bic	r3, r3, #458752
 827 0044 1362     		str	r3, [r2, #32]
 320:../firmware/n32g430_std_periph_driver/src/n32g430_comp.c ****             break;
 828              		.loc 1 320 17
 829 0046 0D4B     		ldr	r3, .L55
 320:../firmware/n32g430_std_periph_driver/src/n32g430_comp.c ****             break;
 830              		.loc 1 320 23
 831 0048 1A6A     		ldr	r2, [r3, #32]
 320:../firmware/n32g430_std_periph_driver/src/n32g430_comp.c ****             break;
 832              		.loc 1 320 17
 833 004a 0C49     		ldr	r1, .L55
 320:../firmware/n32g430_std_periph_driver/src/n32g430_comp.c ****             break;
 834              		.loc 1 320 29
 835 004c 3B68     		ldr	r3, [r7]
 836 004e 1343     		orrs	r3, r3, r2
 837 0050 0B62     		str	r3, [r1, #32]
 321:../firmware/n32g430_std_periph_driver/src/n32g430_comp.c ****         case COMP3:
 838              		.loc 1 321 13
 839 0052 0DE0     		b	.L53
 840              	.L49:
 324:../firmware/n32g430_std_periph_driver/src/n32g430_comp.c ****             /* Set COMPx_CTRL BLKING[2:0] bits */
 841              		.loc 1 324 17
 842 0054 094B     		ldr	r3, .L55
 324:../firmware/n32g430_std_periph_driver/src/n32g430_comp.c ****             /* Set COMPx_CTRL BLKING[2:0] bits */
 843              		.loc 1 324 23
 844 0056 1B6B     		ldr	r3, [r3, #48]
 324:../firmware/n32g430_std_periph_driver/src/n32g430_comp.c ****             /* Set COMPx_CTRL BLKING[2:0] bits */
 845              		.loc 1 324 17
 846 0058 084A     		ldr	r2, .L55
 324:../firmware/n32g430_std_periph_driver/src/n32g430_comp.c ****             /* Set COMPx_CTRL BLKING[2:0] bits */
 847              		.loc 1 324 29
 848 005a 23F4E023 		bic	r3, r3, #458752
 849 005e 1363     		str	r3, [r2, #48]
 326:../firmware/n32g430_std_periph_driver/src/n32g430_comp.c ****             break;
 850              		.loc 1 326 17
 851 0060 064B     		ldr	r3, .L55
 326:../firmware/n32g430_std_periph_driver/src/n32g430_comp.c ****             break;
 852              		.loc 1 326 23
 853 0062 1A6B     		ldr	r2, [r3, #48]
ARM GAS  C:\Users\ZShuai\AppData\Local\Temp\ccV30ir9.s 			page 24


 326:../firmware/n32g430_std_periph_driver/src/n32g430_comp.c ****             break;
 854              		.loc 1 326 17
 855 0064 0549     		ldr	r1, .L55
 326:../firmware/n32g430_std_periph_driver/src/n32g430_comp.c ****             break;
 856              		.loc 1 326 29
 857 0066 3B68     		ldr	r3, [r7]
 858 0068 1343     		orrs	r3, r3, r2
 859 006a 0B63     		str	r3, [r1, #48]
 327:../firmware/n32g430_std_periph_driver/src/n32g430_comp.c ****         default:
 860              		.loc 1 327 13
 861 006c 00E0     		b	.L53
 862              	.L54:
 863              		.loc 1 329 13
 864 006e 00BF     		nop
 865              	.L53:
 330:../firmware/n32g430_std_periph_driver/src/n32g430_comp.c ****     }
 331:../firmware/n32g430_std_periph_driver/src/n32g430_comp.c **** }
 866              		.loc 1 331 1
 867 0070 00BF     		nop
 868 0072 0C37     		adds	r7, r7, #12
 869              	.LCFI41:
 870              		.cfi_def_cfa_offset 4
 871 0074 BD46     		mov	sp, r7
 872              	.LCFI42:
 873              		.cfi_def_cfa_register 13
 874              		@ sp needed
 875 0076 5DF8047B 		ldr	r7, [sp], #4
 876              	.LCFI43:
 877              		.cfi_restore 7
 878              		.cfi_def_cfa_offset 0
 879 007a 7047     		bx	lr
 880              	.L56:
 881              		.align	2
 882              	.L55:
 883 007c 00240040 		.word	1073751040
 884              		.cfi_endproc
 885              	.LFE137:
 887              		.section	.text.COMP_Hysteresis_Level_Config,"ax",%progbits
 888              		.align	1
 889              		.global	COMP_Hysteresis_Level_Config
 890              		.syntax unified
 891              		.thumb
 892              		.thumb_func
 894              	COMP_Hysteresis_Level_Config:
 895              	.LFB138:
 332:../firmware/n32g430_std_periph_driver/src/n32g430_comp.c **** 
 333:../firmware/n32g430_std_periph_driver/src/n32g430_comp.c **** /**
 334:../firmware/n32g430_std_periph_driver/src/n32g430_comp.c **** *\*\name    COMP_Hysteresis_Level_Config.
 335:../firmware/n32g430_std_periph_driver/src/n32g430_comp.c **** *\*\fun     Configures COMPx hysteresis level.
 336:../firmware/n32g430_std_periph_driver/src/n32g430_comp.c **** *\*\param   COMPx :
 337:../firmware/n32g430_std_periph_driver/src/n32g430_comp.c **** *\*\          - COMP1
 338:../firmware/n32g430_std_periph_driver/src/n32g430_comp.c **** *\*\          - COMP2
 339:../firmware/n32g430_std_periph_driver/src/n32g430_comp.c **** *\*\          - COMP3
 340:../firmware/n32g430_std_periph_driver/src/n32g430_comp.c **** *\*\param   hyst_mode :
 341:../firmware/n32g430_std_periph_driver/src/n32g430_comp.c **** *\*\          - COMP_HYST_NO   
 342:../firmware/n32g430_std_periph_driver/src/n32g430_comp.c **** *\*\          - COMP_HYST_LOW     5.1mV-level
 343:../firmware/n32g430_std_periph_driver/src/n32g430_comp.c **** *\*\          - COMP_HYST_MID     15mV-level
ARM GAS  C:\Users\ZShuai\AppData\Local\Temp\ccV30ir9.s 			page 25


 344:../firmware/n32g430_std_periph_driver/src/n32g430_comp.c **** *\*\          - COMP_HYST_HIGH    25mV-level   
 345:../firmware/n32g430_std_periph_driver/src/n32g430_comp.c **** *\*\return  none
 346:../firmware/n32g430_std_periph_driver/src/n32g430_comp.c **** **/
 347:../firmware/n32g430_std_periph_driver/src/n32g430_comp.c **** void COMP_Hysteresis_Level_Config(COMPX COMPx, uint32_t hyst_mode)
 348:../firmware/n32g430_std_periph_driver/src/n32g430_comp.c **** {
 896              		.loc 1 348 1
 897              		.cfi_startproc
 898              		@ args = 0, pretend = 0, frame = 8
 899              		@ frame_needed = 1, uses_anonymous_args = 0
 900              		@ link register save eliminated.
 901 0000 80B4     		push	{r7}
 902              	.LCFI44:
 903              		.cfi_def_cfa_offset 4
 904              		.cfi_offset 7, -4
 905 0002 83B0     		sub	sp, sp, #12
 906              	.LCFI45:
 907              		.cfi_def_cfa_offset 16
 908 0004 00AF     		add	r7, sp, #0
 909              	.LCFI46:
 910              		.cfi_def_cfa_register 7
 911 0006 0346     		mov	r3, r0
 912 0008 3960     		str	r1, [r7]
 913 000a FB71     		strb	r3, [r7, #7]
 349:../firmware/n32g430_std_periph_driver/src/n32g430_comp.c ****     switch (COMPx)
 914              		.loc 1 349 5
 915 000c FB79     		ldrb	r3, [r7, #7]	@ zero_extendqisi2
 916 000e 022B     		cmp	r3, #2
 917 0010 20D0     		beq	.L58
 918 0012 022B     		cmp	r3, #2
 919 0014 2BDC     		bgt	.L63
 920 0016 002B     		cmp	r3, #0
 921 0018 02D0     		beq	.L60
 922 001a 012B     		cmp	r3, #1
 923 001c 0DD0     		beq	.L61
 350:../firmware/n32g430_std_periph_driver/src/n32g430_comp.c ****     {
 351:../firmware/n32g430_std_periph_driver/src/n32g430_comp.c ****         case COMP1:
 352:../firmware/n32g430_std_periph_driver/src/n32g430_comp.c ****             /* Clear COMPx_CTRL HYST[1:0] bits */
 353:../firmware/n32g430_std_periph_driver/src/n32g430_comp.c ****             COMP->Cmp1.CTRL &= COMP_HYST_MASK;
 354:../firmware/n32g430_std_periph_driver/src/n32g430_comp.c ****             /* Set COMPx_CTRL HYST[1:0] bits */
 355:../firmware/n32g430_std_periph_driver/src/n32g430_comp.c ****             COMP->Cmp1.CTRL |= hyst_mode;
 356:../firmware/n32g430_std_periph_driver/src/n32g430_comp.c ****             break;
 357:../firmware/n32g430_std_periph_driver/src/n32g430_comp.c ****         case COMP2:
 358:../firmware/n32g430_std_periph_driver/src/n32g430_comp.c ****             /* Clear COMPx_CTRL HYST[1:0] bits */
 359:../firmware/n32g430_std_periph_driver/src/n32g430_comp.c ****             COMP->Cmp2.CTRL &= COMP_HYST_MASK;
 360:../firmware/n32g430_std_periph_driver/src/n32g430_comp.c ****             /* Set COMPx_CTRL HYST[1:0] bits */
 361:../firmware/n32g430_std_periph_driver/src/n32g430_comp.c ****             COMP->Cmp2.CTRL |= hyst_mode;
 362:../firmware/n32g430_std_periph_driver/src/n32g430_comp.c ****             break;
 363:../firmware/n32g430_std_periph_driver/src/n32g430_comp.c ****         case COMP3:
 364:../firmware/n32g430_std_periph_driver/src/n32g430_comp.c ****             /* Clear COMPx_CTRL HYST[1:0] bits */
 365:../firmware/n32g430_std_periph_driver/src/n32g430_comp.c ****             COMP->Cmp3.CTRL &= COMP_HYST_MASK;
 366:../firmware/n32g430_std_periph_driver/src/n32g430_comp.c ****             /* Set COMPx_CTRL HYST[1:0] bits */
 367:../firmware/n32g430_std_periph_driver/src/n32g430_comp.c ****             COMP->Cmp3.CTRL |= hyst_mode;
 368:../firmware/n32g430_std_periph_driver/src/n32g430_comp.c ****             break;
 369:../firmware/n32g430_std_periph_driver/src/n32g430_comp.c ****         default:
 370:../firmware/n32g430_std_periph_driver/src/n32g430_comp.c ****             break;
 924              		.loc 1 370 13
 925 001e 26E0     		b	.L63
ARM GAS  C:\Users\ZShuai\AppData\Local\Temp\ccV30ir9.s 			page 26


 926              	.L60:
 353:../firmware/n32g430_std_periph_driver/src/n32g430_comp.c ****             /* Set COMPx_CTRL HYST[1:0] bits */
 927              		.loc 1 353 17
 928 0020 164B     		ldr	r3, .L64
 353:../firmware/n32g430_std_periph_driver/src/n32g430_comp.c ****             /* Set COMPx_CTRL HYST[1:0] bits */
 929              		.loc 1 353 23
 930 0022 1B69     		ldr	r3, [r3, #16]
 353:../firmware/n32g430_std_periph_driver/src/n32g430_comp.c ****             /* Set COMPx_CTRL HYST[1:0] bits */
 931              		.loc 1 353 17
 932 0024 154A     		ldr	r2, .L64
 353:../firmware/n32g430_std_periph_driver/src/n32g430_comp.c ****             /* Set COMPx_CTRL HYST[1:0] bits */
 933              		.loc 1 353 29
 934 0026 23F44043 		bic	r3, r3, #49152
 935 002a 1361     		str	r3, [r2, #16]
 355:../firmware/n32g430_std_periph_driver/src/n32g430_comp.c ****             break;
 936              		.loc 1 355 17
 937 002c 134B     		ldr	r3, .L64
 355:../firmware/n32g430_std_periph_driver/src/n32g430_comp.c ****             break;
 938              		.loc 1 355 23
 939 002e 1A69     		ldr	r2, [r3, #16]
 355:../firmware/n32g430_std_periph_driver/src/n32g430_comp.c ****             break;
 940              		.loc 1 355 17
 941 0030 1249     		ldr	r1, .L64
 355:../firmware/n32g430_std_periph_driver/src/n32g430_comp.c ****             break;
 942              		.loc 1 355 29
 943 0032 3B68     		ldr	r3, [r7]
 944 0034 1343     		orrs	r3, r3, r2
 945 0036 0B61     		str	r3, [r1, #16]
 356:../firmware/n32g430_std_periph_driver/src/n32g430_comp.c ****         case COMP2:
 946              		.loc 1 356 13
 947 0038 1AE0     		b	.L62
 948              	.L61:
 359:../firmware/n32g430_std_periph_driver/src/n32g430_comp.c ****             /* Set COMPx_CTRL HYST[1:0] bits */
 949              		.loc 1 359 17
 950 003a 104B     		ldr	r3, .L64
 359:../firmware/n32g430_std_periph_driver/src/n32g430_comp.c ****             /* Set COMPx_CTRL HYST[1:0] bits */
 951              		.loc 1 359 23
 952 003c 1B6A     		ldr	r3, [r3, #32]
 359:../firmware/n32g430_std_periph_driver/src/n32g430_comp.c ****             /* Set COMPx_CTRL HYST[1:0] bits */
 953              		.loc 1 359 17
 954 003e 0F4A     		ldr	r2, .L64
 359:../firmware/n32g430_std_periph_driver/src/n32g430_comp.c ****             /* Set COMPx_CTRL HYST[1:0] bits */
 955              		.loc 1 359 29
 956 0040 23F44043 		bic	r3, r3, #49152
 957 0044 1362     		str	r3, [r2, #32]
 361:../firmware/n32g430_std_periph_driver/src/n32g430_comp.c ****             break;
 958              		.loc 1 361 17
 959 0046 0D4B     		ldr	r3, .L64
 361:../firmware/n32g430_std_periph_driver/src/n32g430_comp.c ****             break;
 960              		.loc 1 361 23
 961 0048 1A6A     		ldr	r2, [r3, #32]
 361:../firmware/n32g430_std_periph_driver/src/n32g430_comp.c ****             break;
 962              		.loc 1 361 17
 963 004a 0C49     		ldr	r1, .L64
 361:../firmware/n32g430_std_periph_driver/src/n32g430_comp.c ****             break;
 964              		.loc 1 361 29
 965 004c 3B68     		ldr	r3, [r7]
ARM GAS  C:\Users\ZShuai\AppData\Local\Temp\ccV30ir9.s 			page 27


 966 004e 1343     		orrs	r3, r3, r2
 967 0050 0B62     		str	r3, [r1, #32]
 362:../firmware/n32g430_std_periph_driver/src/n32g430_comp.c ****         case COMP3:
 968              		.loc 1 362 13
 969 0052 0DE0     		b	.L62
 970              	.L58:
 365:../firmware/n32g430_std_periph_driver/src/n32g430_comp.c ****             /* Set COMPx_CTRL HYST[1:0] bits */
 971              		.loc 1 365 17
 972 0054 094B     		ldr	r3, .L64
 365:../firmware/n32g430_std_periph_driver/src/n32g430_comp.c ****             /* Set COMPx_CTRL HYST[1:0] bits */
 973              		.loc 1 365 23
 974 0056 1B6B     		ldr	r3, [r3, #48]
 365:../firmware/n32g430_std_periph_driver/src/n32g430_comp.c ****             /* Set COMPx_CTRL HYST[1:0] bits */
 975              		.loc 1 365 17
 976 0058 084A     		ldr	r2, .L64
 365:../firmware/n32g430_std_periph_driver/src/n32g430_comp.c ****             /* Set COMPx_CTRL HYST[1:0] bits */
 977              		.loc 1 365 29
 978 005a 23F44043 		bic	r3, r3, #49152
 979 005e 1363     		str	r3, [r2, #48]
 367:../firmware/n32g430_std_periph_driver/src/n32g430_comp.c ****             break;
 980              		.loc 1 367 17
 981 0060 064B     		ldr	r3, .L64
 367:../firmware/n32g430_std_periph_driver/src/n32g430_comp.c ****             break;
 982              		.loc 1 367 23
 983 0062 1A6B     		ldr	r2, [r3, #48]
 367:../firmware/n32g430_std_periph_driver/src/n32g430_comp.c ****             break;
 984              		.loc 1 367 17
 985 0064 0549     		ldr	r1, .L64
 367:../firmware/n32g430_std_periph_driver/src/n32g430_comp.c ****             break;
 986              		.loc 1 367 29
 987 0066 3B68     		ldr	r3, [r7]
 988 0068 1343     		orrs	r3, r3, r2
 989 006a 0B63     		str	r3, [r1, #48]
 368:../firmware/n32g430_std_periph_driver/src/n32g430_comp.c ****         default:
 990              		.loc 1 368 13
 991 006c 00E0     		b	.L62
 992              	.L63:
 993              		.loc 1 370 13
 994 006e 00BF     		nop
 995              	.L62:
 371:../firmware/n32g430_std_periph_driver/src/n32g430_comp.c ****     }
 372:../firmware/n32g430_std_periph_driver/src/n32g430_comp.c **** }
 996              		.loc 1 372 1
 997 0070 00BF     		nop
 998 0072 0C37     		adds	r7, r7, #12
 999              	.LCFI47:
 1000              		.cfi_def_cfa_offset 4
 1001 0074 BD46     		mov	sp, r7
 1002              	.LCFI48:
 1003              		.cfi_def_cfa_register 13
 1004              		@ sp needed
 1005 0076 5DF8047B 		ldr	r7, [sp], #4
 1006              	.LCFI49:
 1007              		.cfi_restore 7
 1008              		.cfi_def_cfa_offset 0
 1009 007a 7047     		bx	lr
 1010              	.L65:
ARM GAS  C:\Users\ZShuai\AppData\Local\Temp\ccV30ir9.s 			page 28


 1011              		.align	2
 1012              	.L64:
 1013 007c 00240040 		.word	1073751040
 1014              		.cfi_endproc
 1015              	.LFE138:
 1017              		.section	.text.COMP_Output_Polarity_Config,"ax",%progbits
 1018              		.align	1
 1019              		.global	COMP_Output_Polarity_Config
 1020              		.syntax unified
 1021              		.thumb
 1022              		.thumb_func
 1024              	COMP_Output_Polarity_Config:
 1025              	.LFB139:
 373:../firmware/n32g430_std_periph_driver/src/n32g430_comp.c **** 
 374:../firmware/n32g430_std_periph_driver/src/n32g430_comp.c **** /**
 375:../firmware/n32g430_std_periph_driver/src/n32g430_comp.c **** *\*\name    COMP_Output_Polarity_Config.
 376:../firmware/n32g430_std_periph_driver/src/n32g430_comp.c **** *\*\fun     Configures COMPx output signal polarity overturn or not.
 377:../firmware/n32g430_std_periph_driver/src/n32g430_comp.c **** *\*\param   COMPx :
 378:../firmware/n32g430_std_periph_driver/src/n32g430_comp.c **** *\*\          - COMP1
 379:../firmware/n32g430_std_periph_driver/src/n32g430_comp.c **** *\*\          - COMP2
 380:../firmware/n32g430_std_periph_driver/src/n32g430_comp.c **** *\*\          - COMP3
 381:../firmware/n32g430_std_periph_driver/src/n32g430_comp.c **** *\*\param   output_pol :
 382:../firmware/n32g430_std_periph_driver/src/n32g430_comp.c **** *\*\          - COMP_OUTPOL_FLIP   
 383:../firmware/n32g430_std_periph_driver/src/n32g430_comp.c **** *\*\          - COMP_OUTPOL_NFLIP   
 384:../firmware/n32g430_std_periph_driver/src/n32g430_comp.c **** *\*\return  none
 385:../firmware/n32g430_std_periph_driver/src/n32g430_comp.c **** **/
 386:../firmware/n32g430_std_periph_driver/src/n32g430_comp.c **** void COMP_Output_Polarity_Config(COMPX COMPx, uint32_t output_pol)
 387:../firmware/n32g430_std_periph_driver/src/n32g430_comp.c **** {
 1026              		.loc 1 387 1
 1027              		.cfi_startproc
 1028              		@ args = 0, pretend = 0, frame = 8
 1029              		@ frame_needed = 1, uses_anonymous_args = 0
 1030              		@ link register save eliminated.
 1031 0000 80B4     		push	{r7}
 1032              	.LCFI50:
 1033              		.cfi_def_cfa_offset 4
 1034              		.cfi_offset 7, -4
 1035 0002 83B0     		sub	sp, sp, #12
 1036              	.LCFI51:
 1037              		.cfi_def_cfa_offset 16
 1038 0004 00AF     		add	r7, sp, #0
 1039              	.LCFI52:
 1040              		.cfi_def_cfa_register 7
 1041 0006 0346     		mov	r3, r0
 1042 0008 3960     		str	r1, [r7]
 1043 000a FB71     		strb	r3, [r7, #7]
 388:../firmware/n32g430_std_periph_driver/src/n32g430_comp.c ****     switch (COMPx)
 1044              		.loc 1 388 5
 1045 000c FB79     		ldrb	r3, [r7, #7]	@ zero_extendqisi2
 1046 000e 022B     		cmp	r3, #2
 1047 0010 20D0     		beq	.L67
 1048 0012 022B     		cmp	r3, #2
 1049 0014 2BDC     		bgt	.L72
 1050 0016 002B     		cmp	r3, #0
 1051 0018 02D0     		beq	.L69
 1052 001a 012B     		cmp	r3, #1
 1053 001c 0DD0     		beq	.L70
ARM GAS  C:\Users\ZShuai\AppData\Local\Temp\ccV30ir9.s 			page 29


 389:../firmware/n32g430_std_periph_driver/src/n32g430_comp.c ****     {
 390:../firmware/n32g430_std_periph_driver/src/n32g430_comp.c ****         case COMP1:
 391:../firmware/n32g430_std_periph_driver/src/n32g430_comp.c ****             /* Clear COMPx_CTRL POL bits */
 392:../firmware/n32g430_std_periph_driver/src/n32g430_comp.c ****             COMP->Cmp1.CTRL &= COMP_OUTPOL_MASK;
 393:../firmware/n32g430_std_periph_driver/src/n32g430_comp.c ****             /* Set COMPx_CTRL POL bits */
 394:../firmware/n32g430_std_periph_driver/src/n32g430_comp.c ****             COMP->Cmp1.CTRL |= output_pol;
 395:../firmware/n32g430_std_periph_driver/src/n32g430_comp.c ****             break;
 396:../firmware/n32g430_std_periph_driver/src/n32g430_comp.c ****         case COMP2:
 397:../firmware/n32g430_std_periph_driver/src/n32g430_comp.c ****             /* Clear COMPx_CTRL POL bits */
 398:../firmware/n32g430_std_periph_driver/src/n32g430_comp.c ****             COMP->Cmp2.CTRL &= COMP_OUTPOL_MASK;
 399:../firmware/n32g430_std_periph_driver/src/n32g430_comp.c ****             /* Set COMPx_CTRL POL bits */
 400:../firmware/n32g430_std_periph_driver/src/n32g430_comp.c ****             COMP->Cmp2.CTRL |= output_pol;
 401:../firmware/n32g430_std_periph_driver/src/n32g430_comp.c ****             break;
 402:../firmware/n32g430_std_periph_driver/src/n32g430_comp.c ****         case COMP3:
 403:../firmware/n32g430_std_periph_driver/src/n32g430_comp.c ****             /* Clear COMPx_CTRL POL bits */
 404:../firmware/n32g430_std_periph_driver/src/n32g430_comp.c ****             COMP->Cmp3.CTRL &= COMP_OUTPOL_MASK;
 405:../firmware/n32g430_std_periph_driver/src/n32g430_comp.c ****             /* Set COMPx_CTRL POL bits */
 406:../firmware/n32g430_std_periph_driver/src/n32g430_comp.c ****             COMP->Cmp3.CTRL |= output_pol;
 407:../firmware/n32g430_std_periph_driver/src/n32g430_comp.c ****             break;
 408:../firmware/n32g430_std_periph_driver/src/n32g430_comp.c ****         default:
 409:../firmware/n32g430_std_periph_driver/src/n32g430_comp.c ****             break;
 1054              		.loc 1 409 13
 1055 001e 26E0     		b	.L72
 1056              	.L69:
 392:../firmware/n32g430_std_periph_driver/src/n32g430_comp.c ****             /* Set COMPx_CTRL POL bits */
 1057              		.loc 1 392 17
 1058 0020 164B     		ldr	r3, .L73
 392:../firmware/n32g430_std_periph_driver/src/n32g430_comp.c ****             /* Set COMPx_CTRL POL bits */
 1059              		.loc 1 392 23
 1060 0022 1B69     		ldr	r3, [r3, #16]
 392:../firmware/n32g430_std_periph_driver/src/n32g430_comp.c ****             /* Set COMPx_CTRL POL bits */
 1061              		.loc 1 392 17
 1062 0024 154A     		ldr	r2, .L73
 392:../firmware/n32g430_std_periph_driver/src/n32g430_comp.c ****             /* Set COMPx_CTRL POL bits */
 1063              		.loc 1 392 29
 1064 0026 23F40053 		bic	r3, r3, #8192
 1065 002a 1361     		str	r3, [r2, #16]
 394:../firmware/n32g430_std_periph_driver/src/n32g430_comp.c ****             break;
 1066              		.loc 1 394 17
 1067 002c 134B     		ldr	r3, .L73
 394:../firmware/n32g430_std_periph_driver/src/n32g430_comp.c ****             break;
 1068              		.loc 1 394 23
 1069 002e 1A69     		ldr	r2, [r3, #16]
 394:../firmware/n32g430_std_periph_driver/src/n32g430_comp.c ****             break;
 1070              		.loc 1 394 17
 1071 0030 1249     		ldr	r1, .L73
 394:../firmware/n32g430_std_periph_driver/src/n32g430_comp.c ****             break;
 1072              		.loc 1 394 29
 1073 0032 3B68     		ldr	r3, [r7]
 1074 0034 1343     		orrs	r3, r3, r2
 1075 0036 0B61     		str	r3, [r1, #16]
 395:../firmware/n32g430_std_periph_driver/src/n32g430_comp.c ****         case COMP2:
 1076              		.loc 1 395 13
 1077 0038 1AE0     		b	.L71
 1078              	.L70:
 398:../firmware/n32g430_std_periph_driver/src/n32g430_comp.c ****             /* Set COMPx_CTRL POL bits */
 1079              		.loc 1 398 17
ARM GAS  C:\Users\ZShuai\AppData\Local\Temp\ccV30ir9.s 			page 30


 1080 003a 104B     		ldr	r3, .L73
 398:../firmware/n32g430_std_periph_driver/src/n32g430_comp.c ****             /* Set COMPx_CTRL POL bits */
 1081              		.loc 1 398 23
 1082 003c 1B6A     		ldr	r3, [r3, #32]
 398:../firmware/n32g430_std_periph_driver/src/n32g430_comp.c ****             /* Set COMPx_CTRL POL bits */
 1083              		.loc 1 398 17
 1084 003e 0F4A     		ldr	r2, .L73
 398:../firmware/n32g430_std_periph_driver/src/n32g430_comp.c ****             /* Set COMPx_CTRL POL bits */
 1085              		.loc 1 398 29
 1086 0040 23F40053 		bic	r3, r3, #8192
 1087 0044 1362     		str	r3, [r2, #32]
 400:../firmware/n32g430_std_periph_driver/src/n32g430_comp.c ****             break;
 1088              		.loc 1 400 17
 1089 0046 0D4B     		ldr	r3, .L73
 400:../firmware/n32g430_std_periph_driver/src/n32g430_comp.c ****             break;
 1090              		.loc 1 400 23
 1091 0048 1A6A     		ldr	r2, [r3, #32]
 400:../firmware/n32g430_std_periph_driver/src/n32g430_comp.c ****             break;
 1092              		.loc 1 400 17
 1093 004a 0C49     		ldr	r1, .L73
 400:../firmware/n32g430_std_periph_driver/src/n32g430_comp.c ****             break;
 1094              		.loc 1 400 29
 1095 004c 3B68     		ldr	r3, [r7]
 1096 004e 1343     		orrs	r3, r3, r2
 1097 0050 0B62     		str	r3, [r1, #32]
 401:../firmware/n32g430_std_periph_driver/src/n32g430_comp.c ****         case COMP3:
 1098              		.loc 1 401 13
 1099 0052 0DE0     		b	.L71
 1100              	.L67:
 404:../firmware/n32g430_std_periph_driver/src/n32g430_comp.c ****             /* Set COMPx_CTRL POL bits */
 1101              		.loc 1 404 17
 1102 0054 094B     		ldr	r3, .L73
 404:../firmware/n32g430_std_periph_driver/src/n32g430_comp.c ****             /* Set COMPx_CTRL POL bits */
 1103              		.loc 1 404 23
 1104 0056 1B6B     		ldr	r3, [r3, #48]
 404:../firmware/n32g430_std_periph_driver/src/n32g430_comp.c ****             /* Set COMPx_CTRL POL bits */
 1105              		.loc 1 404 17
 1106 0058 084A     		ldr	r2, .L73
 404:../firmware/n32g430_std_periph_driver/src/n32g430_comp.c ****             /* Set COMPx_CTRL POL bits */
 1107              		.loc 1 404 29
 1108 005a 23F40053 		bic	r3, r3, #8192
 1109 005e 1363     		str	r3, [r2, #48]
 406:../firmware/n32g430_std_periph_driver/src/n32g430_comp.c ****             break;
 1110              		.loc 1 406 17
 1111 0060 064B     		ldr	r3, .L73
 406:../firmware/n32g430_std_periph_driver/src/n32g430_comp.c ****             break;
 1112              		.loc 1 406 23
 1113 0062 1A6B     		ldr	r2, [r3, #48]
 406:../firmware/n32g430_std_periph_driver/src/n32g430_comp.c ****             break;
 1114              		.loc 1 406 17
 1115 0064 0549     		ldr	r1, .L73
 406:../firmware/n32g430_std_periph_driver/src/n32g430_comp.c ****             break;
 1116              		.loc 1 406 29
 1117 0066 3B68     		ldr	r3, [r7]
 1118 0068 1343     		orrs	r3, r3, r2
 1119 006a 0B63     		str	r3, [r1, #48]
 407:../firmware/n32g430_std_periph_driver/src/n32g430_comp.c ****         default:
ARM GAS  C:\Users\ZShuai\AppData\Local\Temp\ccV30ir9.s 			page 31


 1120              		.loc 1 407 13
 1121 006c 00E0     		b	.L71
 1122              	.L72:
 1123              		.loc 1 409 13
 1124 006e 00BF     		nop
 1125              	.L71:
 410:../firmware/n32g430_std_periph_driver/src/n32g430_comp.c ****     }
 411:../firmware/n32g430_std_periph_driver/src/n32g430_comp.c **** }
 1126              		.loc 1 411 1
 1127 0070 00BF     		nop
 1128 0072 0C37     		adds	r7, r7, #12
 1129              	.LCFI53:
 1130              		.cfi_def_cfa_offset 4
 1131 0074 BD46     		mov	sp, r7
 1132              	.LCFI54:
 1133              		.cfi_def_cfa_register 13
 1134              		@ sp needed
 1135 0076 5DF8047B 		ldr	r7, [sp], #4
 1136              	.LCFI55:
 1137              		.cfi_restore 7
 1138              		.cfi_def_cfa_offset 0
 1139 007a 7047     		bx	lr
 1140              	.L74:
 1141              		.align	2
 1142              	.L73:
 1143 007c 00240040 		.word	1073751040
 1144              		.cfi_endproc
 1145              	.LFE139:
 1147              		.section	.text.COMP_InpSel_Config,"ax",%progbits
 1148              		.align	1
 1149              		.global	COMP_InpSel_Config
 1150              		.syntax unified
 1151              		.thumb
 1152              		.thumb_func
 1154              	COMP_InpSel_Config:
 1155              	.LFB140:
 412:../firmware/n32g430_std_periph_driver/src/n32g430_comp.c **** 
 413:../firmware/n32g430_std_periph_driver/src/n32g430_comp.c **** /**
 414:../firmware/n32g430_std_periph_driver/src/n32g430_comp.c **** *\*\name    COMP_InpSel_Config.
 415:../firmware/n32g430_std_periph_driver/src/n32g430_comp.c **** *\*\fun     Configures COMPx inpsel.
 416:../firmware/n32g430_std_periph_driver/src/n32g430_comp.c **** *\*\param   COMPx :
 417:../firmware/n32g430_std_periph_driver/src/n32g430_comp.c **** *\*\          - COMP1
 418:../firmware/n32g430_std_periph_driver/src/n32g430_comp.c **** *\*\          - COMP2
 419:../firmware/n32g430_std_periph_driver/src/n32g430_comp.c **** *\*\          - COMP3
 420:../firmware/n32g430_std_periph_driver/src/n32g430_comp.c **** *\*\param   vpsel :
 421:../firmware/n32g430_std_periph_driver/src/n32g430_comp.c **** *\*\             comp1 inp sel 
 422:../firmware/n32g430_std_periph_driver/src/n32g430_comp.c **** *\*\            - COMP1_INPSEL_PA0                   
 423:../firmware/n32g430_std_periph_driver/src/n32g430_comp.c **** *\*\            - COMP1_INPSEL_PA2                   
 424:../firmware/n32g430_std_periph_driver/src/n32g430_comp.c **** *\*\            - COMP1_INPSEL_PA12                  
 425:../firmware/n32g430_std_periph_driver/src/n32g430_comp.c **** *\*\            - COMP1_INPSEL_PB3                   
 426:../firmware/n32g430_std_periph_driver/src/n32g430_comp.c **** *\*\            - COMP1_INPSEL_PB4                   
 427:../firmware/n32g430_std_periph_driver/src/n32g430_comp.c **** *\*\            - COMP1_INPSEL_PB10                  
 428:../firmware/n32g430_std_periph_driver/src/n32g430_comp.c **** *\*\            - COMP1_INPSEL_PA1                   
 429:../firmware/n32g430_std_periph_driver/src/n32g430_comp.c **** *\*\            - COMP1_INPSEL_FLOAT              
 430:../firmware/n32g430_std_periph_driver/src/n32g430_comp.c **** *\*\             comp2 inp sel 
 431:../firmware/n32g430_std_periph_driver/src/n32g430_comp.c **** *\*\            - COMP2_INPSEL_PA1                   
 432:../firmware/n32g430_std_periph_driver/src/n32g430_comp.c **** *\*\            - COMP2_INPSEL_PA3                  
ARM GAS  C:\Users\ZShuai\AppData\Local\Temp\ccV30ir9.s 			page 32


 433:../firmware/n32g430_std_periph_driver/src/n32g430_comp.c **** *\*\            - COMP2_INPSEL_PA6                  
 434:../firmware/n32g430_std_periph_driver/src/n32g430_comp.c **** *\*\            - COMP2_INPSEL_PA7                  
 435:../firmware/n32g430_std_periph_driver/src/n32g430_comp.c **** *\*\            - COMP2_INPSEL_PA11                
 436:../firmware/n32g430_std_periph_driver/src/n32g430_comp.c **** *\*\            - COMP2_INPSEL_PA15                
 437:../firmware/n32g430_std_periph_driver/src/n32g430_comp.c **** *\*\            - COMP2_INPSEL_PB7                 
 438:../firmware/n32g430_std_periph_driver/src/n32g430_comp.c **** *\*\            - COMP2_INPSEL_FLOAT                               
 439:../firmware/n32g430_std_periph_driver/src/n32g430_comp.c **** *\*\             comp3 inp sel 
 440:../firmware/n32g430_std_periph_driver/src/n32g430_comp.c **** *\*\            - COMP3_INPSEL_PA0               
 441:../firmware/n32g430_std_periph_driver/src/n32g430_comp.c **** *\*\            - COMP3_INPSEL_PB1                   
 442:../firmware/n32g430_std_periph_driver/src/n32g430_comp.c **** *\*\            - COMP3_INPSEL_PB11                  
 443:../firmware/n32g430_std_periph_driver/src/n32g430_comp.c **** *\*\            - COMP3_INPSEL_PB15                  
 444:../firmware/n32g430_std_periph_driver/src/n32g430_comp.c **** *\*\            - COMP3_INPSEL_PB3                   
 445:../firmware/n32g430_std_periph_driver/src/n32g430_comp.c **** *\*\            - COMP3_INPSEL_PB5                   
 446:../firmware/n32g430_std_periph_driver/src/n32g430_comp.c **** *\*\            - COMP3_INPSEL_FLOAT                 
 447:../firmware/n32g430_std_periph_driver/src/n32g430_comp.c **** *\*\            - COMP3_INPSEL_FLOAT                               
 448:../firmware/n32g430_std_periph_driver/src/n32g430_comp.c **** *\*\return  none
 449:../firmware/n32g430_std_periph_driver/src/n32g430_comp.c **** **/
 450:../firmware/n32g430_std_periph_driver/src/n32g430_comp.c **** void COMP_InpSel_Config(COMPX COMPx, uint32_t vpsel)
 451:../firmware/n32g430_std_periph_driver/src/n32g430_comp.c **** {
 1156              		.loc 1 451 1
 1157              		.cfi_startproc
 1158              		@ args = 0, pretend = 0, frame = 8
 1159              		@ frame_needed = 1, uses_anonymous_args = 0
 1160              		@ link register save eliminated.
 1161 0000 80B4     		push	{r7}
 1162              	.LCFI56:
 1163              		.cfi_def_cfa_offset 4
 1164              		.cfi_offset 7, -4
 1165 0002 83B0     		sub	sp, sp, #12
 1166              	.LCFI57:
 1167              		.cfi_def_cfa_offset 16
 1168 0004 00AF     		add	r7, sp, #0
 1169              	.LCFI58:
 1170              		.cfi_def_cfa_register 7
 1171 0006 0346     		mov	r3, r0
 1172 0008 3960     		str	r1, [r7]
 1173 000a FB71     		strb	r3, [r7, #7]
 452:../firmware/n32g430_std_periph_driver/src/n32g430_comp.c ****     switch (COMPx)
 1174              		.loc 1 452 5
 1175 000c FB79     		ldrb	r3, [r7, #7]	@ zero_extendqisi2
 1176 000e 022B     		cmp	r3, #2
 1177 0010 20D0     		beq	.L76
 1178 0012 022B     		cmp	r3, #2
 1179 0014 2BDC     		bgt	.L81
 1180 0016 002B     		cmp	r3, #0
 1181 0018 02D0     		beq	.L78
 1182 001a 012B     		cmp	r3, #1
 1183 001c 0DD0     		beq	.L79
 453:../firmware/n32g430_std_periph_driver/src/n32g430_comp.c ****     {
 454:../firmware/n32g430_std_periph_driver/src/n32g430_comp.c ****         case COMP1:
 455:../firmware/n32g430_std_periph_driver/src/n32g430_comp.c ****             /* Clear COMPx_CTRL INPSEL[2:0] bits */
 456:../firmware/n32g430_std_periph_driver/src/n32g430_comp.c ****             COMP->Cmp1.CTRL &= COMP_INPSEL_MASK;
 457:../firmware/n32g430_std_periph_driver/src/n32g430_comp.c ****             /* Set COMPx_CTRL INPSEL[2:0] bits */
 458:../firmware/n32g430_std_periph_driver/src/n32g430_comp.c ****             COMP->Cmp1.CTRL |= vpsel;
 459:../firmware/n32g430_std_periph_driver/src/n32g430_comp.c ****             break;
 460:../firmware/n32g430_std_periph_driver/src/n32g430_comp.c ****         case COMP2:
 461:../firmware/n32g430_std_periph_driver/src/n32g430_comp.c ****             /* Clear COMPx_CTRL INPSEL[2:0] bits */
ARM GAS  C:\Users\ZShuai\AppData\Local\Temp\ccV30ir9.s 			page 33


 462:../firmware/n32g430_std_periph_driver/src/n32g430_comp.c ****             COMP->Cmp2.CTRL &= COMP_INPSEL_MASK;
 463:../firmware/n32g430_std_periph_driver/src/n32g430_comp.c ****             /* Set COMPx_CTRL INPSEL[2:0] bits */
 464:../firmware/n32g430_std_periph_driver/src/n32g430_comp.c ****             COMP->Cmp2.CTRL |= vpsel;
 465:../firmware/n32g430_std_periph_driver/src/n32g430_comp.c ****             break;
 466:../firmware/n32g430_std_periph_driver/src/n32g430_comp.c ****         case COMP3:
 467:../firmware/n32g430_std_periph_driver/src/n32g430_comp.c ****             /* Clear COMPx_CTRL INPSEL[2:0] bits */
 468:../firmware/n32g430_std_periph_driver/src/n32g430_comp.c ****             COMP->Cmp3.CTRL &= COMP_INPSEL_MASK;
 469:../firmware/n32g430_std_periph_driver/src/n32g430_comp.c ****             /* Set COMPx_CTRL INPSEL[2:0] bits */
 470:../firmware/n32g430_std_periph_driver/src/n32g430_comp.c ****             COMP->Cmp3.CTRL |= vpsel;
 471:../firmware/n32g430_std_periph_driver/src/n32g430_comp.c ****             break;
 472:../firmware/n32g430_std_periph_driver/src/n32g430_comp.c ****         default:
 473:../firmware/n32g430_std_periph_driver/src/n32g430_comp.c ****             break;
 1184              		.loc 1 473 13
 1185 001e 26E0     		b	.L81
 1186              	.L78:
 456:../firmware/n32g430_std_periph_driver/src/n32g430_comp.c ****             /* Set COMPx_CTRL INPSEL[2:0] bits */
 1187              		.loc 1 456 17
 1188 0020 164B     		ldr	r3, .L82
 456:../firmware/n32g430_std_periph_driver/src/n32g430_comp.c ****             /* Set COMPx_CTRL INPSEL[2:0] bits */
 1189              		.loc 1 456 23
 1190 0022 1B69     		ldr	r3, [r3, #16]
 456:../firmware/n32g430_std_periph_driver/src/n32g430_comp.c ****             /* Set COMPx_CTRL INPSEL[2:0] bits */
 1191              		.loc 1 456 17
 1192 0024 154A     		ldr	r2, .L82
 456:../firmware/n32g430_std_periph_driver/src/n32g430_comp.c ****             /* Set COMPx_CTRL INPSEL[2:0] bits */
 1193              		.loc 1 456 29
 1194 0026 23F0E003 		bic	r3, r3, #224
 1195 002a 1361     		str	r3, [r2, #16]
 458:../firmware/n32g430_std_periph_driver/src/n32g430_comp.c ****             break;
 1196              		.loc 1 458 17
 1197 002c 134B     		ldr	r3, .L82
 458:../firmware/n32g430_std_periph_driver/src/n32g430_comp.c ****             break;
 1198              		.loc 1 458 23
 1199 002e 1A69     		ldr	r2, [r3, #16]
 458:../firmware/n32g430_std_periph_driver/src/n32g430_comp.c ****             break;
 1200              		.loc 1 458 17
 1201 0030 1249     		ldr	r1, .L82
 458:../firmware/n32g430_std_periph_driver/src/n32g430_comp.c ****             break;
 1202              		.loc 1 458 29
 1203 0032 3B68     		ldr	r3, [r7]
 1204 0034 1343     		orrs	r3, r3, r2
 1205 0036 0B61     		str	r3, [r1, #16]
 459:../firmware/n32g430_std_periph_driver/src/n32g430_comp.c ****         case COMP2:
 1206              		.loc 1 459 13
 1207 0038 1AE0     		b	.L80
 1208              	.L79:
 462:../firmware/n32g430_std_periph_driver/src/n32g430_comp.c ****             /* Set COMPx_CTRL INPSEL[2:0] bits */
 1209              		.loc 1 462 17
 1210 003a 104B     		ldr	r3, .L82
 462:../firmware/n32g430_std_periph_driver/src/n32g430_comp.c ****             /* Set COMPx_CTRL INPSEL[2:0] bits */
 1211              		.loc 1 462 23
 1212 003c 1B6A     		ldr	r3, [r3, #32]
 462:../firmware/n32g430_std_periph_driver/src/n32g430_comp.c ****             /* Set COMPx_CTRL INPSEL[2:0] bits */
 1213              		.loc 1 462 17
 1214 003e 0F4A     		ldr	r2, .L82
 462:../firmware/n32g430_std_periph_driver/src/n32g430_comp.c ****             /* Set COMPx_CTRL INPSEL[2:0] bits */
 1215              		.loc 1 462 29
ARM GAS  C:\Users\ZShuai\AppData\Local\Temp\ccV30ir9.s 			page 34


 1216 0040 23F0E003 		bic	r3, r3, #224
 1217 0044 1362     		str	r3, [r2, #32]
 464:../firmware/n32g430_std_periph_driver/src/n32g430_comp.c ****             break;
 1218              		.loc 1 464 17
 1219 0046 0D4B     		ldr	r3, .L82
 464:../firmware/n32g430_std_periph_driver/src/n32g430_comp.c ****             break;
 1220              		.loc 1 464 23
 1221 0048 1A6A     		ldr	r2, [r3, #32]
 464:../firmware/n32g430_std_periph_driver/src/n32g430_comp.c ****             break;
 1222              		.loc 1 464 17
 1223 004a 0C49     		ldr	r1, .L82
 464:../firmware/n32g430_std_periph_driver/src/n32g430_comp.c ****             break;
 1224              		.loc 1 464 29
 1225 004c 3B68     		ldr	r3, [r7]
 1226 004e 1343     		orrs	r3, r3, r2
 1227 0050 0B62     		str	r3, [r1, #32]
 465:../firmware/n32g430_std_periph_driver/src/n32g430_comp.c ****         case COMP3:
 1228              		.loc 1 465 13
 1229 0052 0DE0     		b	.L80
 1230              	.L76:
 468:../firmware/n32g430_std_periph_driver/src/n32g430_comp.c ****             /* Set COMPx_CTRL INPSEL[2:0] bits */
 1231              		.loc 1 468 17
 1232 0054 094B     		ldr	r3, .L82
 468:../firmware/n32g430_std_periph_driver/src/n32g430_comp.c ****             /* Set COMPx_CTRL INPSEL[2:0] bits */
 1233              		.loc 1 468 23
 1234 0056 1B6B     		ldr	r3, [r3, #48]
 468:../firmware/n32g430_std_periph_driver/src/n32g430_comp.c ****             /* Set COMPx_CTRL INPSEL[2:0] bits */
 1235              		.loc 1 468 17
 1236 0058 084A     		ldr	r2, .L82
 468:../firmware/n32g430_std_periph_driver/src/n32g430_comp.c ****             /* Set COMPx_CTRL INPSEL[2:0] bits */
 1237              		.loc 1 468 29
 1238 005a 23F0E003 		bic	r3, r3, #224
 1239 005e 1363     		str	r3, [r2, #48]
 470:../firmware/n32g430_std_periph_driver/src/n32g430_comp.c ****             break;
 1240              		.loc 1 470 17
 1241 0060 064B     		ldr	r3, .L82
 470:../firmware/n32g430_std_periph_driver/src/n32g430_comp.c ****             break;
 1242              		.loc 1 470 23
 1243 0062 1A6B     		ldr	r2, [r3, #48]
 470:../firmware/n32g430_std_periph_driver/src/n32g430_comp.c ****             break;
 1244              		.loc 1 470 17
 1245 0064 0549     		ldr	r1, .L82
 470:../firmware/n32g430_std_periph_driver/src/n32g430_comp.c ****             break;
 1246              		.loc 1 470 29
 1247 0066 3B68     		ldr	r3, [r7]
 1248 0068 1343     		orrs	r3, r3, r2
 1249 006a 0B63     		str	r3, [r1, #48]
 471:../firmware/n32g430_std_periph_driver/src/n32g430_comp.c ****         default:
 1250              		.loc 1 471 13
 1251 006c 00E0     		b	.L80
 1252              	.L81:
 1253              		.loc 1 473 13
 1254 006e 00BF     		nop
 1255              	.L80:
 474:../firmware/n32g430_std_periph_driver/src/n32g430_comp.c ****     }
 475:../firmware/n32g430_std_periph_driver/src/n32g430_comp.c **** }
 1256              		.loc 1 475 1
ARM GAS  C:\Users\ZShuai\AppData\Local\Temp\ccV30ir9.s 			page 35


 1257 0070 00BF     		nop
 1258 0072 0C37     		adds	r7, r7, #12
 1259              	.LCFI59:
 1260              		.cfi_def_cfa_offset 4
 1261 0074 BD46     		mov	sp, r7
 1262              	.LCFI60:
 1263              		.cfi_def_cfa_register 13
 1264              		@ sp needed
 1265 0076 5DF8047B 		ldr	r7, [sp], #4
 1266              	.LCFI61:
 1267              		.cfi_restore 7
 1268              		.cfi_def_cfa_offset 0
 1269 007a 7047     		bx	lr
 1270              	.L83:
 1271              		.align	2
 1272              	.L82:
 1273 007c 00240040 		.word	1073751040
 1274              		.cfi_endproc
 1275              	.LFE140:
 1277              		.section	.text.COMP_InmSel_Config,"ax",%progbits
 1278              		.align	1
 1279              		.global	COMP_InmSel_Config
 1280              		.syntax unified
 1281              		.thumb
 1282              		.thumb_func
 1284              	COMP_InmSel_Config:
 1285              	.LFB141:
 476:../firmware/n32g430_std_periph_driver/src/n32g430_comp.c **** 
 477:../firmware/n32g430_std_periph_driver/src/n32g430_comp.c **** /**
 478:../firmware/n32g430_std_periph_driver/src/n32g430_comp.c **** *\*\name    COMP_InmSel_Config.
 479:../firmware/n32g430_std_periph_driver/src/n32g430_comp.c **** *\*\fun     Configures COMPx inmsel.
 480:../firmware/n32g430_std_periph_driver/src/n32g430_comp.c **** *\*\param   COMPx :
 481:../firmware/n32g430_std_periph_driver/src/n32g430_comp.c **** *\*\          - COMP1
 482:../firmware/n32g430_std_periph_driver/src/n32g430_comp.c **** *\*\          - COMP2
 483:../firmware/n32g430_std_periph_driver/src/n32g430_comp.c **** *\*\          - COMP3
 484:../firmware/n32g430_std_periph_driver/src/n32g430_comp.c **** *\*\param   vmsel :
 485:../firmware/n32g430_std_periph_driver/src/n32g430_comp.c **** *\*\             comp1 inm sel 
 486:../firmware/n32g430_std_periph_driver/src/n32g430_comp.c **** *\*\            - COMP1_INMSEL_VREF_VC1              
 487:../firmware/n32g430_std_periph_driver/src/n32g430_comp.c **** *\*\            - COMP1_INMSEL_PA4                   
 488:../firmware/n32g430_std_periph_driver/src/n32g430_comp.c **** *\*\            - COMP1_INMSEL_PA0                   
 489:../firmware/n32g430_std_periph_driver/src/n32g430_comp.c **** *\*\            - COMP1_INMSEL_PA5                   
 490:../firmware/n32g430_std_periph_driver/src/n32g430_comp.c **** *\*\            - COMP1_INMSEL_PB5                   
 491:../firmware/n32g430_std_periph_driver/src/n32g430_comp.c **** *\*\            - COMP1_INMSEL_FLOAT                 
 492:../firmware/n32g430_std_periph_driver/src/n32g430_comp.c **** *\*\            - COMP1_INMSEL_FLOAT                 
 493:../firmware/n32g430_std_periph_driver/src/n32g430_comp.c **** *\*\            - COMP1_INMSEL_FLOAT                            
 494:../firmware/n32g430_std_periph_driver/src/n32g430_comp.c **** *\*\             comp2 inm sel 
 495:../firmware/n32g430_std_periph_driver/src/n32g430_comp.c **** *\*\            - COMP2_INMSEL_VERF_VC2              
 496:../firmware/n32g430_std_periph_driver/src/n32g430_comp.c **** *\*\            - COMP2_INMSEL_PA2                   
 497:../firmware/n32g430_std_periph_driver/src/n32g430_comp.c **** *\*\            - COMP2_INMSEL_PA5                   
 498:../firmware/n32g430_std_periph_driver/src/n32g430_comp.c **** *\*\            - COMP2_INMSEL_PA6                   
 499:../firmware/n32g430_std_periph_driver/src/n32g430_comp.c **** *\*\            - COMP2_INMSEL_PB3                   
 500:../firmware/n32g430_std_periph_driver/src/n32g430_comp.c **** *\*\            - COMP2_INMSEL_PA4                   
 501:../firmware/n32g430_std_periph_driver/src/n32g430_comp.c **** *\*\            - COMP2_INMSEL_FLOAT                 
 502:../firmware/n32g430_std_periph_driver/src/n32g430_comp.c **** *\*\            - COMP2_INMSEL_FLOAT                          
 503:../firmware/n32g430_std_periph_driver/src/n32g430_comp.c **** *\*\             comp3 inm sel 
 504:../firmware/n32g430_std_periph_driver/src/n32g430_comp.c **** *\*\            - COMP3_INMSEL_VREF_VC3           
 505:../firmware/n32g430_std_periph_driver/src/n32g430_comp.c **** *\*\            - COMP3_INMSEL_PA3                 
ARM GAS  C:\Users\ZShuai\AppData\Local\Temp\ccV30ir9.s 			page 36


 506:../firmware/n32g430_std_periph_driver/src/n32g430_comp.c **** *\*\            - COMP3_INMSEL_PB0                  
 507:../firmware/n32g430_std_periph_driver/src/n32g430_comp.c **** *\*\            - COMP3_INMSEL_PB2                
 508:../firmware/n32g430_std_periph_driver/src/n32g430_comp.c **** *\*\            - COMP3_INMSEL_PB14               
 509:../firmware/n32g430_std_periph_driver/src/n32g430_comp.c **** *\*\            - COMP3_INMSEL_FLOAT               
 510:../firmware/n32g430_std_periph_driver/src/n32g430_comp.c **** *\*\            - COMP3_INMSEL_FLOAT                
 511:../firmware/n32g430_std_periph_driver/src/n32g430_comp.c **** *\*\            - COMP3_INMSEL_FLOAT                               
 512:../firmware/n32g430_std_periph_driver/src/n32g430_comp.c **** *\*\return  none
 513:../firmware/n32g430_std_periph_driver/src/n32g430_comp.c **** **/
 514:../firmware/n32g430_std_periph_driver/src/n32g430_comp.c **** void COMP_InmSel_Config(COMPX COMPx, uint32_t vmsel)
 515:../firmware/n32g430_std_periph_driver/src/n32g430_comp.c **** {
 1286              		.loc 1 515 1
 1287              		.cfi_startproc
 1288              		@ args = 0, pretend = 0, frame = 8
 1289              		@ frame_needed = 1, uses_anonymous_args = 0
 1290              		@ link register save eliminated.
 1291 0000 80B4     		push	{r7}
 1292              	.LCFI62:
 1293              		.cfi_def_cfa_offset 4
 1294              		.cfi_offset 7, -4
 1295 0002 83B0     		sub	sp, sp, #12
 1296              	.LCFI63:
 1297              		.cfi_def_cfa_offset 16
 1298 0004 00AF     		add	r7, sp, #0
 1299              	.LCFI64:
 1300              		.cfi_def_cfa_register 7
 1301 0006 0346     		mov	r3, r0
 1302 0008 3960     		str	r1, [r7]
 1303 000a FB71     		strb	r3, [r7, #7]
 516:../firmware/n32g430_std_periph_driver/src/n32g430_comp.c ****     switch (COMPx)
 1304              		.loc 1 516 5
 1305 000c FB79     		ldrb	r3, [r7, #7]	@ zero_extendqisi2
 1306 000e 022B     		cmp	r3, #2
 1307 0010 20D0     		beq	.L85
 1308 0012 022B     		cmp	r3, #2
 1309 0014 2BDC     		bgt	.L90
 1310 0016 002B     		cmp	r3, #0
 1311 0018 02D0     		beq	.L87
 1312 001a 012B     		cmp	r3, #1
 1313 001c 0DD0     		beq	.L88
 517:../firmware/n32g430_std_periph_driver/src/n32g430_comp.c ****     {
 518:../firmware/n32g430_std_periph_driver/src/n32g430_comp.c ****         case COMP1:
 519:../firmware/n32g430_std_periph_driver/src/n32g430_comp.c ****             /* Clear COMPx_CTRL INMSEL[2:0] bits */
 520:../firmware/n32g430_std_periph_driver/src/n32g430_comp.c ****             COMP->Cmp1.CTRL &= COMP_INMSEL_MASK;
 521:../firmware/n32g430_std_periph_driver/src/n32g430_comp.c ****             /* Set COMPx_CTRL INMSEL[2:0] bits */
 522:../firmware/n32g430_std_periph_driver/src/n32g430_comp.c ****             COMP->Cmp1.CTRL |= vmsel;
 523:../firmware/n32g430_std_periph_driver/src/n32g430_comp.c ****             break;
 524:../firmware/n32g430_std_periph_driver/src/n32g430_comp.c ****         case COMP2:
 525:../firmware/n32g430_std_periph_driver/src/n32g430_comp.c ****             /* Clear COMPx_CTRL INMSEL[2:0] bits */
 526:../firmware/n32g430_std_periph_driver/src/n32g430_comp.c ****             COMP->Cmp2.CTRL &= COMP_INMSEL_MASK;
 527:../firmware/n32g430_std_periph_driver/src/n32g430_comp.c ****             /* Set COMPx_CTRL INMSEL[2:0] bits */
 528:../firmware/n32g430_std_periph_driver/src/n32g430_comp.c ****             COMP->Cmp2.CTRL |= vmsel;
 529:../firmware/n32g430_std_periph_driver/src/n32g430_comp.c ****             break;
 530:../firmware/n32g430_std_periph_driver/src/n32g430_comp.c ****         case COMP3:
 531:../firmware/n32g430_std_periph_driver/src/n32g430_comp.c ****             /* Clear COMPx_CTRL INMSEL[2:0] bits */
 532:../firmware/n32g430_std_periph_driver/src/n32g430_comp.c ****             COMP->Cmp3.CTRL &= COMP_INMSEL_MASK;
 533:../firmware/n32g430_std_periph_driver/src/n32g430_comp.c ****             /* Set COMPx_CTRL INMSEL[2:0] bits */
 534:../firmware/n32g430_std_periph_driver/src/n32g430_comp.c ****             COMP->Cmp3.CTRL |= vmsel;
ARM GAS  C:\Users\ZShuai\AppData\Local\Temp\ccV30ir9.s 			page 37


 535:../firmware/n32g430_std_periph_driver/src/n32g430_comp.c ****             break;
 536:../firmware/n32g430_std_periph_driver/src/n32g430_comp.c ****         default:
 537:../firmware/n32g430_std_periph_driver/src/n32g430_comp.c ****             break;
 1314              		.loc 1 537 13
 1315 001e 26E0     		b	.L90
 1316              	.L87:
 520:../firmware/n32g430_std_periph_driver/src/n32g430_comp.c ****             /* Set COMPx_CTRL INMSEL[2:0] bits */
 1317              		.loc 1 520 17
 1318 0020 164B     		ldr	r3, .L91
 520:../firmware/n32g430_std_periph_driver/src/n32g430_comp.c ****             /* Set COMPx_CTRL INMSEL[2:0] bits */
 1319              		.loc 1 520 23
 1320 0022 1B69     		ldr	r3, [r3, #16]
 520:../firmware/n32g430_std_periph_driver/src/n32g430_comp.c ****             /* Set COMPx_CTRL INMSEL[2:0] bits */
 1321              		.loc 1 520 17
 1322 0024 154A     		ldr	r2, .L91
 520:../firmware/n32g430_std_periph_driver/src/n32g430_comp.c ****             /* Set COMPx_CTRL INMSEL[2:0] bits */
 1323              		.loc 1 520 29
 1324 0026 23F00E03 		bic	r3, r3, #14
 1325 002a 1361     		str	r3, [r2, #16]
 522:../firmware/n32g430_std_periph_driver/src/n32g430_comp.c ****             break;
 1326              		.loc 1 522 17
 1327 002c 134B     		ldr	r3, .L91
 522:../firmware/n32g430_std_periph_driver/src/n32g430_comp.c ****             break;
 1328              		.loc 1 522 23
 1329 002e 1A69     		ldr	r2, [r3, #16]
 522:../firmware/n32g430_std_periph_driver/src/n32g430_comp.c ****             break;
 1330              		.loc 1 522 17
 1331 0030 1249     		ldr	r1, .L91
 522:../firmware/n32g430_std_periph_driver/src/n32g430_comp.c ****             break;
 1332              		.loc 1 522 29
 1333 0032 3B68     		ldr	r3, [r7]
 1334 0034 1343     		orrs	r3, r3, r2
 1335 0036 0B61     		str	r3, [r1, #16]
 523:../firmware/n32g430_std_periph_driver/src/n32g430_comp.c ****         case COMP2:
 1336              		.loc 1 523 13
 1337 0038 1AE0     		b	.L89
 1338              	.L88:
 526:../firmware/n32g430_std_periph_driver/src/n32g430_comp.c ****             /* Set COMPx_CTRL INMSEL[2:0] bits */
 1339              		.loc 1 526 17
 1340 003a 104B     		ldr	r3, .L91
 526:../firmware/n32g430_std_periph_driver/src/n32g430_comp.c ****             /* Set COMPx_CTRL INMSEL[2:0] bits */
 1341              		.loc 1 526 23
 1342 003c 1B6A     		ldr	r3, [r3, #32]
 526:../firmware/n32g430_std_periph_driver/src/n32g430_comp.c ****             /* Set COMPx_CTRL INMSEL[2:0] bits */
 1343              		.loc 1 526 17
 1344 003e 0F4A     		ldr	r2, .L91
 526:../firmware/n32g430_std_periph_driver/src/n32g430_comp.c ****             /* Set COMPx_CTRL INMSEL[2:0] bits */
 1345              		.loc 1 526 29
 1346 0040 23F00E03 		bic	r3, r3, #14
 1347 0044 1362     		str	r3, [r2, #32]
 528:../firmware/n32g430_std_periph_driver/src/n32g430_comp.c ****             break;
 1348              		.loc 1 528 17
 1349 0046 0D4B     		ldr	r3, .L91
 528:../firmware/n32g430_std_periph_driver/src/n32g430_comp.c ****             break;
 1350              		.loc 1 528 23
 1351 0048 1A6A     		ldr	r2, [r3, #32]
 528:../firmware/n32g430_std_periph_driver/src/n32g430_comp.c ****             break;
ARM GAS  C:\Users\ZShuai\AppData\Local\Temp\ccV30ir9.s 			page 38


 1352              		.loc 1 528 17
 1353 004a 0C49     		ldr	r1, .L91
 528:../firmware/n32g430_std_periph_driver/src/n32g430_comp.c ****             break;
 1354              		.loc 1 528 29
 1355 004c 3B68     		ldr	r3, [r7]
 1356 004e 1343     		orrs	r3, r3, r2
 1357 0050 0B62     		str	r3, [r1, #32]
 529:../firmware/n32g430_std_periph_driver/src/n32g430_comp.c ****         case COMP3:
 1358              		.loc 1 529 13
 1359 0052 0DE0     		b	.L89
 1360              	.L85:
 532:../firmware/n32g430_std_periph_driver/src/n32g430_comp.c ****             /* Set COMPx_CTRL INMSEL[2:0] bits */
 1361              		.loc 1 532 17
 1362 0054 094B     		ldr	r3, .L91
 532:../firmware/n32g430_std_periph_driver/src/n32g430_comp.c ****             /* Set COMPx_CTRL INMSEL[2:0] bits */
 1363              		.loc 1 532 23
 1364 0056 1B6B     		ldr	r3, [r3, #48]
 532:../firmware/n32g430_std_periph_driver/src/n32g430_comp.c ****             /* Set COMPx_CTRL INMSEL[2:0] bits */
 1365              		.loc 1 532 17
 1366 0058 084A     		ldr	r2, .L91
 532:../firmware/n32g430_std_periph_driver/src/n32g430_comp.c ****             /* Set COMPx_CTRL INMSEL[2:0] bits */
 1367              		.loc 1 532 29
 1368 005a 23F00E03 		bic	r3, r3, #14
 1369 005e 1363     		str	r3, [r2, #48]
 534:../firmware/n32g430_std_periph_driver/src/n32g430_comp.c ****             break;
 1370              		.loc 1 534 17
 1371 0060 064B     		ldr	r3, .L91
 534:../firmware/n32g430_std_periph_driver/src/n32g430_comp.c ****             break;
 1372              		.loc 1 534 23
 1373 0062 1A6B     		ldr	r2, [r3, #48]
 534:../firmware/n32g430_std_periph_driver/src/n32g430_comp.c ****             break;
 1374              		.loc 1 534 17
 1375 0064 0549     		ldr	r1, .L91
 534:../firmware/n32g430_std_periph_driver/src/n32g430_comp.c ****             break;
 1376              		.loc 1 534 29
 1377 0066 3B68     		ldr	r3, [r7]
 1378 0068 1343     		orrs	r3, r3, r2
 1379 006a 0B63     		str	r3, [r1, #48]
 535:../firmware/n32g430_std_periph_driver/src/n32g430_comp.c ****         default:
 1380              		.loc 1 535 13
 1381 006c 00E0     		b	.L89
 1382              	.L90:
 1383              		.loc 1 537 13
 1384 006e 00BF     		nop
 1385              	.L89:
 538:../firmware/n32g430_std_periph_driver/src/n32g430_comp.c ****     }
 539:../firmware/n32g430_std_periph_driver/src/n32g430_comp.c **** }
 1386              		.loc 1 539 1
 1387 0070 00BF     		nop
 1388 0072 0C37     		adds	r7, r7, #12
 1389              	.LCFI65:
 1390              		.cfi_def_cfa_offset 4
 1391 0074 BD46     		mov	sp, r7
 1392              	.LCFI66:
 1393              		.cfi_def_cfa_register 13
 1394              		@ sp needed
 1395 0076 5DF8047B 		ldr	r7, [sp], #4
ARM GAS  C:\Users\ZShuai\AppData\Local\Temp\ccV30ir9.s 			page 39


 1396              	.LCFI67:
 1397              		.cfi_restore 7
 1398              		.cfi_def_cfa_offset 0
 1399 007a 7047     		bx	lr
 1400              	.L92:
 1401              		.align	2
 1402              	.L91:
 1403 007c 00240040 		.word	1073751040
 1404              		.cfi_endproc
 1405              	.LFE141:
 1407              		.section	.text.COMP_Output_Trigger_Config,"ax",%progbits
 1408              		.align	1
 1409              		.global	COMP_Output_Trigger_Config
 1410              		.syntax unified
 1411              		.thumb
 1412              		.thumb_func
 1414              	COMP_Output_Trigger_Config:
 1415              	.LFB142:
 540:../firmware/n32g430_std_periph_driver/src/n32g430_comp.c **** 
 541:../firmware/n32g430_std_periph_driver/src/n32g430_comp.c **** /**
 542:../firmware/n32g430_std_periph_driver/src/n32g430_comp.c **** *\*\name    COMP_Output_Trigger_Config.
 543:../firmware/n32g430_std_periph_driver/src/n32g430_comp.c **** *\*\fun     Configures which Timer input must be connected with the comparator output.
 544:../firmware/n32g430_std_periph_driver/src/n32g430_comp.c **** *\*\param   COMPx :
 545:../firmware/n32g430_std_periph_driver/src/n32g430_comp.c **** *\*\          - COMP1
 546:../firmware/n32g430_std_periph_driver/src/n32g430_comp.c **** *\*\          - COMP2
 547:../firmware/n32g430_std_periph_driver/src/n32g430_comp.c **** *\*\          - COMP3
 548:../firmware/n32g430_std_periph_driver/src/n32g430_comp.c **** *\*\param   outtrgsel :
 549:../firmware/n32g430_std_periph_driver/src/n32g430_comp.c **** *\*\             comp1 out trig 
 550:../firmware/n32g430_std_periph_driver/src/n32g430_comp.c **** *\*\            - COMP1_OUTSEL_TIM1_BKIN             
 551:../firmware/n32g430_std_periph_driver/src/n32g430_comp.c **** *\*\            - COMP1_OUTSEL_TIM1_OCREFCLEAR       
 552:../firmware/n32g430_std_periph_driver/src/n32g430_comp.c **** *\*\            - COMP1_OUTSEL_TIM1_IC1              
 553:../firmware/n32g430_std_periph_driver/src/n32g430_comp.c **** *\*\            - COMP1_OUTSEL_TIM2_IC1              
 554:../firmware/n32g430_std_periph_driver/src/n32g430_comp.c **** *\*\            - COMP1_OUTSEL_TIM2_OCREFCLEAR       
 555:../firmware/n32g430_std_periph_driver/src/n32g430_comp.c **** *\*\            - COMP1_OUTSEL_TIM3_IC1              
 556:../firmware/n32g430_std_periph_driver/src/n32g430_comp.c **** *\*\            - COMP1_OUTSEL_TIM3_OCREFCLEAR       
 557:../firmware/n32g430_std_periph_driver/src/n32g430_comp.c **** *\*\            - COMP1_OUTSEL_TIM4_OCREFCLEAR       
 558:../firmware/n32g430_std_periph_driver/src/n32g430_comp.c **** *\*\            - COMP1_OUTSEL_TIM5_IC1              
 559:../firmware/n32g430_std_periph_driver/src/n32g430_comp.c **** *\*\            - COMP1_OUTSEL_TIM8_IC1              
 560:../firmware/n32g430_std_periph_driver/src/n32g430_comp.c **** *\*\            - COMP1_OUTSEL_TIM8_OCREFCLEAR       
 561:../firmware/n32g430_std_periph_driver/src/n32g430_comp.c **** *\*\            - COMP1_OUTSEL_TIM8_BKIN             
 562:../firmware/n32g430_std_periph_driver/src/n32g430_comp.c **** *\*\            - COMP1_OUTSEL_TIM1_BKIN_TIM8_BKIN   
 563:../firmware/n32g430_std_periph_driver/src/n32g430_comp.c **** *\*\            - COMP1_OUTSEL_LPTIM_ETR                 
 564:../firmware/n32g430_std_periph_driver/src/n32g430_comp.c **** *\*\             comp2 out trig 
 565:../firmware/n32g430_std_periph_driver/src/n32g430_comp.c **** *\*\            - COMP2_OUTSEL_TIM1_BKIN             
 566:../firmware/n32g430_std_periph_driver/src/n32g430_comp.c **** *\*\            - COMP2_OUTSEL_TIM1_OCREFCLEAR       
 567:../firmware/n32g430_std_periph_driver/src/n32g430_comp.c **** *\*\            - COMP2_OUTSEL_TIM1_IC1              
 568:../firmware/n32g430_std_periph_driver/src/n32g430_comp.c **** *\*\            - COMP2_OUTSEL_TIM2_OCREFCLEAR       
 569:../firmware/n32g430_std_periph_driver/src/n32g430_comp.c **** *\*\            - COMP2_OUTSEL_TIM3_OCREFCLEAR       
 570:../firmware/n32g430_std_periph_driver/src/n32g430_comp.c **** *\*\            - COMP2_OUTSEL_TIM4_IC1              
 571:../firmware/n32g430_std_periph_driver/src/n32g430_comp.c **** *\*\            - COMP2_OUTSEL_TIM4_OCREFCLEAR       
 572:../firmware/n32g430_std_periph_driver/src/n32g430_comp.c **** *\*\            - COMP2_OUTSEL_TIM5_IC1              
 573:../firmware/n32g430_std_periph_driver/src/n32g430_comp.c **** *\*\            - COMP2_OUTSEL_TIM8_IC1              
 574:../firmware/n32g430_std_periph_driver/src/n32g430_comp.c **** *\*\            - COMP2_OUTSEL_TIM8_OCREFCLEAR       
 575:../firmware/n32g430_std_periph_driver/src/n32g430_comp.c **** *\*\            - COMP2_OUTSEL_TIM8_BKIN             
 576:../firmware/n32g430_std_periph_driver/src/n32g430_comp.c **** *\*\            - COMP2_OUTSEL_TIM1_BKIN_TIM8_BKIN   
 577:../firmware/n32g430_std_periph_driver/src/n32g430_comp.c **** *\*\            - COMP2_OUTSEL_LPTIM_ETR             
 578:../firmware/n32g430_std_periph_driver/src/n32g430_comp.c **** *\*\             comp3 out trig 
ARM GAS  C:\Users\ZShuai\AppData\Local\Temp\ccV30ir9.s 			page 40


 579:../firmware/n32g430_std_periph_driver/src/n32g430_comp.c **** *\*\            - COMP3_OUTSEL_TIM1_BKIN             
 580:../firmware/n32g430_std_periph_driver/src/n32g430_comp.c **** *\*\            - COMP3_OUTSEL_TIM1_OCREFCLEAR       
 581:../firmware/n32g430_std_periph_driver/src/n32g430_comp.c **** *\*\            - COMP3_OUTSEL_TIM1_IC1              
 582:../firmware/n32g430_std_periph_driver/src/n32g430_comp.c **** *\*\            - COMP3_OUTSEL_TIM2_IC1                  
 583:../firmware/n32g430_std_periph_driver/src/n32g430_comp.c **** *\*\            - COMP3_OUTSEL_TIM3_IC1              
 584:../firmware/n32g430_std_periph_driver/src/n32g430_comp.c **** *\*\            - COMP3_OUTSEL_TIM3_OCREFCLEAR       
 585:../firmware/n32g430_std_periph_driver/src/n32g430_comp.c **** *\*\            - COMP3_OUTSEL_TIM4_OCREFCLEAR       
 586:../firmware/n32g430_std_periph_driver/src/n32g430_comp.c **** *\*\            - COMP3_OUTSEL_TIM5_IC1              
 587:../firmware/n32g430_std_periph_driver/src/n32g430_comp.c **** *\*\            - COMP3_OUTSEL_TIM8_IC1              
 588:../firmware/n32g430_std_periph_driver/src/n32g430_comp.c **** *\*\            - COMP3_OUTSEL_TIM8_OCREFCLEAR       
 589:../firmware/n32g430_std_periph_driver/src/n32g430_comp.c **** *\*\            - COMP3_OUTSEL_TIM8_BKIN             
 590:../firmware/n32g430_std_periph_driver/src/n32g430_comp.c **** *\*\            - COMP3_OUTSEL_TIM1_BKIN_TIM8_BKIN   
 591:../firmware/n32g430_std_periph_driver/src/n32g430_comp.c **** *\*\            - COMP3_OUTSEL_LPTIM_ETR             
 592:../firmware/n32g430_std_periph_driver/src/n32g430_comp.c **** *\*\return  none
 593:../firmware/n32g430_std_periph_driver/src/n32g430_comp.c **** **/
 594:../firmware/n32g430_std_periph_driver/src/n32g430_comp.c **** void COMP_Output_Trigger_Config(COMPX COMPx, uint32_t outtrgsel)
 595:../firmware/n32g430_std_periph_driver/src/n32g430_comp.c **** {
 1416              		.loc 1 595 1
 1417              		.cfi_startproc
 1418              		@ args = 0, pretend = 0, frame = 8
 1419              		@ frame_needed = 1, uses_anonymous_args = 0
 1420              		@ link register save eliminated.
 1421 0000 80B4     		push	{r7}
 1422              	.LCFI68:
 1423              		.cfi_def_cfa_offset 4
 1424              		.cfi_offset 7, -4
 1425 0002 83B0     		sub	sp, sp, #12
 1426              	.LCFI69:
 1427              		.cfi_def_cfa_offset 16
 1428 0004 00AF     		add	r7, sp, #0
 1429              	.LCFI70:
 1430              		.cfi_def_cfa_register 7
 1431 0006 0346     		mov	r3, r0
 1432 0008 3960     		str	r1, [r7]
 1433 000a FB71     		strb	r3, [r7, #7]
 596:../firmware/n32g430_std_periph_driver/src/n32g430_comp.c ****     switch (COMPx)
 1434              		.loc 1 596 5
 1435 000c FB79     		ldrb	r3, [r7, #7]	@ zero_extendqisi2
 1436 000e 022B     		cmp	r3, #2
 1437 0010 20D0     		beq	.L94
 1438 0012 022B     		cmp	r3, #2
 1439 0014 2BDC     		bgt	.L99
 1440 0016 002B     		cmp	r3, #0
 1441 0018 02D0     		beq	.L96
 1442 001a 012B     		cmp	r3, #1
 1443 001c 0DD0     		beq	.L97
 597:../firmware/n32g430_std_periph_driver/src/n32g430_comp.c ****     {
 598:../firmware/n32g430_std_periph_driver/src/n32g430_comp.c ****         case COMP1:
 599:../firmware/n32g430_std_periph_driver/src/n32g430_comp.c ****             /* Clear COMPx_CTRL OUTTRG[4:0] bits */
 600:../firmware/n32g430_std_periph_driver/src/n32g430_comp.c ****             COMP->Cmp1.CTRL &= COMP_OUTSEL_MASK;
 601:../firmware/n32g430_std_periph_driver/src/n32g430_comp.c ****             /* Set COMPx_CTRL OUTTRG[4:0] bits */ 
 602:../firmware/n32g430_std_periph_driver/src/n32g430_comp.c ****             COMP->Cmp1.CTRL |= outtrgsel;
 603:../firmware/n32g430_std_periph_driver/src/n32g430_comp.c ****             break;
 604:../firmware/n32g430_std_periph_driver/src/n32g430_comp.c ****         case COMP2:
 605:../firmware/n32g430_std_periph_driver/src/n32g430_comp.c ****             /* Clear COMPx_CTRL INMSEL[2:0] bits */
 606:../firmware/n32g430_std_periph_driver/src/n32g430_comp.c ****             /* Clear COMPx_CTRL OUTTRG[4:0] bits */
 607:../firmware/n32g430_std_periph_driver/src/n32g430_comp.c ****             COMP->Cmp2.CTRL &= COMP_OUTSEL_MASK;
ARM GAS  C:\Users\ZShuai\AppData\Local\Temp\ccV30ir9.s 			page 41


 608:../firmware/n32g430_std_periph_driver/src/n32g430_comp.c ****             /* Set COMPx_CTRL OUTTRG[4:0] bits */ 
 609:../firmware/n32g430_std_periph_driver/src/n32g430_comp.c ****             COMP->Cmp2.CTRL |= outtrgsel;
 610:../firmware/n32g430_std_periph_driver/src/n32g430_comp.c ****             break;
 611:../firmware/n32g430_std_periph_driver/src/n32g430_comp.c ****         case COMP3:
 612:../firmware/n32g430_std_periph_driver/src/n32g430_comp.c ****             /* Clear COMPx_CTRL OUTTRG[4:0] bits */
 613:../firmware/n32g430_std_periph_driver/src/n32g430_comp.c ****             COMP->Cmp3.CTRL &= COMP_OUTSEL_MASK;
 614:../firmware/n32g430_std_periph_driver/src/n32g430_comp.c ****             /* Set COMPx_CTRL OUTTRG[4:0] bits */ 
 615:../firmware/n32g430_std_periph_driver/src/n32g430_comp.c ****             COMP->Cmp3.CTRL |= outtrgsel;
 616:../firmware/n32g430_std_periph_driver/src/n32g430_comp.c ****             break;
 617:../firmware/n32g430_std_periph_driver/src/n32g430_comp.c ****         default:
 618:../firmware/n32g430_std_periph_driver/src/n32g430_comp.c ****             break;
 1444              		.loc 1 618 13
 1445 001e 26E0     		b	.L99
 1446              	.L96:
 600:../firmware/n32g430_std_periph_driver/src/n32g430_comp.c ****             /* Set COMPx_CTRL OUTTRG[4:0] bits */ 
 1447              		.loc 1 600 17
 1448 0020 164B     		ldr	r3, .L100
 600:../firmware/n32g430_std_periph_driver/src/n32g430_comp.c ****             /* Set COMPx_CTRL OUTTRG[4:0] bits */ 
 1449              		.loc 1 600 23
 1450 0022 1B69     		ldr	r3, [r3, #16]
 600:../firmware/n32g430_std_periph_driver/src/n32g430_comp.c ****             /* Set COMPx_CTRL OUTTRG[4:0] bits */ 
 1451              		.loc 1 600 17
 1452 0024 154A     		ldr	r2, .L100
 600:../firmware/n32g430_std_periph_driver/src/n32g430_comp.c ****             /* Set COMPx_CTRL OUTTRG[4:0] bits */ 
 1453              		.loc 1 600 29
 1454 0026 23F4F053 		bic	r3, r3, #7680
 1455 002a 1361     		str	r3, [r2, #16]
 602:../firmware/n32g430_std_periph_driver/src/n32g430_comp.c ****             break;
 1456              		.loc 1 602 17
 1457 002c 134B     		ldr	r3, .L100
 602:../firmware/n32g430_std_periph_driver/src/n32g430_comp.c ****             break;
 1458              		.loc 1 602 23
 1459 002e 1A69     		ldr	r2, [r3, #16]
 602:../firmware/n32g430_std_periph_driver/src/n32g430_comp.c ****             break;
 1460              		.loc 1 602 17
 1461 0030 1249     		ldr	r1, .L100
 602:../firmware/n32g430_std_periph_driver/src/n32g430_comp.c ****             break;
 1462              		.loc 1 602 29
 1463 0032 3B68     		ldr	r3, [r7]
 1464 0034 1343     		orrs	r3, r3, r2
 1465 0036 0B61     		str	r3, [r1, #16]
 603:../firmware/n32g430_std_periph_driver/src/n32g430_comp.c ****         case COMP2:
 1466              		.loc 1 603 13
 1467 0038 1AE0     		b	.L98
 1468              	.L97:
 607:../firmware/n32g430_std_periph_driver/src/n32g430_comp.c ****             /* Set COMPx_CTRL OUTTRG[4:0] bits */ 
 1469              		.loc 1 607 17
 1470 003a 104B     		ldr	r3, .L100
 607:../firmware/n32g430_std_periph_driver/src/n32g430_comp.c ****             /* Set COMPx_CTRL OUTTRG[4:0] bits */ 
 1471              		.loc 1 607 23
 1472 003c 1B6A     		ldr	r3, [r3, #32]
 607:../firmware/n32g430_std_periph_driver/src/n32g430_comp.c ****             /* Set COMPx_CTRL OUTTRG[4:0] bits */ 
 1473              		.loc 1 607 17
 1474 003e 0F4A     		ldr	r2, .L100
 607:../firmware/n32g430_std_periph_driver/src/n32g430_comp.c ****             /* Set COMPx_CTRL OUTTRG[4:0] bits */ 
 1475              		.loc 1 607 29
 1476 0040 23F4F053 		bic	r3, r3, #7680
ARM GAS  C:\Users\ZShuai\AppData\Local\Temp\ccV30ir9.s 			page 42


 1477 0044 1362     		str	r3, [r2, #32]
 609:../firmware/n32g430_std_periph_driver/src/n32g430_comp.c ****             break;
 1478              		.loc 1 609 17
 1479 0046 0D4B     		ldr	r3, .L100
 609:../firmware/n32g430_std_periph_driver/src/n32g430_comp.c ****             break;
 1480              		.loc 1 609 23
 1481 0048 1A6A     		ldr	r2, [r3, #32]
 609:../firmware/n32g430_std_periph_driver/src/n32g430_comp.c ****             break;
 1482              		.loc 1 609 17
 1483 004a 0C49     		ldr	r1, .L100
 609:../firmware/n32g430_std_periph_driver/src/n32g430_comp.c ****             break;
 1484              		.loc 1 609 29
 1485 004c 3B68     		ldr	r3, [r7]
 1486 004e 1343     		orrs	r3, r3, r2
 1487 0050 0B62     		str	r3, [r1, #32]
 610:../firmware/n32g430_std_periph_driver/src/n32g430_comp.c ****         case COMP3:
 1488              		.loc 1 610 13
 1489 0052 0DE0     		b	.L98
 1490              	.L94:
 613:../firmware/n32g430_std_periph_driver/src/n32g430_comp.c ****             /* Set COMPx_CTRL OUTTRG[4:0] bits */ 
 1491              		.loc 1 613 17
 1492 0054 094B     		ldr	r3, .L100
 613:../firmware/n32g430_std_periph_driver/src/n32g430_comp.c ****             /* Set COMPx_CTRL OUTTRG[4:0] bits */ 
 1493              		.loc 1 613 23
 1494 0056 1B6B     		ldr	r3, [r3, #48]
 613:../firmware/n32g430_std_periph_driver/src/n32g430_comp.c ****             /* Set COMPx_CTRL OUTTRG[4:0] bits */ 
 1495              		.loc 1 613 17
 1496 0058 084A     		ldr	r2, .L100
 613:../firmware/n32g430_std_periph_driver/src/n32g430_comp.c ****             /* Set COMPx_CTRL OUTTRG[4:0] bits */ 
 1497              		.loc 1 613 29
 1498 005a 23F4F053 		bic	r3, r3, #7680
 1499 005e 1363     		str	r3, [r2, #48]
 615:../firmware/n32g430_std_periph_driver/src/n32g430_comp.c ****             break;
 1500              		.loc 1 615 17
 1501 0060 064B     		ldr	r3, .L100
 615:../firmware/n32g430_std_periph_driver/src/n32g430_comp.c ****             break;
 1502              		.loc 1 615 23
 1503 0062 1A6B     		ldr	r2, [r3, #48]
 615:../firmware/n32g430_std_periph_driver/src/n32g430_comp.c ****             break;
 1504              		.loc 1 615 17
 1505 0064 0549     		ldr	r1, .L100
 615:../firmware/n32g430_std_periph_driver/src/n32g430_comp.c ****             break;
 1506              		.loc 1 615 29
 1507 0066 3B68     		ldr	r3, [r7]
 1508 0068 1343     		orrs	r3, r3, r2
 1509 006a 0B63     		str	r3, [r1, #48]
 616:../firmware/n32g430_std_periph_driver/src/n32g430_comp.c ****         default:
 1510              		.loc 1 616 13
 1511 006c 00E0     		b	.L98
 1512              	.L99:
 1513              		.loc 1 618 13
 1514 006e 00BF     		nop
 1515              	.L98:
 619:../firmware/n32g430_std_periph_driver/src/n32g430_comp.c ****     }
 620:../firmware/n32g430_std_periph_driver/src/n32g430_comp.c **** }
 1516              		.loc 1 620 1
 1517 0070 00BF     		nop
ARM GAS  C:\Users\ZShuai\AppData\Local\Temp\ccV30ir9.s 			page 43


 1518 0072 0C37     		adds	r7, r7, #12
 1519              	.LCFI71:
 1520              		.cfi_def_cfa_offset 4
 1521 0074 BD46     		mov	sp, r7
 1522              	.LCFI72:
 1523              		.cfi_def_cfa_register 13
 1524              		@ sp needed
 1525 0076 5DF8047B 		ldr	r7, [sp], #4
 1526              	.LCFI73:
 1527              		.cfi_restore 7
 1528              		.cfi_def_cfa_offset 0
 1529 007a 7047     		bx	lr
 1530              	.L101:
 1531              		.align	2
 1532              	.L100:
 1533 007c 00240040 		.word	1073751040
 1534              		.cfi_endproc
 1535              	.LFE142:
 1537              		.section	.text.COMP_ON,"ax",%progbits
 1538              		.align	1
 1539              		.global	COMP_ON
 1540              		.syntax unified
 1541              		.thumb
 1542              		.thumb_func
 1544              	COMP_ON:
 1545              	.LFB143:
 621:../firmware/n32g430_std_periph_driver/src/n32g430_comp.c **** 
 622:../firmware/n32g430_std_periph_driver/src/n32g430_comp.c **** /**
 623:../firmware/n32g430_std_periph_driver/src/n32g430_comp.c **** *\*\name    COMP_ON.
 624:../firmware/n32g430_std_periph_driver/src/n32g430_comp.c **** *\*\fun     Enable COMP.
 625:../firmware/n32g430_std_periph_driver/src/n32g430_comp.c **** *\*\param   COMPx :
 626:../firmware/n32g430_std_periph_driver/src/n32g430_comp.c **** *\*\          - COMP1
 627:../firmware/n32g430_std_periph_driver/src/n32g430_comp.c **** *\*\          - COMP2
 628:../firmware/n32g430_std_periph_driver/src/n32g430_comp.c **** *\*\          - COMP3
 629:../firmware/n32g430_std_periph_driver/src/n32g430_comp.c **** *\*\return  none
 630:../firmware/n32g430_std_periph_driver/src/n32g430_comp.c **** **/
 631:../firmware/n32g430_std_periph_driver/src/n32g430_comp.c **** void COMP_ON(COMPX COMPx)
 632:../firmware/n32g430_std_periph_driver/src/n32g430_comp.c **** {
 1546              		.loc 1 632 1
 1547              		.cfi_startproc
 1548              		@ args = 0, pretend = 0, frame = 8
 1549              		@ frame_needed = 1, uses_anonymous_args = 0
 1550              		@ link register save eliminated.
 1551 0000 80B4     		push	{r7}
 1552              	.LCFI74:
 1553              		.cfi_def_cfa_offset 4
 1554              		.cfi_offset 7, -4
 1555 0002 83B0     		sub	sp, sp, #12
 1556              	.LCFI75:
 1557              		.cfi_def_cfa_offset 16
 1558 0004 00AF     		add	r7, sp, #0
 1559              	.LCFI76:
 1560              		.cfi_def_cfa_register 7
 1561 0006 0346     		mov	r3, r0
 1562 0008 FB71     		strb	r3, [r7, #7]
 633:../firmware/n32g430_std_periph_driver/src/n32g430_comp.c ****     switch (COMPx)
 1563              		.loc 1 633 5
ARM GAS  C:\Users\ZShuai\AppData\Local\Temp\ccV30ir9.s 			page 44


 1564 000a FB79     		ldrb	r3, [r7, #7]	@ zero_extendqisi2
 1565 000c 022B     		cmp	r3, #2
 1566 000e 14D0     		beq	.L103
 1567 0010 022B     		cmp	r3, #2
 1568 0012 19DC     		bgt	.L108
 1569 0014 002B     		cmp	r3, #0
 1570 0016 02D0     		beq	.L105
 1571 0018 012B     		cmp	r3, #1
 1572 001a 07D0     		beq	.L106
 634:../firmware/n32g430_std_periph_driver/src/n32g430_comp.c ****     {
 635:../firmware/n32g430_std_periph_driver/src/n32g430_comp.c ****         case COMP1:
 636:../firmware/n32g430_std_periph_driver/src/n32g430_comp.c ****             /* Set the COMPx_CTRL EN bit to wake up the COMPx from power down mode */
 637:../firmware/n32g430_std_periph_driver/src/n32g430_comp.c ****             COMP->Cmp1.CTRL |= COMP_ENABLE;
 638:../firmware/n32g430_std_periph_driver/src/n32g430_comp.c ****             break;
 639:../firmware/n32g430_std_periph_driver/src/n32g430_comp.c ****         case COMP2:
 640:../firmware/n32g430_std_periph_driver/src/n32g430_comp.c ****             /* Set the COMPx_CTRL EN bit to wake up the COMPx from power down mode */
 641:../firmware/n32g430_std_periph_driver/src/n32g430_comp.c ****             COMP->Cmp2.CTRL |= COMP_ENABLE;
 642:../firmware/n32g430_std_periph_driver/src/n32g430_comp.c ****             break;
 643:../firmware/n32g430_std_periph_driver/src/n32g430_comp.c ****         case COMP3:
 644:../firmware/n32g430_std_periph_driver/src/n32g430_comp.c ****             /* Set the COMPx_CTRL EN bit to wake up the COMPx from power down mode */
 645:../firmware/n32g430_std_periph_driver/src/n32g430_comp.c ****             COMP->Cmp3.CTRL |= COMP_ENABLE;
 646:../firmware/n32g430_std_periph_driver/src/n32g430_comp.c ****             break;
 647:../firmware/n32g430_std_periph_driver/src/n32g430_comp.c ****         default:
 648:../firmware/n32g430_std_periph_driver/src/n32g430_comp.c ****             break;
 1573              		.loc 1 648 13
 1574 001c 14E0     		b	.L108
 1575              	.L105:
 637:../firmware/n32g430_std_periph_driver/src/n32g430_comp.c ****             break;
 1576              		.loc 1 637 17
 1577 001e 0E4B     		ldr	r3, .L109
 637:../firmware/n32g430_std_periph_driver/src/n32g430_comp.c ****             break;
 1578              		.loc 1 637 23
 1579 0020 1B69     		ldr	r3, [r3, #16]
 637:../firmware/n32g430_std_periph_driver/src/n32g430_comp.c ****             break;
 1580              		.loc 1 637 17
 1581 0022 0D4A     		ldr	r2, .L109
 637:../firmware/n32g430_std_periph_driver/src/n32g430_comp.c ****             break;
 1582              		.loc 1 637 29
 1583 0024 43F00103 		orr	r3, r3, #1
 1584 0028 1361     		str	r3, [r2, #16]
 638:../firmware/n32g430_std_periph_driver/src/n32g430_comp.c ****         case COMP2:
 1585              		.loc 1 638 13
 1586 002a 0EE0     		b	.L107
 1587              	.L106:
 641:../firmware/n32g430_std_periph_driver/src/n32g430_comp.c ****             break;
 1588              		.loc 1 641 17
 1589 002c 0A4B     		ldr	r3, .L109
 641:../firmware/n32g430_std_periph_driver/src/n32g430_comp.c ****             break;
 1590              		.loc 1 641 23
 1591 002e 1B6A     		ldr	r3, [r3, #32]
 641:../firmware/n32g430_std_periph_driver/src/n32g430_comp.c ****             break;
 1592              		.loc 1 641 17
 1593 0030 094A     		ldr	r2, .L109
 641:../firmware/n32g430_std_periph_driver/src/n32g430_comp.c ****             break;
 1594              		.loc 1 641 29
 1595 0032 43F00103 		orr	r3, r3, #1
 1596 0036 1362     		str	r3, [r2, #32]
ARM GAS  C:\Users\ZShuai\AppData\Local\Temp\ccV30ir9.s 			page 45


 642:../firmware/n32g430_std_periph_driver/src/n32g430_comp.c ****         case COMP3:
 1597              		.loc 1 642 13
 1598 0038 07E0     		b	.L107
 1599              	.L103:
 645:../firmware/n32g430_std_periph_driver/src/n32g430_comp.c ****             break;
 1600              		.loc 1 645 17
 1601 003a 074B     		ldr	r3, .L109
 645:../firmware/n32g430_std_periph_driver/src/n32g430_comp.c ****             break;
 1602              		.loc 1 645 23
 1603 003c 1B6B     		ldr	r3, [r3, #48]
 645:../firmware/n32g430_std_periph_driver/src/n32g430_comp.c ****             break;
 1604              		.loc 1 645 17
 1605 003e 064A     		ldr	r2, .L109
 645:../firmware/n32g430_std_periph_driver/src/n32g430_comp.c ****             break;
 1606              		.loc 1 645 29
 1607 0040 43F00103 		orr	r3, r3, #1
 1608 0044 1363     		str	r3, [r2, #48]
 646:../firmware/n32g430_std_periph_driver/src/n32g430_comp.c ****         default:
 1609              		.loc 1 646 13
 1610 0046 00E0     		b	.L107
 1611              	.L108:
 1612              		.loc 1 648 13
 1613 0048 00BF     		nop
 1614              	.L107:
 649:../firmware/n32g430_std_periph_driver/src/n32g430_comp.c ****     }
 650:../firmware/n32g430_std_periph_driver/src/n32g430_comp.c **** }
 1615              		.loc 1 650 1
 1616 004a 00BF     		nop
 1617 004c 0C37     		adds	r7, r7, #12
 1618              	.LCFI77:
 1619              		.cfi_def_cfa_offset 4
 1620 004e BD46     		mov	sp, r7
 1621              	.LCFI78:
 1622              		.cfi_def_cfa_register 13
 1623              		@ sp needed
 1624 0050 5DF8047B 		ldr	r7, [sp], #4
 1625              	.LCFI79:
 1626              		.cfi_restore 7
 1627              		.cfi_def_cfa_offset 0
 1628 0054 7047     		bx	lr
 1629              	.L110:
 1630 0056 00BF     		.align	2
 1631              	.L109:
 1632 0058 00240040 		.word	1073751040
 1633              		.cfi_endproc
 1634              	.LFE143:
 1636              		.section	.text.COMP_OFF,"ax",%progbits
 1637              		.align	1
 1638              		.global	COMP_OFF
 1639              		.syntax unified
 1640              		.thumb
 1641              		.thumb_func
 1643              	COMP_OFF:
 1644              	.LFB144:
 651:../firmware/n32g430_std_periph_driver/src/n32g430_comp.c **** 
 652:../firmware/n32g430_std_periph_driver/src/n32g430_comp.c **** /**
 653:../firmware/n32g430_std_periph_driver/src/n32g430_comp.c **** *\*\name    COMP_OFF.
ARM GAS  C:\Users\ZShuai\AppData\Local\Temp\ccV30ir9.s 			page 46


 654:../firmware/n32g430_std_periph_driver/src/n32g430_comp.c **** *\*\fun     Disable COMP.
 655:../firmware/n32g430_std_periph_driver/src/n32g430_comp.c **** *\*\param   COMPx :
 656:../firmware/n32g430_std_periph_driver/src/n32g430_comp.c **** *\*\          - COMP1
 657:../firmware/n32g430_std_periph_driver/src/n32g430_comp.c **** *\*\          - COMP2
 658:../firmware/n32g430_std_periph_driver/src/n32g430_comp.c **** *\*\          - COMP3
 659:../firmware/n32g430_std_periph_driver/src/n32g430_comp.c **** *\*\return  none
 660:../firmware/n32g430_std_periph_driver/src/n32g430_comp.c **** **/
 661:../firmware/n32g430_std_periph_driver/src/n32g430_comp.c **** void COMP_OFF(COMPX COMPx)
 662:../firmware/n32g430_std_periph_driver/src/n32g430_comp.c **** {
 1645              		.loc 1 662 1
 1646              		.cfi_startproc
 1647              		@ args = 0, pretend = 0, frame = 8
 1648              		@ frame_needed = 1, uses_anonymous_args = 0
 1649              		@ link register save eliminated.
 1650 0000 80B4     		push	{r7}
 1651              	.LCFI80:
 1652              		.cfi_def_cfa_offset 4
 1653              		.cfi_offset 7, -4
 1654 0002 83B0     		sub	sp, sp, #12
 1655              	.LCFI81:
 1656              		.cfi_def_cfa_offset 16
 1657 0004 00AF     		add	r7, sp, #0
 1658              	.LCFI82:
 1659              		.cfi_def_cfa_register 7
 1660 0006 0346     		mov	r3, r0
 1661 0008 FB71     		strb	r3, [r7, #7]
 663:../firmware/n32g430_std_periph_driver/src/n32g430_comp.c ****     switch (COMPx)
 1662              		.loc 1 663 5
 1663 000a FB79     		ldrb	r3, [r7, #7]	@ zero_extendqisi2
 1664 000c 022B     		cmp	r3, #2
 1665 000e 14D0     		beq	.L112
 1666 0010 022B     		cmp	r3, #2
 1667 0012 19DC     		bgt	.L117
 1668 0014 002B     		cmp	r3, #0
 1669 0016 02D0     		beq	.L114
 1670 0018 012B     		cmp	r3, #1
 1671 001a 07D0     		beq	.L115
 664:../firmware/n32g430_std_periph_driver/src/n32g430_comp.c ****     {
 665:../firmware/n32g430_std_periph_driver/src/n32g430_comp.c ****         case COMP1:
 666:../firmware/n32g430_std_periph_driver/src/n32g430_comp.c ****             /* Clear the COMPx_CTRL EN bit, The COMPx go to power down mode */
 667:../firmware/n32g430_std_periph_driver/src/n32g430_comp.c ****             COMP->Cmp1.CTRL &= COMP_DISABLE;
 668:../firmware/n32g430_std_periph_driver/src/n32g430_comp.c ****             break;
 669:../firmware/n32g430_std_periph_driver/src/n32g430_comp.c ****         case COMP2:
 670:../firmware/n32g430_std_periph_driver/src/n32g430_comp.c ****             /* Clear the COMPx_CTRL EN bit, The COMPx go to power down mode */
 671:../firmware/n32g430_std_periph_driver/src/n32g430_comp.c ****             COMP->Cmp2.CTRL &= COMP_DISABLE;
 672:../firmware/n32g430_std_periph_driver/src/n32g430_comp.c ****             break;
 673:../firmware/n32g430_std_periph_driver/src/n32g430_comp.c ****         case COMP3:
 674:../firmware/n32g430_std_periph_driver/src/n32g430_comp.c ****             /* Clear the COMPx_CTRL EN bit, The COMPx go to power down mode */
 675:../firmware/n32g430_std_periph_driver/src/n32g430_comp.c ****             COMP->Cmp3.CTRL &= COMP_DISABLE;
 676:../firmware/n32g430_std_periph_driver/src/n32g430_comp.c ****             break;
 677:../firmware/n32g430_std_periph_driver/src/n32g430_comp.c ****         default:
 678:../firmware/n32g430_std_periph_driver/src/n32g430_comp.c ****             break;
 1672              		.loc 1 678 13
 1673 001c 14E0     		b	.L117
 1674              	.L114:
 667:../firmware/n32g430_std_periph_driver/src/n32g430_comp.c ****             break;
 1675              		.loc 1 667 17
ARM GAS  C:\Users\ZShuai\AppData\Local\Temp\ccV30ir9.s 			page 47


 1676 001e 0E4B     		ldr	r3, .L118
 667:../firmware/n32g430_std_periph_driver/src/n32g430_comp.c ****             break;
 1677              		.loc 1 667 23
 1678 0020 1B69     		ldr	r3, [r3, #16]
 667:../firmware/n32g430_std_periph_driver/src/n32g430_comp.c ****             break;
 1679              		.loc 1 667 17
 1680 0022 0D4A     		ldr	r2, .L118
 667:../firmware/n32g430_std_periph_driver/src/n32g430_comp.c ****             break;
 1681              		.loc 1 667 29
 1682 0024 23F00103 		bic	r3, r3, #1
 1683 0028 1361     		str	r3, [r2, #16]
 668:../firmware/n32g430_std_periph_driver/src/n32g430_comp.c ****         case COMP2:
 1684              		.loc 1 668 13
 1685 002a 0EE0     		b	.L116
 1686              	.L115:
 671:../firmware/n32g430_std_periph_driver/src/n32g430_comp.c ****             break;
 1687              		.loc 1 671 17
 1688 002c 0A4B     		ldr	r3, .L118
 671:../firmware/n32g430_std_periph_driver/src/n32g430_comp.c ****             break;
 1689              		.loc 1 671 23
 1690 002e 1B6A     		ldr	r3, [r3, #32]
 671:../firmware/n32g430_std_periph_driver/src/n32g430_comp.c ****             break;
 1691              		.loc 1 671 17
 1692 0030 094A     		ldr	r2, .L118
 671:../firmware/n32g430_std_periph_driver/src/n32g430_comp.c ****             break;
 1693              		.loc 1 671 29
 1694 0032 23F00103 		bic	r3, r3, #1
 1695 0036 1362     		str	r3, [r2, #32]
 672:../firmware/n32g430_std_periph_driver/src/n32g430_comp.c ****         case COMP3:
 1696              		.loc 1 672 13
 1697 0038 07E0     		b	.L116
 1698              	.L112:
 675:../firmware/n32g430_std_periph_driver/src/n32g430_comp.c ****             break;
 1699              		.loc 1 675 17
 1700 003a 074B     		ldr	r3, .L118
 675:../firmware/n32g430_std_periph_driver/src/n32g430_comp.c ****             break;
 1701              		.loc 1 675 23
 1702 003c 1B6B     		ldr	r3, [r3, #48]
 675:../firmware/n32g430_std_periph_driver/src/n32g430_comp.c ****             break;
 1703              		.loc 1 675 17
 1704 003e 064A     		ldr	r2, .L118
 675:../firmware/n32g430_std_periph_driver/src/n32g430_comp.c ****             break;
 1705              		.loc 1 675 29
 1706 0040 23F00103 		bic	r3, r3, #1
 1707 0044 1363     		str	r3, [r2, #48]
 676:../firmware/n32g430_std_periph_driver/src/n32g430_comp.c ****         default:
 1708              		.loc 1 676 13
 1709 0046 00E0     		b	.L116
 1710              	.L117:
 1711              		.loc 1 678 13
 1712 0048 00BF     		nop
 1713              	.L116:
 679:../firmware/n32g430_std_periph_driver/src/n32g430_comp.c ****     }
 680:../firmware/n32g430_std_periph_driver/src/n32g430_comp.c **** }
 1714              		.loc 1 680 1
 1715 004a 00BF     		nop
 1716 004c 0C37     		adds	r7, r7, #12
ARM GAS  C:\Users\ZShuai\AppData\Local\Temp\ccV30ir9.s 			page 48


 1717              	.LCFI83:
 1718              		.cfi_def_cfa_offset 4
 1719 004e BD46     		mov	sp, r7
 1720              	.LCFI84:
 1721              		.cfi_def_cfa_register 13
 1722              		@ sp needed
 1723 0050 5DF8047B 		ldr	r7, [sp], #4
 1724              	.LCFI85:
 1725              		.cfi_restore 7
 1726              		.cfi_def_cfa_offset 0
 1727 0054 7047     		bx	lr
 1728              	.L119:
 1729 0056 00BF     		.align	2
 1730              	.L118:
 1731 0058 00240040 		.word	1073751040
 1732              		.cfi_endproc
 1733              	.LFE144:
 1735              		.section	.text.COMP_Lock_Config,"ax",%progbits
 1736              		.align	1
 1737              		.global	COMP_Lock_Config
 1738              		.syntax unified
 1739              		.thumb
 1740              		.thumb_func
 1742              	COMP_Lock_Config:
 1743              	.LFB145:
 681:../firmware/n32g430_std_periph_driver/src/n32g430_comp.c **** 
 682:../firmware/n32g430_std_periph_driver/src/n32g430_comp.c **** /**
 683:../firmware/n32g430_std_periph_driver/src/n32g430_comp.c **** *\*\name    COMP_Lock_Config.
 684:../firmware/n32g430_std_periph_driver/src/n32g430_comp.c **** *\*\fun     Configures which COMPx will be Locked.
 685:../firmware/n32g430_std_periph_driver/src/n32g430_comp.c **** *\*\param   Lock :
 686:../firmware/n32g430_std_periph_driver/src/n32g430_comp.c **** *\*\          - COMP1_LOCK_MSK
 687:../firmware/n32g430_std_periph_driver/src/n32g430_comp.c **** *\*\          - COMP2_LOCK_MSK
 688:../firmware/n32g430_std_periph_driver/src/n32g430_comp.c **** *\*\          - COMP3_LOCK_MSK
 689:../firmware/n32g430_std_periph_driver/src/n32g430_comp.c **** *\*\return  none
 690:../firmware/n32g430_std_periph_driver/src/n32g430_comp.c **** **/
 691:../firmware/n32g430_std_periph_driver/src/n32g430_comp.c **** void COMP_Lock_Config(uint32_t lock)
 692:../firmware/n32g430_std_periph_driver/src/n32g430_comp.c **** {
 1744              		.loc 1 692 1
 1745              		.cfi_startproc
 1746              		@ args = 0, pretend = 0, frame = 8
 1747              		@ frame_needed = 1, uses_anonymous_args = 0
 1748              		@ link register save eliminated.
 1749 0000 80B4     		push	{r7}
 1750              	.LCFI86:
 1751              		.cfi_def_cfa_offset 4
 1752              		.cfi_offset 7, -4
 1753 0002 83B0     		sub	sp, sp, #12
 1754              	.LCFI87:
 1755              		.cfi_def_cfa_offset 16
 1756 0004 00AF     		add	r7, sp, #0
 1757              	.LCFI88:
 1758              		.cfi_def_cfa_register 7
 1759 0006 7860     		str	r0, [r7, #4]
 693:../firmware/n32g430_std_periph_driver/src/n32g430_comp.c ****     COMP->LOCK |= lock;
 1760              		.loc 1 693 9
 1761 0008 054B     		ldr	r3, .L121
 1762 000a DA68     		ldr	r2, [r3, #12]
ARM GAS  C:\Users\ZShuai\AppData\Local\Temp\ccV30ir9.s 			page 49


 1763 000c 0449     		ldr	r1, .L121
 1764              		.loc 1 693 16
 1765 000e 7B68     		ldr	r3, [r7, #4]
 1766 0010 1343     		orrs	r3, r3, r2
 1767 0012 CB60     		str	r3, [r1, #12]
 694:../firmware/n32g430_std_periph_driver/src/n32g430_comp.c **** }
 1768              		.loc 1 694 1
 1769 0014 00BF     		nop
 1770 0016 0C37     		adds	r7, r7, #12
 1771              	.LCFI89:
 1772              		.cfi_def_cfa_offset 4
 1773 0018 BD46     		mov	sp, r7
 1774              	.LCFI90:
 1775              		.cfi_def_cfa_register 13
 1776              		@ sp needed
 1777 001a 5DF8047B 		ldr	r7, [sp], #4
 1778              	.LCFI91:
 1779              		.cfi_restore 7
 1780              		.cfi_def_cfa_offset 0
 1781 001e 7047     		bx	lr
 1782              	.L122:
 1783              		.align	2
 1784              	.L121:
 1785 0020 00240040 		.word	1073751040
 1786              		.cfi_endproc
 1787              	.LFE145:
 1789              		.section	.text.COMP_Interrupt_Enable,"ax",%progbits
 1790              		.align	1
 1791              		.global	COMP_Interrupt_Enable
 1792              		.syntax unified
 1793              		.thumb
 1794              		.thumb_func
 1796              	COMP_Interrupt_Enable:
 1797              	.LFB146:
 695:../firmware/n32g430_std_periph_driver/src/n32g430_comp.c **** 
 696:../firmware/n32g430_std_periph_driver/src/n32g430_comp.c **** /**
 697:../firmware/n32g430_std_periph_driver/src/n32g430_comp.c **** *\*\name    COMP_Interrupt_Enable.
 698:../firmware/n32g430_std_periph_driver/src/n32g430_comp.c **** *\*\fun     Configures COMPx interrupt enable.
 699:../firmware/n32g430_std_periph_driver/src/n32g430_comp.c **** *\*\param   IntEn :
 700:../firmware/n32g430_std_periph_driver/src/n32g430_comp.c **** *\*\          - COMP1_INTEN
 701:../firmware/n32g430_std_periph_driver/src/n32g430_comp.c **** *\*\          - COMP2_INTEN
 702:../firmware/n32g430_std_periph_driver/src/n32g430_comp.c **** *\*\          - COMP3_INTEN
 703:../firmware/n32g430_std_periph_driver/src/n32g430_comp.c **** *\*\return  none
 704:../firmware/n32g430_std_periph_driver/src/n32g430_comp.c **** **/
 705:../firmware/n32g430_std_periph_driver/src/n32g430_comp.c **** void COMP_Interrupt_Enable(uint32_t inten)
 706:../firmware/n32g430_std_periph_driver/src/n32g430_comp.c **** {
 1798              		.loc 1 706 1
 1799              		.cfi_startproc
 1800              		@ args = 0, pretend = 0, frame = 8
 1801              		@ frame_needed = 1, uses_anonymous_args = 0
 1802              		@ link register save eliminated.
 1803 0000 80B4     		push	{r7}
 1804              	.LCFI92:
 1805              		.cfi_def_cfa_offset 4
 1806              		.cfi_offset 7, -4
 1807 0002 83B0     		sub	sp, sp, #12
 1808              	.LCFI93:
ARM GAS  C:\Users\ZShuai\AppData\Local\Temp\ccV30ir9.s 			page 50


 1809              		.cfi_def_cfa_offset 16
 1810 0004 00AF     		add	r7, sp, #0
 1811              	.LCFI94:
 1812              		.cfi_def_cfa_register 7
 1813 0006 7860     		str	r0, [r7, #4]
 707:../firmware/n32g430_std_periph_driver/src/n32g430_comp.c ****     COMP->INTEN |= inten;
 1814              		.loc 1 707 9
 1815 0008 054B     		ldr	r3, .L124
 1816 000a 1A68     		ldr	r2, [r3]
 1817 000c 0449     		ldr	r1, .L124
 1818              		.loc 1 707 17
 1819 000e 7B68     		ldr	r3, [r7, #4]
 1820 0010 1343     		orrs	r3, r3, r2
 1821 0012 0B60     		str	r3, [r1]
 708:../firmware/n32g430_std_periph_driver/src/n32g430_comp.c **** }
 1822              		.loc 1 708 1
 1823 0014 00BF     		nop
 1824 0016 0C37     		adds	r7, r7, #12
 1825              	.LCFI95:
 1826              		.cfi_def_cfa_offset 4
 1827 0018 BD46     		mov	sp, r7
 1828              	.LCFI96:
 1829              		.cfi_def_cfa_register 13
 1830              		@ sp needed
 1831 001a 5DF8047B 		ldr	r7, [sp], #4
 1832              	.LCFI97:
 1833              		.cfi_restore 7
 1834              		.cfi_def_cfa_offset 0
 1835 001e 7047     		bx	lr
 1836              	.L125:
 1837              		.align	2
 1838              	.L124:
 1839 0020 00240040 		.word	1073751040
 1840              		.cfi_endproc
 1841              	.LFE146:
 1843              		.section	.text.COMP_Interrupt_Disable,"ax",%progbits
 1844              		.align	1
 1845              		.global	COMP_Interrupt_Disable
 1846              		.syntax unified
 1847              		.thumb
 1848              		.thumb_func
 1850              	COMP_Interrupt_Disable:
 1851              	.LFB147:
 709:../firmware/n32g430_std_periph_driver/src/n32g430_comp.c **** 
 710:../firmware/n32g430_std_periph_driver/src/n32g430_comp.c **** /**
 711:../firmware/n32g430_std_periph_driver/src/n32g430_comp.c **** *\*\name    COMP_Interrupt_Disable.
 712:../firmware/n32g430_std_periph_driver/src/n32g430_comp.c **** *\*\fun     Configures COMPx interrupt disable.
 713:../firmware/n32g430_std_periph_driver/src/n32g430_comp.c **** *\*\param   IntEn :
 714:../firmware/n32g430_std_periph_driver/src/n32g430_comp.c **** *\*\          - COMP1_INTEN
 715:../firmware/n32g430_std_periph_driver/src/n32g430_comp.c **** *\*\          - COMP2_INTEN
 716:../firmware/n32g430_std_periph_driver/src/n32g430_comp.c **** *\*\          - COMP3_INTEN
 717:../firmware/n32g430_std_periph_driver/src/n32g430_comp.c **** *\*\return  none
 718:../firmware/n32g430_std_periph_driver/src/n32g430_comp.c **** **/
 719:../firmware/n32g430_std_periph_driver/src/n32g430_comp.c **** void COMP_Interrupt_Disable(uint32_t inten)
 720:../firmware/n32g430_std_periph_driver/src/n32g430_comp.c **** {
 1852              		.loc 1 720 1
 1853              		.cfi_startproc
ARM GAS  C:\Users\ZShuai\AppData\Local\Temp\ccV30ir9.s 			page 51


 1854              		@ args = 0, pretend = 0, frame = 8
 1855              		@ frame_needed = 1, uses_anonymous_args = 0
 1856              		@ link register save eliminated.
 1857 0000 80B4     		push	{r7}
 1858              	.LCFI98:
 1859              		.cfi_def_cfa_offset 4
 1860              		.cfi_offset 7, -4
 1861 0002 83B0     		sub	sp, sp, #12
 1862              	.LCFI99:
 1863              		.cfi_def_cfa_offset 16
 1864 0004 00AF     		add	r7, sp, #0
 1865              	.LCFI100:
 1866              		.cfi_def_cfa_register 7
 1867 0006 7860     		str	r0, [r7, #4]
 721:../firmware/n32g430_std_periph_driver/src/n32g430_comp.c ****     COMP->INTEN &= ~inten;
 1868              		.loc 1 721 9
 1869 0008 064B     		ldr	r3, .L127
 1870 000a 1A68     		ldr	r2, [r3]
 1871              		.loc 1 721 20
 1872 000c 7B68     		ldr	r3, [r7, #4]
 1873 000e DB43     		mvns	r3, r3
 1874              		.loc 1 721 9
 1875 0010 0449     		ldr	r1, .L127
 1876              		.loc 1 721 17
 1877 0012 1340     		ands	r3, r3, r2
 1878 0014 0B60     		str	r3, [r1]
 722:../firmware/n32g430_std_periph_driver/src/n32g430_comp.c **** }
 1879              		.loc 1 722 1
 1880 0016 00BF     		nop
 1881 0018 0C37     		adds	r7, r7, #12
 1882              	.LCFI101:
 1883              		.cfi_def_cfa_offset 4
 1884 001a BD46     		mov	sp, r7
 1885              	.LCFI102:
 1886              		.cfi_def_cfa_register 13
 1887              		@ sp needed
 1888 001c 5DF8047B 		ldr	r7, [sp], #4
 1889              	.LCFI103:
 1890              		.cfi_restore 7
 1891              		.cfi_def_cfa_offset 0
 1892 0020 7047     		bx	lr
 1893              	.L128:
 1894 0022 00BF     		.align	2
 1895              	.L127:
 1896 0024 00240040 		.word	1073751040
 1897              		.cfi_endproc
 1898              	.LFE147:
 1900              		.section	.text.COMP_Interrupt_Status_Get,"ax",%progbits
 1901              		.align	1
 1902              		.global	COMP_Interrupt_Status_Get
 1903              		.syntax unified
 1904              		.thumb
 1905              		.thumb_func
 1907              	COMP_Interrupt_Status_Get:
 1908              	.LFB148:
 723:../firmware/n32g430_std_periph_driver/src/n32g430_comp.c **** 
 724:../firmware/n32g430_std_periph_driver/src/n32g430_comp.c **** /**
ARM GAS  C:\Users\ZShuai\AppData\Local\Temp\ccV30ir9.s 			page 52


 725:../firmware/n32g430_std_periph_driver/src/n32g430_comp.c **** *\*\name    COMP_Interrupt_Status_Get.
 726:../firmware/n32g430_std_periph_driver/src/n32g430_comp.c **** *\*\fun     Get COMPx interrupt Status.
 727:../firmware/n32g430_std_periph_driver/src/n32g430_comp.c **** *\*\return 
 728:../firmware/n32g430_std_periph_driver/src/n32g430_comp.c **** *\*\          - COMP1_INTSTS
 729:../firmware/n32g430_std_periph_driver/src/n32g430_comp.c **** *\*\          - COMP2_INTSTS
 730:../firmware/n32g430_std_periph_driver/src/n32g430_comp.c **** *\*\          - COMP3_INTSTS
 731:../firmware/n32g430_std_periph_driver/src/n32g430_comp.c **** **/
 732:../firmware/n32g430_std_periph_driver/src/n32g430_comp.c **** uint8_t COMP_Interrupt_Status_Get(void)
 733:../firmware/n32g430_std_periph_driver/src/n32g430_comp.c **** {
 1909              		.loc 1 733 1
 1910              		.cfi_startproc
 1911              		@ args = 0, pretend = 0, frame = 0
 1912              		@ frame_needed = 1, uses_anonymous_args = 0
 1913              		@ link register save eliminated.
 1914 0000 80B4     		push	{r7}
 1915              	.LCFI104:
 1916              		.cfi_def_cfa_offset 4
 1917              		.cfi_offset 7, -4
 1918 0002 00AF     		add	r7, sp, #0
 1919              	.LCFI105:
 1920              		.cfi_def_cfa_register 7
 734:../firmware/n32g430_std_periph_driver/src/n32g430_comp.c ****     return COMP->INTSTS;
 1921              		.loc 1 734 16
 1922 0004 034B     		ldr	r3, .L131
 1923 0006 9B6C     		ldr	r3, [r3, #72]
 1924 0008 DBB2     		uxtb	r3, r3
 735:../firmware/n32g430_std_periph_driver/src/n32g430_comp.c **** }
 1925              		.loc 1 735 1
 1926 000a 1846     		mov	r0, r3
 1927 000c BD46     		mov	sp, r7
 1928              	.LCFI106:
 1929              		.cfi_def_cfa_register 13
 1930              		@ sp needed
 1931 000e 5DF8047B 		ldr	r7, [sp], #4
 1932              	.LCFI107:
 1933              		.cfi_restore 7
 1934              		.cfi_def_cfa_offset 0
 1935 0012 7047     		bx	lr
 1936              	.L132:
 1937              		.align	2
 1938              	.L131:
 1939 0014 00240040 		.word	1073751040
 1940              		.cfi_endproc
 1941              	.LFE148:
 1943              		.section	.text.COMP_Voltage_Reference_Config,"ax",%progbits
 1944              		.align	1
 1945              		.global	COMP_Voltage_Reference_Config
 1946              		.syntax unified
 1947              		.thumb
 1948              		.thumb_func
 1950              	COMP_Voltage_Reference_Config:
 1951              	.LFB149:
 736:../firmware/n32g430_std_periph_driver/src/n32g430_comp.c **** 
 737:../firmware/n32g430_std_periph_driver/src/n32g430_comp.c **** /**
 738:../firmware/n32g430_std_periph_driver/src/n32g430_comp.c **** *\*\name    COMP_Reference_Voltage_Config.
 739:../firmware/n32g430_std_periph_driver/src/n32g430_comp.c **** *\*\fun     Configures the COMP reference voltage. 
 740:../firmware/n32g430_std_periph_driver/src/n32g430_comp.c **** *\*\param   Vv3Trim :
ARM GAS  C:\Users\ZShuai\AppData\Local\Temp\ccV30ir9.s 			page 53


 741:../firmware/n32g430_std_periph_driver/src/n32g430_comp.c **** *\*\          - Value can be set from 0 to 63.
 742:../firmware/n32g430_std_periph_driver/src/n32g430_comp.c **** *\*\param   Vv3En :
 743:../firmware/n32g430_std_periph_driver/src/n32g430_comp.c **** *\*\          - false
 744:../firmware/n32g430_std_periph_driver/src/n32g430_comp.c **** *\*\          - true
 745:../firmware/n32g430_std_periph_driver/src/n32g430_comp.c **** *\*\param   Vv2Trim :
 746:../firmware/n32g430_std_periph_driver/src/n32g430_comp.c **** *\*\          - Value can be set from 0 to 63.
 747:../firmware/n32g430_std_periph_driver/src/n32g430_comp.c **** *\*\param   Vv2En :
 748:../firmware/n32g430_std_periph_driver/src/n32g430_comp.c **** *\*\          - false
 749:../firmware/n32g430_std_periph_driver/src/n32g430_comp.c **** *\*\          - true
 750:../firmware/n32g430_std_periph_driver/src/n32g430_comp.c **** *\*\param   Vv1Trim :
 751:../firmware/n32g430_std_periph_driver/src/n32g430_comp.c **** *\*\           - Value can be set from 0 to 63.     
 752:../firmware/n32g430_std_periph_driver/src/n32g430_comp.c **** *\*\param   Vv1En :
 753:../firmware/n32g430_std_periph_driver/src/n32g430_comp.c **** *\*\          - false
 754:../firmware/n32g430_std_periph_driver/src/n32g430_comp.c **** *\*\          - true
 755:../firmware/n32g430_std_periph_driver/src/n32g430_comp.c **** *\*\return  none
 756:../firmware/n32g430_std_periph_driver/src/n32g430_comp.c **** **/
 757:../firmware/n32g430_std_periph_driver/src/n32g430_comp.c **** void COMP_Voltage_Reference_Config(uint8_t vv3trim, bool vv3en, uint8_t vv2trim, bool vv2en, uint8_
 758:../firmware/n32g430_std_periph_driver/src/n32g430_comp.c **** {
 1952              		.loc 1 758 1
 1953              		.cfi_startproc
 1954              		@ args = 8, pretend = 0, frame = 16
 1955              		@ frame_needed = 1, uses_anonymous_args = 0
 1956              		@ link register save eliminated.
 1957 0000 90B4     		push	{r4, r7}
 1958              	.LCFI108:
 1959              		.cfi_def_cfa_offset 8
 1960              		.cfi_offset 4, -8
 1961              		.cfi_offset 7, -4
 1962 0002 84B0     		sub	sp, sp, #16
 1963              	.LCFI109:
 1964              		.cfi_def_cfa_offset 24
 1965 0004 00AF     		add	r7, sp, #0
 1966              	.LCFI110:
 1967              		.cfi_def_cfa_register 7
 1968 0006 0446     		mov	r4, r0
 1969 0008 0846     		mov	r0, r1
 1970 000a 1146     		mov	r1, r2
 1971 000c 1A46     		mov	r2, r3
 1972 000e 2346     		mov	r3, r4
 1973 0010 FB71     		strb	r3, [r7, #7]
 1974 0012 0346     		mov	r3, r0
 1975 0014 BB71     		strb	r3, [r7, #6]
 1976 0016 0B46     		mov	r3, r1
 1977 0018 7B71     		strb	r3, [r7, #5]
 1978 001a 1346     		mov	r3, r2
 1979 001c 3B71     		strb	r3, [r7, #4]
 759:../firmware/n32g430_std_periph_driver/src/n32g430_comp.c ****     __IO uint32_t temp_value = 0;
 1980              		.loc 1 759 19
 1981 001e 0023     		movs	r3, #0
 1982 0020 FB60     		str	r3, [r7, #12]
 760:../firmware/n32g430_std_periph_driver/src/n32g430_comp.c **** 
 761:../firmware/n32g430_std_periph_driver/src/n32g430_comp.c ****     SetBitMsk(temp_value, vv3trim << REG_BIT15_OFFSET, COMP_VREFSCL_VV3TRM_MSK);
 1983              		.loc 1 761 5
 1984 0022 FB68     		ldr	r3, [r7, #12]
 1985 0024 23F4FC12 		bic	r2, r3, #2064384
 1986 0028 FB79     		ldrb	r3, [r7, #7]	@ zero_extendqisi2
 1987 002a DB03     		lsls	r3, r3, #15
ARM GAS  C:\Users\ZShuai\AppData\Local\Temp\ccV30ir9.s 			page 54


 1988 002c 1343     		orrs	r3, r3, r2
 1989 002e FB60     		str	r3, [r7, #12]
 762:../firmware/n32g430_std_periph_driver/src/n32g430_comp.c ****     SetBitMsk(temp_value, vv3en << REG_BIT14_OFFSET, COMP_VREFSCL_VV3EN_MSK);
 1990              		.loc 1 762 5
 1991 0030 FB68     		ldr	r3, [r7, #12]
 1992 0032 23F48042 		bic	r2, r3, #16384
 1993 0036 BB79     		ldrb	r3, [r7, #6]	@ zero_extendqisi2
 1994 0038 9B03     		lsls	r3, r3, #14
 1995 003a 1343     		orrs	r3, r3, r2
 1996 003c FB60     		str	r3, [r7, #12]
 763:../firmware/n32g430_std_periph_driver/src/n32g430_comp.c ****     SetBitMsk(temp_value, vv2trim << REG_BIT8_OFFSET, COMP_VREFSCL_VV2TRM_MSK);
 1997              		.loc 1 763 5
 1998 003e FB68     		ldr	r3, [r7, #12]
 1999 0040 23F47C52 		bic	r2, r3, #16128
 2000 0044 7B79     		ldrb	r3, [r7, #5]	@ zero_extendqisi2
 2001 0046 1B02     		lsls	r3, r3, #8
 2002 0048 1343     		orrs	r3, r3, r2
 2003 004a FB60     		str	r3, [r7, #12]
 764:../firmware/n32g430_std_periph_driver/src/n32g430_comp.c ****     SetBitMsk(temp_value, vv2en << REG_BIT7_OFFSET, COMP_VREFSCL_VV2EN_MSK);
 2004              		.loc 1 764 5
 2005 004c FB68     		ldr	r3, [r7, #12]
 2006 004e 23F08002 		bic	r2, r3, #128
 2007 0052 3B79     		ldrb	r3, [r7, #4]	@ zero_extendqisi2
 2008 0054 DB01     		lsls	r3, r3, #7
 2009 0056 1343     		orrs	r3, r3, r2
 2010 0058 FB60     		str	r3, [r7, #12]
 765:../firmware/n32g430_std_periph_driver/src/n32g430_comp.c ****     SetBitMsk(temp_value, vv1trim << REG_BIT1_OFFSET, COMP_VREFSCL_VV1TRM_MSK);
 2011              		.loc 1 765 5
 2012 005a FB68     		ldr	r3, [r7, #12]
 2013 005c 23F07E02 		bic	r2, r3, #126
 2014 0060 3B7E     		ldrb	r3, [r7, #24]	@ zero_extendqisi2
 2015 0062 5B00     		lsls	r3, r3, #1
 2016 0064 1343     		orrs	r3, r3, r2
 2017 0066 FB60     		str	r3, [r7, #12]
 766:../firmware/n32g430_std_periph_driver/src/n32g430_comp.c ****     SetBitMsk(temp_value, vv1en, COMP_VREFSCL_VV1EN_MSK);
 2018              		.loc 1 766 5
 2019 0068 FB68     		ldr	r3, [r7, #12]
 2020 006a 23F00102 		bic	r2, r3, #1
 2021 006e 3B7F     		ldrb	r3, [r7, #28]	@ zero_extendqisi2
 2022 0070 1343     		orrs	r3, r3, r2
 2023 0072 FB60     		str	r3, [r7, #12]
 767:../firmware/n32g430_std_periph_driver/src/n32g430_comp.c **** 
 768:../firmware/n32g430_std_periph_driver/src/n32g430_comp.c ****     COMP->VREFSCL = temp_value;
 2024              		.loc 1 768 9
 2025 0074 034A     		ldr	r2, .L134
 2026              		.loc 1 768 19
 2027 0076 FB68     		ldr	r3, [r7, #12]
 2028 0078 1364     		str	r3, [r2, #64]
 769:../firmware/n32g430_std_periph_driver/src/n32g430_comp.c **** }
 2029              		.loc 1 769 1
 2030 007a 00BF     		nop
 2031 007c 1037     		adds	r7, r7, #16
 2032              	.LCFI111:
 2033              		.cfi_def_cfa_offset 8
 2034 007e BD46     		mov	sp, r7
 2035              	.LCFI112:
 2036              		.cfi_def_cfa_register 13
ARM GAS  C:\Users\ZShuai\AppData\Local\Temp\ccV30ir9.s 			page 55


 2037              		@ sp needed
 2038 0080 90BC     		pop	{r4, r7}
 2039              	.LCFI113:
 2040              		.cfi_restore 7
 2041              		.cfi_restore 4
 2042              		.cfi_def_cfa_offset 0
 2043 0082 7047     		bx	lr
 2044              	.L135:
 2045              		.align	2
 2046              	.L134:
 2047 0084 00240040 		.word	1073751040
 2048              		.cfi_endproc
 2049              	.LFE149:
 2051              		.section	.text.COMP_Window_Mode_Enable,"ax",%progbits
 2052              		.align	1
 2053              		.global	COMP_Window_Mode_Enable
 2054              		.syntax unified
 2055              		.thumb
 2056              		.thumb_func
 2058              	COMP_Window_Mode_Enable:
 2059              	.LFB150:
 770:../firmware/n32g430_std_periph_driver/src/n32g430_comp.c **** 
 771:../firmware/n32g430_std_periph_driver/src/n32g430_comp.c **** /**
 772:../firmware/n32g430_std_periph_driver/src/n32g430_comp.c **** *\*\name    COMP_Window_Mode_Enable.
 773:../firmware/n32g430_std_periph_driver/src/n32g430_comp.c **** *\*\fun     Enable Comp Window Mode (input comparison of COMP1&2 by PA1).
 774:../firmware/n32g430_std_periph_driver/src/n32g430_comp.c **** *\*\return  none
 775:../firmware/n32g430_std_periph_driver/src/n32g430_comp.c **** **/
 776:../firmware/n32g430_std_periph_driver/src/n32g430_comp.c **** void COMP_Window_Mode_Enable(void)
 777:../firmware/n32g430_std_periph_driver/src/n32g430_comp.c **** {
 2060              		.loc 1 777 1
 2061              		.cfi_startproc
 2062              		@ args = 0, pretend = 0, frame = 0
 2063              		@ frame_needed = 1, uses_anonymous_args = 0
 2064              		@ link register save eliminated.
 2065 0000 80B4     		push	{r7}
 2066              	.LCFI114:
 2067              		.cfi_def_cfa_offset 4
 2068              		.cfi_offset 7, -4
 2069 0002 00AF     		add	r7, sp, #0
 2070              	.LCFI115:
 2071              		.cfi_def_cfa_register 7
 778:../firmware/n32g430_std_periph_driver/src/n32g430_comp.c ****     COMP->WINMODE = COMP_CMP12MD_ENABLE;
 2072              		.loc 1 778 9
 2073 0004 034B     		ldr	r3, .L137
 2074              		.loc 1 778 19
 2075 0006 0122     		movs	r2, #1
 2076 0008 9A60     		str	r2, [r3, #8]
 779:../firmware/n32g430_std_periph_driver/src/n32g430_comp.c **** }
 2077              		.loc 1 779 1
 2078 000a 00BF     		nop
 2079 000c BD46     		mov	sp, r7
 2080              	.LCFI116:
 2081              		.cfi_def_cfa_register 13
 2082              		@ sp needed
 2083 000e 5DF8047B 		ldr	r7, [sp], #4
 2084              	.LCFI117:
 2085              		.cfi_restore 7
ARM GAS  C:\Users\ZShuai\AppData\Local\Temp\ccV30ir9.s 			page 56


 2086              		.cfi_def_cfa_offset 0
 2087 0012 7047     		bx	lr
 2088              	.L138:
 2089              		.align	2
 2090              	.L137:
 2091 0014 00240040 		.word	1073751040
 2092              		.cfi_endproc
 2093              	.LFE150:
 2095              		.section	.text.COMP_Window_Mode_Disable,"ax",%progbits
 2096              		.align	1
 2097              		.global	COMP_Window_Mode_Disable
 2098              		.syntax unified
 2099              		.thumb
 2100              		.thumb_func
 2102              	COMP_Window_Mode_Disable:
 2103              	.LFB151:
 780:../firmware/n32g430_std_periph_driver/src/n32g430_comp.c **** 
 781:../firmware/n32g430_std_periph_driver/src/n32g430_comp.c **** /**
 782:../firmware/n32g430_std_periph_driver/src/n32g430_comp.c **** *\*\name    COMP_Window_Mode_Disable.
 783:../firmware/n32g430_std_periph_driver/src/n32g430_comp.c **** *\*\fun     Disable Comp Window Mode (input comparison of COMP1&2 by PA1).
 784:../firmware/n32g430_std_periph_driver/src/n32g430_comp.c **** *\*\return  none
 785:../firmware/n32g430_std_periph_driver/src/n32g430_comp.c **** **/
 786:../firmware/n32g430_std_periph_driver/src/n32g430_comp.c **** void COMP_Window_Mode_Disable(void)
 787:../firmware/n32g430_std_periph_driver/src/n32g430_comp.c **** {
 2104              		.loc 1 787 1
 2105              		.cfi_startproc
 2106              		@ args = 0, pretend = 0, frame = 0
 2107              		@ frame_needed = 1, uses_anonymous_args = 0
 2108              		@ link register save eliminated.
 2109 0000 80B4     		push	{r7}
 2110              	.LCFI118:
 2111              		.cfi_def_cfa_offset 4
 2112              		.cfi_offset 7, -4
 2113 0002 00AF     		add	r7, sp, #0
 2114              	.LCFI119:
 2115              		.cfi_def_cfa_register 7
 788:../firmware/n32g430_std_periph_driver/src/n32g430_comp.c ****     COMP->WINMODE = COMP_CMP12MD_DISABLE;
 2116              		.loc 1 788 9
 2117 0004 034B     		ldr	r3, .L140
 2118              		.loc 1 788 19
 2119 0006 0022     		movs	r2, #0
 2120 0008 9A60     		str	r2, [r3, #8]
 789:../firmware/n32g430_std_periph_driver/src/n32g430_comp.c **** }
 2121              		.loc 1 789 1
 2122 000a 00BF     		nop
 2123 000c BD46     		mov	sp, r7
 2124              	.LCFI120:
 2125              		.cfi_def_cfa_register 13
 2126              		@ sp needed
 2127 000e 5DF8047B 		ldr	r7, [sp], #4
 2128              	.LCFI121:
 2129              		.cfi_restore 7
 2130              		.cfi_def_cfa_offset 0
 2131 0012 7047     		bx	lr
 2132              	.L141:
 2133              		.align	2
 2134              	.L140:
ARM GAS  C:\Users\ZShuai\AppData\Local\Temp\ccV30ir9.s 			page 57


 2135 0014 00240040 		.word	1073751040
 2136              		.cfi_endproc
 2137              	.LFE151:
 2139              		.section	.text.COMP2_Output_Xor_Enable,"ax",%progbits
 2140              		.align	1
 2141              		.global	COMP2_Output_Xor_Enable
 2142              		.syntax unified
 2143              		.thumb
 2144              		.thumb_func
 2146              	COMP2_Output_Xor_Enable:
 2147              	.LFB152:
 790:../firmware/n32g430_std_periph_driver/src/n32g430_comp.c **** 
 791:../firmware/n32g430_std_periph_driver/src/n32g430_comp.c **** /**
 792:../firmware/n32g430_std_periph_driver/src/n32g430_comp.c **** *\*\name    COMP2_Output_Xor_Enable.
 793:../firmware/n32g430_std_periph_driver/src/n32g430_comp.c **** *\*\fun     Enable the XOR output(comparison of COMP1&2).
 794:../firmware/n32g430_std_periph_driver/src/n32g430_comp.c **** *\*\return  none
 795:../firmware/n32g430_std_periph_driver/src/n32g430_comp.c **** **/
 796:../firmware/n32g430_std_periph_driver/src/n32g430_comp.c **** void COMP2_Output_Xor_Enable(void)
 797:../firmware/n32g430_std_periph_driver/src/n32g430_comp.c **** {
 2148              		.loc 1 797 1
 2149              		.cfi_startproc
 2150              		@ args = 0, pretend = 0, frame = 0
 2151              		@ frame_needed = 1, uses_anonymous_args = 0
 2152              		@ link register save eliminated.
 2153 0000 80B4     		push	{r7}
 2154              	.LCFI122:
 2155              		.cfi_def_cfa_offset 4
 2156              		.cfi_offset 7, -4
 2157 0002 00AF     		add	r7, sp, #0
 2158              	.LCFI123:
 2159              		.cfi_def_cfa_register 7
 798:../firmware/n32g430_std_periph_driver/src/n32g430_comp.c ****     COMP->CMP2OSEL = COMP_CMP2XO_ENABLE;
 2160              		.loc 1 798 9
 2161 0004 034B     		ldr	r3, .L143
 2162              		.loc 1 798 20
 2163 0006 0122     		movs	r2, #1
 2164 0008 DA62     		str	r2, [r3, #44]
 799:../firmware/n32g430_std_periph_driver/src/n32g430_comp.c **** }
 2165              		.loc 1 799 1
 2166 000a 00BF     		nop
 2167 000c BD46     		mov	sp, r7
 2168              	.LCFI124:
 2169              		.cfi_def_cfa_register 13
 2170              		@ sp needed
 2171 000e 5DF8047B 		ldr	r7, [sp], #4
 2172              	.LCFI125:
 2173              		.cfi_restore 7
 2174              		.cfi_def_cfa_offset 0
 2175 0012 7047     		bx	lr
 2176              	.L144:
 2177              		.align	2
 2178              	.L143:
 2179 0014 00240040 		.word	1073751040
 2180              		.cfi_endproc
 2181              	.LFE152:
 2183              		.section	.text.COMP2_Output_Xor_Disable,"ax",%progbits
 2184              		.align	1
ARM GAS  C:\Users\ZShuai\AppData\Local\Temp\ccV30ir9.s 			page 58


 2185              		.global	COMP2_Output_Xor_Disable
 2186              		.syntax unified
 2187              		.thumb
 2188              		.thumb_func
 2190              	COMP2_Output_Xor_Disable:
 2191              	.LFB153:
 800:../firmware/n32g430_std_periph_driver/src/n32g430_comp.c **** 
 801:../firmware/n32g430_std_periph_driver/src/n32g430_comp.c **** /**
 802:../firmware/n32g430_std_periph_driver/src/n32g430_comp.c **** *\*\name    COMP2_Output_Xor_Disable.
 803:../firmware/n32g430_std_periph_driver/src/n32g430_comp.c **** *\*\fun     Disable the XOR output(comparison of COMP1&2).
 804:../firmware/n32g430_std_periph_driver/src/n32g430_comp.c **** *\*\return  none
 805:../firmware/n32g430_std_periph_driver/src/n32g430_comp.c **** **/
 806:../firmware/n32g430_std_periph_driver/src/n32g430_comp.c **** void COMP2_Output_Xor_Disable(void)
 807:../firmware/n32g430_std_periph_driver/src/n32g430_comp.c **** {
 2192              		.loc 1 807 1
 2193              		.cfi_startproc
 2194              		@ args = 0, pretend = 0, frame = 0
 2195              		@ frame_needed = 1, uses_anonymous_args = 0
 2196              		@ link register save eliminated.
 2197 0000 80B4     		push	{r7}
 2198              	.LCFI126:
 2199              		.cfi_def_cfa_offset 4
 2200              		.cfi_offset 7, -4
 2201 0002 00AF     		add	r7, sp, #0
 2202              	.LCFI127:
 2203              		.cfi_def_cfa_register 7
 808:../firmware/n32g430_std_periph_driver/src/n32g430_comp.c ****     COMP->CMP2OSEL = COMP_CMP2XO_DISABLE;
 2204              		.loc 1 808 9
 2205 0004 034B     		ldr	r3, .L146
 2206              		.loc 1 808 20
 2207 0006 0022     		movs	r2, #0
 2208 0008 DA62     		str	r2, [r3, #44]
 809:../firmware/n32g430_std_periph_driver/src/n32g430_comp.c **** }
 2209              		.loc 1 809 1
 2210 000a 00BF     		nop
 2211 000c BD46     		mov	sp, r7
 2212              	.LCFI128:
 2213              		.cfi_def_cfa_register 13
 2214              		@ sp needed
 2215 000e 5DF8047B 		ldr	r7, [sp], #4
 2216              	.LCFI129:
 2217              		.cfi_restore 7
 2218              		.cfi_def_cfa_offset 0
 2219 0012 7047     		bx	lr
 2220              	.L147:
 2221              		.align	2
 2222              	.L146:
 2223 0014 00240040 		.word	1073751040
 2224              		.cfi_endproc
 2225              	.LFE153:
 2227              		.section	.text.COMP_Output_Status_Get,"ax",%progbits
 2228              		.align	1
 2229              		.global	COMP_Output_Status_Get
 2230              		.syntax unified
 2231              		.thumb
 2232              		.thumb_func
 2234              	COMP_Output_Status_Get:
ARM GAS  C:\Users\ZShuai\AppData\Local\Temp\ccV30ir9.s 			page 59


 2235              	.LFB154:
 810:../firmware/n32g430_std_periph_driver/src/n32g430_comp.c **** /**
 811:../firmware/n32g430_std_periph_driver/src/n32g430_comp.c **** *\*\name    COMP_Output_Status_Get.
 812:../firmware/n32g430_std_periph_driver/src/n32g430_comp.c **** *\*\fun     Get COMPx Output Status.
 813:../firmware/n32g430_std_periph_driver/src/n32g430_comp.c **** *\*\param   COMPx :
 814:../firmware/n32g430_std_periph_driver/src/n32g430_comp.c **** *\*\          - COMP1
 815:../firmware/n32g430_std_periph_driver/src/n32g430_comp.c **** *\*\          - COMP2
 816:../firmware/n32g430_std_periph_driver/src/n32g430_comp.c **** *\*\          - COMP3
 817:../firmware/n32g430_std_periph_driver/src/n32g430_comp.c **** *\*\return  FlagStatus:
 818:../firmware/n32g430_std_periph_driver/src/n32g430_comp.c **** *\*\          - SET
 819:../firmware/n32g430_std_periph_driver/src/n32g430_comp.c **** *\*\          - RESET
 820:../firmware/n32g430_std_periph_driver/src/n32g430_comp.c **** **/
 821:../firmware/n32g430_std_periph_driver/src/n32g430_comp.c **** FlagStatus COMP_Output_Status_Get(COMPX COMPx)
 822:../firmware/n32g430_std_periph_driver/src/n32g430_comp.c **** {
 2236              		.loc 1 822 1
 2237              		.cfi_startproc
 2238              		@ args = 0, pretend = 0, frame = 8
 2239              		@ frame_needed = 1, uses_anonymous_args = 0
 2240              		@ link register save eliminated.
 2241 0000 80B4     		push	{r7}
 2242              	.LCFI130:
 2243              		.cfi_def_cfa_offset 4
 2244              		.cfi_offset 7, -4
 2245 0002 83B0     		sub	sp, sp, #12
 2246              	.LCFI131:
 2247              		.cfi_def_cfa_offset 16
 2248 0004 00AF     		add	r7, sp, #0
 2249              	.LCFI132:
 2250              		.cfi_def_cfa_register 7
 2251 0006 0346     		mov	r3, r0
 2252 0008 FB71     		strb	r3, [r7, #7]
 823:../firmware/n32g430_std_periph_driver/src/n32g430_comp.c ****     if(COMPx == COMP1)
 2253              		.loc 1 823 7
 2254 000a FB79     		ldrb	r3, [r7, #7]	@ zero_extendqisi2
 2255 000c 002B     		cmp	r3, #0
 2256 000e 09D1     		bne	.L149
 824:../firmware/n32g430_std_periph_driver/src/n32g430_comp.c ****     {
 825:../firmware/n32g430_std_periph_driver/src/n32g430_comp.c ****         return (COMP->Cmp1.CTRL & COMP_OUT_MASK) ? SET : RESET;
 2257              		.loc 1 825 21
 2258 0010 124B     		ldr	r3, .L152
 2259              		.loc 1 825 27
 2260 0012 1B69     		ldr	r3, [r3, #16]
 2261              		.loc 1 825 33
 2262 0014 03F40023 		and	r3, r3, #524288
 2263              		.loc 1 825 56
 2264 0018 002B     		cmp	r3, #0
 2265 001a 14BF     		ite	ne
 2266 001c 0123     		movne	r3, #1
 2267 001e 0023     		moveq	r3, #0
 2268 0020 DBB2     		uxtb	r3, r3
 2269 0022 15E0     		b	.L150
 2270              	.L149:
 826:../firmware/n32g430_std_periph_driver/src/n32g430_comp.c ****     }
 827:../firmware/n32g430_std_periph_driver/src/n32g430_comp.c ****     else if(COMPx == COMP2)
 2271              		.loc 1 827 12
 2272 0024 FB79     		ldrb	r3, [r7, #7]	@ zero_extendqisi2
 2273 0026 012B     		cmp	r3, #1
ARM GAS  C:\Users\ZShuai\AppData\Local\Temp\ccV30ir9.s 			page 60


 2274 0028 09D1     		bne	.L151
 828:../firmware/n32g430_std_periph_driver/src/n32g430_comp.c ****     {
 829:../firmware/n32g430_std_periph_driver/src/n32g430_comp.c ****         return (COMP->Cmp2.CTRL & COMP_OUT_MASK) ? SET : RESET;
 2275              		.loc 1 829 21
 2276 002a 0C4B     		ldr	r3, .L152
 2277              		.loc 1 829 27
 2278 002c 1B6A     		ldr	r3, [r3, #32]
 2279              		.loc 1 829 33
 2280 002e 03F40023 		and	r3, r3, #524288
 2281              		.loc 1 829 56
 2282 0032 002B     		cmp	r3, #0
 2283 0034 14BF     		ite	ne
 2284 0036 0123     		movne	r3, #1
 2285 0038 0023     		moveq	r3, #0
 2286 003a DBB2     		uxtb	r3, r3
 2287 003c 08E0     		b	.L150
 2288              	.L151:
 830:../firmware/n32g430_std_periph_driver/src/n32g430_comp.c ****     }
 831:../firmware/n32g430_std_periph_driver/src/n32g430_comp.c ****     else
 832:../firmware/n32g430_std_periph_driver/src/n32g430_comp.c ****     {
 833:../firmware/n32g430_std_periph_driver/src/n32g430_comp.c ****         return (COMP->Cmp3.CTRL & COMP_OUT_MASK) ? SET : RESET;
 2289              		.loc 1 833 21
 2290 003e 074B     		ldr	r3, .L152
 2291              		.loc 1 833 27
 2292 0040 1B6B     		ldr	r3, [r3, #48]
 2293              		.loc 1 833 33
 2294 0042 03F40023 		and	r3, r3, #524288
 2295              		.loc 1 833 56
 2296 0046 002B     		cmp	r3, #0
 2297 0048 14BF     		ite	ne
 2298 004a 0123     		movne	r3, #1
 2299 004c 0023     		moveq	r3, #0
 2300 004e DBB2     		uxtb	r3, r3
 2301              	.L150:
 834:../firmware/n32g430_std_periph_driver/src/n32g430_comp.c ****     }
 835:../firmware/n32g430_std_periph_driver/src/n32g430_comp.c **** }
 2302              		.loc 1 835 1
 2303 0050 1846     		mov	r0, r3
 2304 0052 0C37     		adds	r7, r7, #12
 2305              	.LCFI133:
 2306              		.cfi_def_cfa_offset 4
 2307 0054 BD46     		mov	sp, r7
 2308              	.LCFI134:
 2309              		.cfi_def_cfa_register 13
 2310              		@ sp needed
 2311 0056 5DF8047B 		ldr	r7, [sp], #4
 2312              	.LCFI135:
 2313              		.cfi_restore 7
 2314              		.cfi_def_cfa_offset 0
 2315 005a 7047     		bx	lr
 2316              	.L153:
 2317              		.align	2
 2318              	.L152:
 2319 005c 00240040 		.word	1073751040
 2320              		.cfi_endproc
 2321              	.LFE154:
 2323              		.section	.text.COMP_Interrupt_Status_OneComp_Get,"ax",%progbits
ARM GAS  C:\Users\ZShuai\AppData\Local\Temp\ccV30ir9.s 			page 61


 2324              		.align	1
 2325              		.global	COMP_Interrupt_Status_OneComp_Get
 2326              		.syntax unified
 2327              		.thumb
 2328              		.thumb_func
 2330              	COMP_Interrupt_Status_OneComp_Get:
 2331              	.LFB155:
 836:../firmware/n32g430_std_periph_driver/src/n32g430_comp.c **** /**
 837:../firmware/n32g430_std_periph_driver/src/n32g430_comp.c **** *\*\name    COMP_Interrupt_Status_OneComp_Get.
 838:../firmware/n32g430_std_periph_driver/src/n32g430_comp.c **** *\*\fun     Get COMPx Output Status.
 839:../firmware/n32g430_std_periph_driver/src/n32g430_comp.c **** *\*\param   COMPx :
 840:../firmware/n32g430_std_periph_driver/src/n32g430_comp.c **** *\*\          - COMP1
 841:../firmware/n32g430_std_periph_driver/src/n32g430_comp.c **** *\*\          - COMP2
 842:../firmware/n32g430_std_periph_driver/src/n32g430_comp.c **** *\*\          - COMP3
 843:../firmware/n32g430_std_periph_driver/src/n32g430_comp.c **** *\*\return  FlagStatus:
 844:../firmware/n32g430_std_periph_driver/src/n32g430_comp.c **** *\*\          - SET
 845:../firmware/n32g430_std_periph_driver/src/n32g430_comp.c **** *\*\          - RESET
 846:../firmware/n32g430_std_periph_driver/src/n32g430_comp.c **** **/
 847:../firmware/n32g430_std_periph_driver/src/n32g430_comp.c **** FlagStatus COMP_Interrupt_Status_OneComp_Get(COMPX COMPx)
 848:../firmware/n32g430_std_periph_driver/src/n32g430_comp.c **** {
 2332              		.loc 1 848 1
 2333              		.cfi_startproc
 2334              		@ args = 0, pretend = 0, frame = 8
 2335              		@ frame_needed = 1, uses_anonymous_args = 0
 2336              		@ link register save eliminated.
 2337 0000 80B4     		push	{r7}
 2338              	.LCFI136:
 2339              		.cfi_def_cfa_offset 4
 2340              		.cfi_offset 7, -4
 2341 0002 83B0     		sub	sp, sp, #12
 2342              	.LCFI137:
 2343              		.cfi_def_cfa_offset 16
 2344 0004 00AF     		add	r7, sp, #0
 2345              	.LCFI138:
 2346              		.cfi_def_cfa_register 7
 2347 0006 0346     		mov	r3, r0
 2348 0008 FB71     		strb	r3, [r7, #7]
 849:../firmware/n32g430_std_periph_driver/src/n32g430_comp.c ****     return (COMP->INTSTS & (REG_BIT1_OFFSET << COMPx)) ? SET : RESET;
 2349              		.loc 1 849 17
 2350 000a 094B     		ldr	r3, .L156
 2351 000c 9A6C     		ldr	r2, [r3, #72]
 2352              		.loc 1 849 56
 2353 000e FB79     		ldrb	r3, [r7, #7]	@ zero_extendqisi2
 2354 0010 22FA03F3 		lsr	r3, r2, r3
 2355 0014 03F00103 		and	r3, r3, #1
 2356              		.loc 1 849 62
 2357 0018 002B     		cmp	r3, #0
 2358 001a 14BF     		ite	ne
 2359 001c 0123     		movne	r3, #1
 2360 001e 0023     		moveq	r3, #0
 2361 0020 DBB2     		uxtb	r3, r3
 850:../firmware/n32g430_std_periph_driver/src/n32g430_comp.c **** }
 2362              		.loc 1 850 1
 2363 0022 1846     		mov	r0, r3
 2364 0024 0C37     		adds	r7, r7, #12
 2365              	.LCFI139:
 2366              		.cfi_def_cfa_offset 4
ARM GAS  C:\Users\ZShuai\AppData\Local\Temp\ccV30ir9.s 			page 62


 2367 0026 BD46     		mov	sp, r7
 2368              	.LCFI140:
 2369              		.cfi_def_cfa_register 13
 2370              		@ sp needed
 2371 0028 5DF8047B 		ldr	r7, [sp], #4
 2372              	.LCFI141:
 2373              		.cfi_restore 7
 2374              		.cfi_def_cfa_offset 0
 2375 002c 7047     		bx	lr
 2376              	.L157:
 2377 002e 00BF     		.align	2
 2378              	.L156:
 2379 0030 00240040 		.word	1073751040
 2380              		.cfi_endproc
 2381              	.LFE155:
 2383              		.section	.text.COMP_Interrupt_Status_OneComp_Clear,"ax",%progbits
 2384              		.align	1
 2385              		.global	COMP_Interrupt_Status_OneComp_Clear
 2386              		.syntax unified
 2387              		.thumb
 2388              		.thumb_func
 2390              	COMP_Interrupt_Status_OneComp_Clear:
 2391              	.LFB156:
 851:../firmware/n32g430_std_periph_driver/src/n32g430_comp.c **** /**
 852:../firmware/n32g430_std_periph_driver/src/n32g430_comp.c **** *\*\name    COMP_Interrupt_Status_OneComp_Clear.
 853:../firmware/n32g430_std_periph_driver/src/n32g430_comp.c **** *\*\fun     Clear COMPx Output Status.
 854:../firmware/n32g430_std_periph_driver/src/n32g430_comp.c **** *\*\param   COMPx :
 855:../firmware/n32g430_std_periph_driver/src/n32g430_comp.c **** *\*\          - COMP1
 856:../firmware/n32g430_std_periph_driver/src/n32g430_comp.c **** *\*\          - COMP2
 857:../firmware/n32g430_std_periph_driver/src/n32g430_comp.c **** *\*\          - COMP3
 858:../firmware/n32g430_std_periph_driver/src/n32g430_comp.c **** *\*\return  none
 859:../firmware/n32g430_std_periph_driver/src/n32g430_comp.c **** **/
 860:../firmware/n32g430_std_periph_driver/src/n32g430_comp.c **** void COMP_Interrupt_Status_OneComp_Clear(COMPX COMPx)
 861:../firmware/n32g430_std_periph_driver/src/n32g430_comp.c **** {
 2392              		.loc 1 861 1
 2393              		.cfi_startproc
 2394              		@ args = 0, pretend = 0, frame = 8
 2395              		@ frame_needed = 1, uses_anonymous_args = 0
 2396              		@ link register save eliminated.
 2397 0000 80B4     		push	{r7}
 2398              	.LCFI142:
 2399              		.cfi_def_cfa_offset 4
 2400              		.cfi_offset 7, -4
 2401 0002 83B0     		sub	sp, sp, #12
 2402              	.LCFI143:
 2403              		.cfi_def_cfa_offset 16
 2404 0004 00AF     		add	r7, sp, #0
 2405              	.LCFI144:
 2406              		.cfi_def_cfa_register 7
 2407 0006 0346     		mov	r3, r0
 2408 0008 FB71     		strb	r3, [r7, #7]
 862:../firmware/n32g430_std_periph_driver/src/n32g430_comp.c ****     COMP->INTSTS &= ((~(REG_BIT1_OFFSET << COMPx )));
 2409              		.loc 1 862 9
 2410 000a 084B     		ldr	r3, .L159
 2411 000c 9A6C     		ldr	r2, [r3, #72]
 2412              		.loc 1 862 41
 2413 000e FB79     		ldrb	r3, [r7, #7]	@ zero_extendqisi2
ARM GAS  C:\Users\ZShuai\AppData\Local\Temp\ccV30ir9.s 			page 63


 2414 0010 0121     		movs	r1, #1
 2415 0012 01FA03F3 		lsl	r3, r1, r3
 2416              		.loc 1 862 23
 2417 0016 DB43     		mvns	r3, r3
 2418              		.loc 1 862 9
 2419 0018 0449     		ldr	r1, .L159
 2420              		.loc 1 862 18
 2421 001a 1340     		ands	r3, r3, r2
 2422 001c 8B64     		str	r3, [r1, #72]
 863:../firmware/n32g430_std_periph_driver/src/n32g430_comp.c **** }
 2423              		.loc 1 863 1
 2424 001e 00BF     		nop
 2425 0020 0C37     		adds	r7, r7, #12
 2426              	.LCFI145:
 2427              		.cfi_def_cfa_offset 4
 2428 0022 BD46     		mov	sp, r7
 2429              	.LCFI146:
 2430              		.cfi_def_cfa_register 13
 2431              		@ sp needed
 2432 0024 5DF8047B 		ldr	r7, [sp], #4
 2433              	.LCFI147:
 2434              		.cfi_restore 7
 2435              		.cfi_def_cfa_offset 0
 2436 0028 7047     		bx	lr
 2437              	.L160:
 2438 002a 00BF     		.align	2
 2439              	.L159:
 2440 002c 00240040 		.word	1073751040
 2441              		.cfi_endproc
 2442              	.LFE156:
 2444              		.section	.text.COMP_Filter_Control_Config,"ax",%progbits
 2445              		.align	1
 2446              		.global	COMP_Filter_Control_Config
 2447              		.syntax unified
 2448              		.thumb
 2449              		.thumb_func
 2451              	COMP_Filter_Control_Config:
 2452              	.LFB157:
 864:../firmware/n32g430_std_periph_driver/src/n32g430_comp.c **** 
 865:../firmware/n32g430_std_periph_driver/src/n32g430_comp.c **** 
 866:../firmware/n32g430_std_periph_driver/src/n32g430_comp.c **** /**
 867:../firmware/n32g430_std_periph_driver/src/n32g430_comp.c **** *\*\name    COMP_Filter_Control_Config.
 868:../firmware/n32g430_std_periph_driver/src/n32g430_comp.c **** *\*\fun     Configures the COMP filter control value.
 869:../firmware/n32g430_std_periph_driver/src/n32g430_comp.c **** *\*\param   COMPx :
 870:../firmware/n32g430_std_periph_driver/src/n32g430_comp.c **** *\*\          - COMP1
 871:../firmware/n32g430_std_periph_driver/src/n32g430_comp.c **** *\*\          - COMP2
 872:../firmware/n32g430_std_periph_driver/src/n32g430_comp.c **** *\*\          - COMP3
 873:../firmware/n32g430_std_periph_driver/src/n32g430_comp.c **** *\*\param   sw :
 874:../firmware/n32g430_std_periph_driver/src/n32g430_comp.c **** *\*\          - ENABLE
 875:../firmware/n32g430_std_periph_driver/src/n32g430_comp.c **** *\*\          - DISABLE
 876:../firmware/n32g430_std_periph_driver/src/n32g430_comp.c **** *\*\param   threshnum :
 877:../firmware/n32g430_std_periph_driver/src/n32g430_comp.c **** *\*\          - Threshold Value need > SampWindow/2.      
 878:../firmware/n32g430_std_periph_driver/src/n32g430_comp.c **** *\*\param   sampwindow :
 879:../firmware/n32g430_std_periph_driver/src/n32g430_comp.c **** *\*\          -  Value can be set from 0 to 31.
 880:../firmware/n32g430_std_periph_driver/src/n32g430_comp.c **** *\*\return  none
 881:../firmware/n32g430_std_periph_driver/src/n32g430_comp.c **** **/
 882:../firmware/n32g430_std_periph_driver/src/n32g430_comp.c **** void COMP_Filter_Control_Config(COMPX COMPx , uint32_t sw, uint8_t threshold , uint8_t sampwindow)
ARM GAS  C:\Users\ZShuai\AppData\Local\Temp\ccV30ir9.s 			page 64


 883:../firmware/n32g430_std_periph_driver/src/n32g430_comp.c **** {
 2453              		.loc 1 883 1
 2454              		.cfi_startproc
 2455              		@ args = 0, pretend = 0, frame = 8
 2456              		@ frame_needed = 1, uses_anonymous_args = 0
 2457 0000 80B5     		push	{r7, lr}
 2458              	.LCFI148:
 2459              		.cfi_def_cfa_offset 8
 2460              		.cfi_offset 7, -8
 2461              		.cfi_offset 14, -4
 2462 0002 82B0     		sub	sp, sp, #8
 2463              	.LCFI149:
 2464              		.cfi_def_cfa_offset 16
 2465 0004 00AF     		add	r7, sp, #0
 2466              	.LCFI150:
 2467              		.cfi_def_cfa_register 7
 2468 0006 3960     		str	r1, [r7]
 2469 0008 1146     		mov	r1, r2
 2470 000a 1A46     		mov	r2, r3
 2471 000c 0346     		mov	r3, r0
 2472 000e FB71     		strb	r3, [r7, #7]
 2473 0010 0B46     		mov	r3, r1
 2474 0012 BB71     		strb	r3, [r7, #6]
 2475 0014 1346     		mov	r3, r2
 2476 0016 7B71     		strb	r3, [r7, #5]
 884:../firmware/n32g430_std_periph_driver/src/n32g430_comp.c ****     COMP_Filter_SampWindow_Config(COMPx, sampwindow);
 2477              		.loc 1 884 5
 2478 0018 7A79     		ldrb	r2, [r7, #5]	@ zero_extendqisi2
 2479 001a FB79     		ldrb	r3, [r7, #7]	@ zero_extendqisi2
 2480 001c 1146     		mov	r1, r2
 2481 001e 1846     		mov	r0, r3
 2482 0020 FFF7FEFF 		bl	COMP_Filter_SampWindow_Config
 885:../firmware/n32g430_std_periph_driver/src/n32g430_comp.c ****     COMP_Filter_Threshold_Config(COMPx, threshold);
 2483              		.loc 1 885 5
 2484 0024 BA79     		ldrb	r2, [r7, #6]	@ zero_extendqisi2
 2485 0026 FB79     		ldrb	r3, [r7, #7]	@ zero_extendqisi2
 2486 0028 1146     		mov	r1, r2
 2487 002a 1846     		mov	r0, r3
 2488 002c FFF7FEFF 		bl	COMP_Filter_Threshold_Config
 886:../firmware/n32g430_std_periph_driver/src/n32g430_comp.c ****     if(sw == ENABLE)
 2489              		.loc 1 886 7
 2490 0030 3B68     		ldr	r3, [r7]
 2491 0032 012B     		cmp	r3, #1
 2492 0034 04D1     		bne	.L162
 887:../firmware/n32g430_std_periph_driver/src/n32g430_comp.c ****     {
 888:../firmware/n32g430_std_periph_driver/src/n32g430_comp.c ****         COMP_Filter_Enable(COMPx);
 2493              		.loc 1 888 9
 2494 0036 FB79     		ldrb	r3, [r7, #7]	@ zero_extendqisi2
 2495 0038 1846     		mov	r0, r3
 2496 003a FFF7FEFF 		bl	COMP_Filter_Enable
 889:../firmware/n32g430_std_periph_driver/src/n32g430_comp.c ****     }
 890:../firmware/n32g430_std_periph_driver/src/n32g430_comp.c ****     else
 891:../firmware/n32g430_std_periph_driver/src/n32g430_comp.c ****     {
 892:../firmware/n32g430_std_periph_driver/src/n32g430_comp.c ****         COMP_Filter_Disable(COMPx);
 893:../firmware/n32g430_std_periph_driver/src/n32g430_comp.c ****     }
 894:../firmware/n32g430_std_periph_driver/src/n32g430_comp.c **** }
 2497              		.loc 1 894 1
ARM GAS  C:\Users\ZShuai\AppData\Local\Temp\ccV30ir9.s 			page 65


 2498 003e 03E0     		b	.L164
 2499              	.L162:
 892:../firmware/n32g430_std_periph_driver/src/n32g430_comp.c ****     }
 2500              		.loc 1 892 9
 2501 0040 FB79     		ldrb	r3, [r7, #7]	@ zero_extendqisi2
 2502 0042 1846     		mov	r0, r3
 2503 0044 FFF7FEFF 		bl	COMP_Filter_Disable
 2504              	.L164:
 2505              		.loc 1 894 1
 2506 0048 00BF     		nop
 2507 004a 0837     		adds	r7, r7, #8
 2508              	.LCFI151:
 2509              		.cfi_def_cfa_offset 8
 2510 004c BD46     		mov	sp, r7
 2511              	.LCFI152:
 2512              		.cfi_def_cfa_register 13
 2513              		@ sp needed
 2514 004e 80BD     		pop	{r7, pc}
 2515              		.cfi_endproc
 2516              	.LFE157:
 2518              		.section	.text.COMP_Initializes,"ax",%progbits
 2519              		.align	1
 2520              		.global	COMP_Initializes
 2521              		.syntax unified
 2522              		.thumb
 2523              		.thumb_func
 2525              	COMP_Initializes:
 2526              	.LFB158:
 895:../firmware/n32g430_std_periph_driver/src/n32g430_comp.c **** 
 896:../firmware/n32g430_std_periph_driver/src/n32g430_comp.c **** /**
 897:../firmware/n32g430_std_periph_driver/src/n32g430_comp.c **** *\*\name    COMP_Initializes.
 898:../firmware/n32g430_std_periph_driver/src/n32g430_comp.c **** *\*\fun     Initializes the COMPx according to COMP_initstruct.
 899:../firmware/n32g430_std_periph_driver/src/n32g430_comp.c **** *\*\param   COMPx :
 900:../firmware/n32g430_std_periph_driver/src/n32g430_comp.c **** *\*\          - COMP1
 901:../firmware/n32g430_std_periph_driver/src/n32g430_comp.c **** *\*\          - COMP2
 902:../firmware/n32g430_std_periph_driver/src/n32g430_comp.c **** *\*\          - COMP3
 903:../firmware/n32g430_std_periph_driver/src/n32g430_comp.c **** *\*\param   COMP_initstruct :
 904:../firmware/n32g430_std_periph_driver/src/n32g430_comp.c **** *\*\          - Blking
 905:../firmware/n32g430_std_periph_driver/src/n32g430_comp.c **** *\*\            - COMP_BLANKING_NO
 906:../firmware/n32g430_std_periph_driver/src/n32g430_comp.c **** *\*\            - COMP_BLANKING_TIM1_OC5
 907:../firmware/n32g430_std_periph_driver/src/n32g430_comp.c **** *\*\            - COMP_BLANKING_TIM8_OC5
 908:../firmware/n32g430_std_periph_driver/src/n32g430_comp.c **** *\*\          - Hyst
 909:../firmware/n32g430_std_periph_driver/src/n32g430_comp.c **** *\*\            - COMP_HYST_NO   
 910:../firmware/n32g430_std_periph_driver/src/n32g430_comp.c **** *\*\            - COMP_HYST_LOW    
 911:../firmware/n32g430_std_periph_driver/src/n32g430_comp.c **** *\*\            - COMP_HYST_MID    
 912:../firmware/n32g430_std_periph_driver/src/n32g430_comp.c **** *\*\            - COMP_HYST_HIGH   
 913:../firmware/n32g430_std_periph_driver/src/n32g430_comp.c **** *\*\          - PolRev
 914:../firmware/n32g430_std_periph_driver/src/n32g430_comp.c **** *\*\            - COMP_OUTPOL_FLIP             
 915:../firmware/n32g430_std_periph_driver/src/n32g430_comp.c **** *\*\            - COMP_OUTPOL_NFLIP              
 916:../firmware/n32g430_std_periph_driver/src/n32g430_comp.c **** *\*\          - OutSel  
 917:../firmware/n32g430_std_periph_driver/src/n32g430_comp.c **** *\*\             comp1 out trig 
 918:../firmware/n32g430_std_periph_driver/src/n32g430_comp.c **** *\*\            - COMP1_OUTSEL_TIM1_BKIN             
 919:../firmware/n32g430_std_periph_driver/src/n32g430_comp.c **** *\*\            - COMP1_OUTSEL_TIM1_OCREFCLEAR       
 920:../firmware/n32g430_std_periph_driver/src/n32g430_comp.c **** *\*\            - COMP1_OUTSEL_TIM1_IC1              
 921:../firmware/n32g430_std_periph_driver/src/n32g430_comp.c **** *\*\            - COMP1_OUTSEL_TIM2_IC1              
 922:../firmware/n32g430_std_periph_driver/src/n32g430_comp.c **** *\*\            - COMP1_OUTSEL_TIM2_OCREFCLEAR       
 923:../firmware/n32g430_std_periph_driver/src/n32g430_comp.c **** *\*\            - COMP1_OUTSEL_TIM3_IC1              
ARM GAS  C:\Users\ZShuai\AppData\Local\Temp\ccV30ir9.s 			page 66


 924:../firmware/n32g430_std_periph_driver/src/n32g430_comp.c **** *\*\            - COMP1_OUTSEL_TIM3_OCREFCLEAR       
 925:../firmware/n32g430_std_periph_driver/src/n32g430_comp.c **** *\*\            - COMP1_OUTSEL_TIM4_OCREFCLEAR       
 926:../firmware/n32g430_std_periph_driver/src/n32g430_comp.c **** *\*\            - COMP1_OUTSEL_TIM5_IC1              
 927:../firmware/n32g430_std_periph_driver/src/n32g430_comp.c **** *\*\            - COMP1_OUTSEL_TIM8_IC1              
 928:../firmware/n32g430_std_periph_driver/src/n32g430_comp.c **** *\*\            - COMP1_OUTSEL_TIM8_OCREFCLEAR       
 929:../firmware/n32g430_std_periph_driver/src/n32g430_comp.c **** *\*\            - COMP1_OUTSEL_TIM8_BKIN             
 930:../firmware/n32g430_std_periph_driver/src/n32g430_comp.c **** *\*\            - COMP1_OUTSEL_TIM1_BKIN_TIM8_BKIN   
 931:../firmware/n32g430_std_periph_driver/src/n32g430_comp.c **** *\*\            - COMP1_OUTSEL_LPTIM_ETR                 
 932:../firmware/n32g430_std_periph_driver/src/n32g430_comp.c **** *\*\             comp2 out trig 
 933:../firmware/n32g430_std_periph_driver/src/n32g430_comp.c **** *\*\            - COMP2_OUTSEL_TIM1_BKIN             
 934:../firmware/n32g430_std_periph_driver/src/n32g430_comp.c **** *\*\            - COMP2_OUTSEL_TIM1_OCREFCLEAR       
 935:../firmware/n32g430_std_periph_driver/src/n32g430_comp.c **** *\*\            - COMP2_OUTSEL_TIM1_IC1              
 936:../firmware/n32g430_std_periph_driver/src/n32g430_comp.c **** *\*\            - COMP2_OUTSEL_TIM2_OCREFCLEAR       
 937:../firmware/n32g430_std_periph_driver/src/n32g430_comp.c **** *\*\            - COMP2_OUTSEL_TIM3_OCREFCLEAR       
 938:../firmware/n32g430_std_periph_driver/src/n32g430_comp.c **** *\*\            - COMP2_OUTSEL_TIM4_IC1              
 939:../firmware/n32g430_std_periph_driver/src/n32g430_comp.c **** *\*\            - COMP2_OUTSEL_TIM4_OCREFCLEAR       
 940:../firmware/n32g430_std_periph_driver/src/n32g430_comp.c **** *\*\            - COMP2_OUTSEL_TIM5_IC1              
 941:../firmware/n32g430_std_periph_driver/src/n32g430_comp.c **** *\*\            - COMP2_OUTSEL_TIM8_IC1              
 942:../firmware/n32g430_std_periph_driver/src/n32g430_comp.c **** *\*\            - COMP2_OUTSEL_TIM8_OCREFCLEAR       
 943:../firmware/n32g430_std_periph_driver/src/n32g430_comp.c **** *\*\            - COMP2_OUTSEL_TIM8_BKIN             
 944:../firmware/n32g430_std_periph_driver/src/n32g430_comp.c **** *\*\            - COMP2_OUTSEL_TIM1_BKIN_TIM8_BKIN   
 945:../firmware/n32g430_std_periph_driver/src/n32g430_comp.c **** *\*\            - COMP2_OUTSEL_LPTIM_ETR             
 946:../firmware/n32g430_std_periph_driver/src/n32g430_comp.c **** *\*\             comp3 out trig 
 947:../firmware/n32g430_std_periph_driver/src/n32g430_comp.c **** *\*\            - COMP3_OUTSEL_TIM1_BKIN             
 948:../firmware/n32g430_std_periph_driver/src/n32g430_comp.c **** *\*\            - COMP3_OUTSEL_TIM1_OCREFCLEAR       
 949:../firmware/n32g430_std_periph_driver/src/n32g430_comp.c **** *\*\            - COMP3_OUTSEL_TIM1_IC1              
 950:../firmware/n32g430_std_periph_driver/src/n32g430_comp.c **** *\*\            - COMP3_OUTSEL_TIM2_IC1                  
 951:../firmware/n32g430_std_periph_driver/src/n32g430_comp.c **** *\*\            - COMP3_OUTSEL_TIM3_IC1              
 952:../firmware/n32g430_std_periph_driver/src/n32g430_comp.c **** *\*\            - COMP3_OUTSEL_TIM3_OCREFCLEAR       
 953:../firmware/n32g430_std_periph_driver/src/n32g430_comp.c **** *\*\            - COMP3_OUTSEL_TIM4_OCREFCLEAR       
 954:../firmware/n32g430_std_periph_driver/src/n32g430_comp.c **** *\*\            - COMP3_OUTSEL_TIM5_IC1              
 955:../firmware/n32g430_std_periph_driver/src/n32g430_comp.c **** *\*\            - COMP3_OUTSEL_TIM8_IC1              
 956:../firmware/n32g430_std_periph_driver/src/n32g430_comp.c **** *\*\            - COMP3_OUTSEL_TIM8_OCREFCLEAR       
 957:../firmware/n32g430_std_periph_driver/src/n32g430_comp.c **** *\*\            - COMP3_OUTSEL_TIM8_BKIN             
 958:../firmware/n32g430_std_periph_driver/src/n32g430_comp.c **** *\*\            - COMP3_OUTSEL_TIM1_BKIN_TIM8_BKIN   
 959:../firmware/n32g430_std_periph_driver/src/n32g430_comp.c **** *\*\            - COMP3_OUTSEL_LPTIM_ETR              
 960:../firmware/n32g430_std_periph_driver/src/n32g430_comp.c **** *\*\          - InpSel                
 961:../firmware/n32g430_std_periph_driver/src/n32g430_comp.c **** *\*\             comp1 inp sel 
 962:../firmware/n32g430_std_periph_driver/src/n32g430_comp.c **** *\*\            - COMP1_INPSEL_PA0                   
 963:../firmware/n32g430_std_periph_driver/src/n32g430_comp.c **** *\*\            - COMP1_INPSEL_PA2                   
 964:../firmware/n32g430_std_periph_driver/src/n32g430_comp.c **** *\*\            - COMP1_INPSEL_PA12                  
 965:../firmware/n32g430_std_periph_driver/src/n32g430_comp.c **** *\*\            - COMP1_INPSEL_PB3                   
 966:../firmware/n32g430_std_periph_driver/src/n32g430_comp.c **** *\*\            - COMP1_INPSEL_PB4                   
 967:../firmware/n32g430_std_periph_driver/src/n32g430_comp.c **** *\*\            - COMP1_INPSEL_PB10                  
 968:../firmware/n32g430_std_periph_driver/src/n32g430_comp.c **** *\*\            - COMP1_INPSEL_PA1                   
 969:../firmware/n32g430_std_periph_driver/src/n32g430_comp.c **** *\*\            - COMP1_INPSEL_FLOAT              
 970:../firmware/n32g430_std_periph_driver/src/n32g430_comp.c **** *\*\             comp2 inp sel 
 971:../firmware/n32g430_std_periph_driver/src/n32g430_comp.c **** *\*\            - COMP2_INPSEL_PA1                   
 972:../firmware/n32g430_std_periph_driver/src/n32g430_comp.c **** *\*\            - COMP2_INPSEL_PA3                  
 973:../firmware/n32g430_std_periph_driver/src/n32g430_comp.c **** *\*\            - COMP2_INPSEL_PA6                  
 974:../firmware/n32g430_std_periph_driver/src/n32g430_comp.c **** *\*\            - COMP2_INPSEL_PA7                  
 975:../firmware/n32g430_std_periph_driver/src/n32g430_comp.c **** *\*\            - COMP2_INPSEL_PA11                
 976:../firmware/n32g430_std_periph_driver/src/n32g430_comp.c **** *\*\            - COMP2_INPSEL_PA15                
 977:../firmware/n32g430_std_periph_driver/src/n32g430_comp.c **** *\*\            - COMP2_INPSEL_PB7                 
 978:../firmware/n32g430_std_periph_driver/src/n32g430_comp.c **** *\*\            - COMP2_INPSEL_FLOAT                               
 979:../firmware/n32g430_std_periph_driver/src/n32g430_comp.c **** *\*\             comp3 inp sel 
 980:../firmware/n32g430_std_periph_driver/src/n32g430_comp.c **** *\*\            - COMP3_INPSEL_PA0               
ARM GAS  C:\Users\ZShuai\AppData\Local\Temp\ccV30ir9.s 			page 67


 981:../firmware/n32g430_std_periph_driver/src/n32g430_comp.c **** *\*\            - COMP3_INPSEL_PB1                   
 982:../firmware/n32g430_std_periph_driver/src/n32g430_comp.c **** *\*\            - COMP3_INPSEL_PB11                  
 983:../firmware/n32g430_std_periph_driver/src/n32g430_comp.c **** *\*\            - COMP3_INPSEL_PB15                  
 984:../firmware/n32g430_std_periph_driver/src/n32g430_comp.c **** *\*\            - COMP3_INPSEL_PB3                   
 985:../firmware/n32g430_std_periph_driver/src/n32g430_comp.c **** *\*\            - COMP3_INPSEL_PB5                   
 986:../firmware/n32g430_std_periph_driver/src/n32g430_comp.c **** *\*\            - COMP3_INPSEL_FLOAT                 
 987:../firmware/n32g430_std_periph_driver/src/n32g430_comp.c **** *\*\            - COMP3_INPSEL_FLOAT                                        
 988:../firmware/n32g430_std_periph_driver/src/n32g430_comp.c **** *\*\          - InmSel
 989:../firmware/n32g430_std_periph_driver/src/n32g430_comp.c **** *\*\             comp1 inm sel 
 990:../firmware/n32g430_std_periph_driver/src/n32g430_comp.c **** *\*\            - COMP1_INMSEL_VREF_VC1              
 991:../firmware/n32g430_std_periph_driver/src/n32g430_comp.c **** *\*\            - COMP1_INMSEL_PA4                   
 992:../firmware/n32g430_std_periph_driver/src/n32g430_comp.c **** *\*\            - COMP1_INMSEL_PA0                   
 993:../firmware/n32g430_std_periph_driver/src/n32g430_comp.c **** *\*\            - COMP1_INMSEL_PA5                   
 994:../firmware/n32g430_std_periph_driver/src/n32g430_comp.c **** *\*\            - COMP1_INMSEL_PB5                   
 995:../firmware/n32g430_std_periph_driver/src/n32g430_comp.c **** *\*\            - COMP1_INMSEL_FLOAT                 
 996:../firmware/n32g430_std_periph_driver/src/n32g430_comp.c **** *\*\            - COMP1_INMSEL_FLOAT                 
 997:../firmware/n32g430_std_periph_driver/src/n32g430_comp.c **** *\*\            - COMP1_INMSEL_FLOAT                            
 998:../firmware/n32g430_std_periph_driver/src/n32g430_comp.c **** *\*\             comp2 inm sel 
 999:../firmware/n32g430_std_periph_driver/src/n32g430_comp.c **** *\*\            - COMP2_INMSEL_VERF_VC2              
1000:../firmware/n32g430_std_periph_driver/src/n32g430_comp.c **** *\*\            - COMP2_INMSEL_PA2                   
1001:../firmware/n32g430_std_periph_driver/src/n32g430_comp.c **** *\*\            - COMP2_INMSEL_PA5                   
1002:../firmware/n32g430_std_periph_driver/src/n32g430_comp.c **** *\*\            - COMP2_INMSEL_PA6                   
1003:../firmware/n32g430_std_periph_driver/src/n32g430_comp.c **** *\*\            - COMP2_INMSEL_PB3                   
1004:../firmware/n32g430_std_periph_driver/src/n32g430_comp.c **** *\*\            - COMP2_INMSEL_PA4                   
1005:../firmware/n32g430_std_periph_driver/src/n32g430_comp.c **** *\*\            - COMP2_INMSEL_FLOAT                 
1006:../firmware/n32g430_std_periph_driver/src/n32g430_comp.c **** *\*\            - COMP2_INMSEL_FLOAT                          
1007:../firmware/n32g430_std_periph_driver/src/n32g430_comp.c **** *\*\             comp3 inm sel 
1008:../firmware/n32g430_std_periph_driver/src/n32g430_comp.c **** *\*\            - COMP3_INMSEL_VREF_VC3           
1009:../firmware/n32g430_std_periph_driver/src/n32g430_comp.c **** *\*\            - COMP3_INMSEL_PA3                 
1010:../firmware/n32g430_std_periph_driver/src/n32g430_comp.c **** *\*\            - COMP3_INMSEL_PB0                  
1011:../firmware/n32g430_std_periph_driver/src/n32g430_comp.c **** *\*\            - COMP3_INMSEL_PB2                
1012:../firmware/n32g430_std_periph_driver/src/n32g430_comp.c **** *\*\            - COMP3_INMSEL_PB14               
1013:../firmware/n32g430_std_periph_driver/src/n32g430_comp.c **** *\*\            - COMP3_INMSEL_FLOAT               
1014:../firmware/n32g430_std_periph_driver/src/n32g430_comp.c **** *\*\            - COMP3_INMSEL_FLOAT                
1015:../firmware/n32g430_std_periph_driver/src/n32g430_comp.c **** *\*\            - COMP3_INMSEL_FLOAT                             
1016:../firmware/n32g430_std_periph_driver/src/n32g430_comp.c **** *\*\          - En
1017:../firmware/n32g430_std_periph_driver/src/n32g430_comp.c **** *\*\            - ENABLE
1018:../firmware/n32g430_std_periph_driver/src/n32g430_comp.c **** *\*\            - DISABLE
1019:../firmware/n32g430_std_periph_driver/src/n32g430_comp.c **** *\*\          - SampWindow
1020:../firmware/n32g430_std_periph_driver/src/n32g430_comp.c **** *\*\            - SampWindow Value ranges from 0~31. 
1021:../firmware/n32g430_std_periph_driver/src/n32g430_comp.c **** *\*\          - Threshold
1022:../firmware/n32g430_std_periph_driver/src/n32g430_comp.c **** *\*\            - Threshold Value need > SampWindow/2.
1023:../firmware/n32g430_std_periph_driver/src/n32g430_comp.c **** *\*\          - FilterEn
1024:../firmware/n32g430_std_periph_driver/src/n32g430_comp.c **** *\*\            - ENABLE
1025:../firmware/n32g430_std_periph_driver/src/n32g430_comp.c **** *\*\            - DISABLE
1026:../firmware/n32g430_std_periph_driver/src/n32g430_comp.c **** *\*\          - ClkPsc
1027:../firmware/n32g430_std_periph_driver/src/n32g430_comp.c **** *\*\            - ClkPsc Value ranges from 0~32767. 
1028:../firmware/n32g430_std_periph_driver/src/n32g430_comp.c **** *\*\return  none
1029:../firmware/n32g430_std_periph_driver/src/n32g430_comp.c **** **/
1030:../firmware/n32g430_std_periph_driver/src/n32g430_comp.c **** void COMP_Initializes(COMPX COMPx, COMP_InitType* COMP_initstruct)
1031:../firmware/n32g430_std_periph_driver/src/n32g430_comp.c **** {
 2527              		.loc 1 1031 1
 2528              		.cfi_startproc
 2529              		@ args = 0, pretend = 0, frame = 8
 2530              		@ frame_needed = 1, uses_anonymous_args = 0
 2531 0000 80B5     		push	{r7, lr}
 2532              	.LCFI153:
ARM GAS  C:\Users\ZShuai\AppData\Local\Temp\ccV30ir9.s 			page 68


 2533              		.cfi_def_cfa_offset 8
 2534              		.cfi_offset 7, -8
 2535              		.cfi_offset 14, -4
 2536 0002 82B0     		sub	sp, sp, #8
 2537              	.LCFI154:
 2538              		.cfi_def_cfa_offset 16
 2539 0004 00AF     		add	r7, sp, #0
 2540              	.LCFI155:
 2541              		.cfi_def_cfa_register 7
 2542 0006 0346     		mov	r3, r0
 2543 0008 3960     		str	r1, [r7]
 2544 000a FB71     		strb	r3, [r7, #7]
1032:../firmware/n32g430_std_periph_driver/src/n32g430_comp.c ****     /** filter configures **/
1033:../firmware/n32g430_std_periph_driver/src/n32g430_comp.c ****     COMP_Filter_SampWindow_Config(COMPx, COMP_initstruct->SampWindow);
 2545              		.loc 1 1033 5
 2546 000c 3B68     		ldr	r3, [r7]
 2547 000e 1A7F     		ldrb	r2, [r3, #28]	@ zero_extendqisi2
 2548 0010 FB79     		ldrb	r3, [r7, #7]	@ zero_extendqisi2
 2549 0012 1146     		mov	r1, r2
 2550 0014 1846     		mov	r0, r3
 2551 0016 FFF7FEFF 		bl	COMP_Filter_SampWindow_Config
1034:../firmware/n32g430_std_periph_driver/src/n32g430_comp.c ****     COMP_Filter_Threshold_Config(COMPx, COMP_initstruct->Threshold);
 2552              		.loc 1 1034 5
 2553 001a 3B68     		ldr	r3, [r7]
 2554 001c 5A7F     		ldrb	r2, [r3, #29]	@ zero_extendqisi2
 2555 001e FB79     		ldrb	r3, [r7, #7]	@ zero_extendqisi2
 2556 0020 1146     		mov	r1, r2
 2557 0022 1846     		mov	r0, r3
 2558 0024 FFF7FEFF 		bl	COMP_Filter_Threshold_Config
1035:../firmware/n32g430_std_periph_driver/src/n32g430_comp.c ****     if(COMP_initstruct->FilterEn == ENABLE)
 2559              		.loc 1 1035 23
 2560 0028 3B68     		ldr	r3, [r7]
 2561 002a 9B7F     		ldrb	r3, [r3, #30]	@ zero_extendqisi2
 2562              		.loc 1 1035 7
 2563 002c 012B     		cmp	r3, #1
 2564 002e 04D1     		bne	.L166
1036:../firmware/n32g430_std_periph_driver/src/n32g430_comp.c ****     {
1037:../firmware/n32g430_std_periph_driver/src/n32g430_comp.c ****         COMP_Filter_Enable(COMPx);
 2565              		.loc 1 1037 9
 2566 0030 FB79     		ldrb	r3, [r7, #7]	@ zero_extendqisi2
 2567 0032 1846     		mov	r0, r3
 2568 0034 FFF7FEFF 		bl	COMP_Filter_Enable
 2569 0038 03E0     		b	.L167
 2570              	.L166:
1038:../firmware/n32g430_std_periph_driver/src/n32g430_comp.c ****     }   
1039:../firmware/n32g430_std_periph_driver/src/n32g430_comp.c ****     else
1040:../firmware/n32g430_std_periph_driver/src/n32g430_comp.c ****     {
1041:../firmware/n32g430_std_periph_driver/src/n32g430_comp.c ****         COMP_Filter_Disable(COMPx);
 2571              		.loc 1 1041 9
 2572 003a FB79     		ldrb	r3, [r7, #7]	@ zero_extendqisi2
 2573 003c 1846     		mov	r0, r3
 2574 003e FFF7FEFF 		bl	COMP_Filter_Disable
 2575              	.L167:
1042:../firmware/n32g430_std_periph_driver/src/n32g430_comp.c ****     }
1043:../firmware/n32g430_std_periph_driver/src/n32g430_comp.c ****     /** filter clock Prescale configures **/
1044:../firmware/n32g430_std_periph_driver/src/n32g430_comp.c ****     COMP_Filter_Clock_Prescale_Config(COMPx, COMP_initstruct->ClkPsc);
 2576              		.loc 1 1044 5
ARM GAS  C:\Users\ZShuai\AppData\Local\Temp\ccV30ir9.s 			page 69


 2577 0042 3B68     		ldr	r3, [r7]
 2578 0044 1A8C     		ldrh	r2, [r3, #32]
 2579 0046 FB79     		ldrb	r3, [r7, #7]	@ zero_extendqisi2
 2580 0048 1146     		mov	r1, r2
 2581 004a 1846     		mov	r0, r3
 2582 004c FFF7FEFF 		bl	COMP_Filter_Clock_Prescale_Config
1045:../firmware/n32g430_std_periph_driver/src/n32g430_comp.c ****     
1046:../firmware/n32g430_std_periph_driver/src/n32g430_comp.c ****     /** ctrl configures**/
1047:../firmware/n32g430_std_periph_driver/src/n32g430_comp.c ****     COMP_Blking_Soucre_Config(COMPx, COMP_initstruct->Blking);
 2583              		.loc 1 1047 5
 2584 0050 3B68     		ldr	r3, [r7]
 2585 0052 1A68     		ldr	r2, [r3]
 2586 0054 FB79     		ldrb	r3, [r7, #7]	@ zero_extendqisi2
 2587 0056 1146     		mov	r1, r2
 2588 0058 1846     		mov	r0, r3
 2589 005a FFF7FEFF 		bl	COMP_Blking_Soucre_Config
1048:../firmware/n32g430_std_periph_driver/src/n32g430_comp.c ****     COMP_Hysteresis_Level_Config(COMPx, COMP_initstruct->Hyst);
 2590              		.loc 1 1048 5
 2591 005e 3B68     		ldr	r3, [r7]
 2592 0060 5A68     		ldr	r2, [r3, #4]
 2593 0062 FB79     		ldrb	r3, [r7, #7]	@ zero_extendqisi2
 2594 0064 1146     		mov	r1, r2
 2595 0066 1846     		mov	r0, r3
 2596 0068 FFF7FEFF 		bl	COMP_Hysteresis_Level_Config
1049:../firmware/n32g430_std_periph_driver/src/n32g430_comp.c ****     COMP_Output_Polarity_Config(COMPx, COMP_initstruct->PolRev);
 2597              		.loc 1 1049 5
 2598 006c 3B68     		ldr	r3, [r7]
 2599 006e 9A68     		ldr	r2, [r3, #8]
 2600 0070 FB79     		ldrb	r3, [r7, #7]	@ zero_extendqisi2
 2601 0072 1146     		mov	r1, r2
 2602 0074 1846     		mov	r0, r3
 2603 0076 FFF7FEFF 		bl	COMP_Output_Polarity_Config
1050:../firmware/n32g430_std_periph_driver/src/n32g430_comp.c ****     COMP_InpSel_Config(COMPx, COMP_initstruct->InpSel);
 2604              		.loc 1 1050 5
 2605 007a 3B68     		ldr	r3, [r7]
 2606 007c 1A69     		ldr	r2, [r3, #16]
 2607 007e FB79     		ldrb	r3, [r7, #7]	@ zero_extendqisi2
 2608 0080 1146     		mov	r1, r2
 2609 0082 1846     		mov	r0, r3
 2610 0084 FFF7FEFF 		bl	COMP_InpSel_Config
1051:../firmware/n32g430_std_periph_driver/src/n32g430_comp.c ****     COMP_InmSel_Config(COMPx, COMP_initstruct->InmSel);
 2611              		.loc 1 1051 5
 2612 0088 3B68     		ldr	r3, [r7]
 2613 008a 5A69     		ldr	r2, [r3, #20]
 2614 008c FB79     		ldrb	r3, [r7, #7]	@ zero_extendqisi2
 2615 008e 1146     		mov	r1, r2
 2616 0090 1846     		mov	r0, r3
 2617 0092 FFF7FEFF 		bl	COMP_InmSel_Config
1052:../firmware/n32g430_std_periph_driver/src/n32g430_comp.c ****     COMP_Output_Trigger_Config(COMPx, COMP_initstruct->OutSel);
 2618              		.loc 1 1052 5
 2619 0096 3B68     		ldr	r3, [r7]
 2620 0098 DA68     		ldr	r2, [r3, #12]
 2621 009a FB79     		ldrb	r3, [r7, #7]	@ zero_extendqisi2
 2622 009c 1146     		mov	r1, r2
 2623 009e 1846     		mov	r0, r3
 2624 00a0 FFF7FEFF 		bl	COMP_Output_Trigger_Config
1053:../firmware/n32g430_std_periph_driver/src/n32g430_comp.c **** 
ARM GAS  C:\Users\ZShuai\AppData\Local\Temp\ccV30ir9.s 			page 70


1054:../firmware/n32g430_std_periph_driver/src/n32g430_comp.c ****     /** comp enable or disable configures*/
1055:../firmware/n32g430_std_periph_driver/src/n32g430_comp.c ****     if (COMP_initstruct->En == ENABLE)
 2625              		.loc 1 1055 24
 2626 00a4 3B68     		ldr	r3, [r7]
 2627 00a6 9B69     		ldr	r3, [r3, #24]
 2628              		.loc 1 1055 8
 2629 00a8 012B     		cmp	r3, #1
 2630 00aa 04D1     		bne	.L168
1056:../firmware/n32g430_std_periph_driver/src/n32g430_comp.c ****         COMP_ON(COMPx);
 2631              		.loc 1 1056 9
 2632 00ac FB79     		ldrb	r3, [r7, #7]	@ zero_extendqisi2
 2633 00ae 1846     		mov	r0, r3
 2634 00b0 FFF7FEFF 		bl	COMP_ON
1057:../firmware/n32g430_std_periph_driver/src/n32g430_comp.c ****     else
1058:../firmware/n32g430_std_periph_driver/src/n32g430_comp.c ****         COMP_OFF(COMPx);
1059:../firmware/n32g430_std_periph_driver/src/n32g430_comp.c **** }
 2635              		.loc 1 1059 1
 2636 00b4 03E0     		b	.L170
 2637              	.L168:
1058:../firmware/n32g430_std_periph_driver/src/n32g430_comp.c **** }
 2638              		.loc 1 1058 9
 2639 00b6 FB79     		ldrb	r3, [r7, #7]	@ zero_extendqisi2
 2640 00b8 1846     		mov	r0, r3
 2641 00ba FFF7FEFF 		bl	COMP_OFF
 2642              	.L170:
 2643              		.loc 1 1059 1
 2644 00be 00BF     		nop
 2645 00c0 0837     		adds	r7, r7, #8
 2646              	.LCFI156:
 2647              		.cfi_def_cfa_offset 8
 2648 00c2 BD46     		mov	sp, r7
 2649              	.LCFI157:
 2650              		.cfi_def_cfa_register 13
 2651              		@ sp needed
 2652 00c4 80BD     		pop	{r7, pc}
 2653              		.cfi_endproc
 2654              	.LFE158:
 2656              		.text
 2657              	.Letext0:
 2658              		.file 2 "d:\\program files (x86)\\arm gnu toolchain arm-none-eabi\\12.3 rel1\\arm-none-eabi\\inclu
 2659              		.file 3 "d:\\program files (x86)\\arm gnu toolchain arm-none-eabi\\12.3 rel1\\arm-none-eabi\\inclu
 2660              		.file 4 "../firmware/CMSIS/device/n32g430.h"
 2661              		.file 5 "../firmware/n32g430_std_periph_driver/inc/n32g430_comp.h"
 2662              		.file 6 "../firmware/n32g430_std_periph_driver/inc/n32g430_rcc.h"
ARM GAS  C:\Users\ZShuai\AppData\Local\Temp\ccV30ir9.s 			page 71

