ARM GAS  C:\Users\ZShuai\AppData\Local\Temp\cc3cdILj.s 			page 1


   1              		.cpu cortex-m4
   2              		.arch armv7e-m
   3              		.fpu fpv4-sp-d16
   4              		.eabi_attribute 27, 1
   5              		.eabi_attribute 28, 1
   6              		.eabi_attribute 20, 1
   7              		.eabi_attribute 21, 1
   8              		.eabi_attribute 23, 3
   9              		.eabi_attribute 24, 1
  10              		.eabi_attribute 25, 1
  11              		.eabi_attribute 26, 1
  12              		.eabi_attribute 30, 6
  13              		.eabi_attribute 34, 1
  14              		.eabi_attribute 18, 4
  15              		.file	"n32g430_flash.c"
  16              		.text
  17              	.Ltext0:
  18              		.cfi_sections	.debug_frame
  19              		.file 1 "../firmware/n32g430_std_periph_driver/src/n32g430_flash.c"
  20              		.section	.text.FLASH_Latency_Set,"ax",%progbits
  21              		.align	1
  22              		.global	FLASH_Latency_Set
  23              		.syntax unified
  24              		.thumb
  25              		.thumb_func
  27              	FLASH_Latency_Set:
  28              	.LFB130:
   1:../firmware/n32g430_std_periph_driver/src/n32g430_flash.c **** /**
   2:../firmware/n32g430_std_periph_driver/src/n32g430_flash.c **** *     Copyright (c) 2022, Nations Technologies Inc.
   3:../firmware/n32g430_std_periph_driver/src/n32g430_flash.c **** * 
   4:../firmware/n32g430_std_periph_driver/src/n32g430_flash.c **** *     All rights reserved.
   5:../firmware/n32g430_std_periph_driver/src/n32g430_flash.c **** *
   6:../firmware/n32g430_std_periph_driver/src/n32g430_flash.c **** *     This software is the exclusive property of Nations Technologies Inc. (Hereinafter 
   7:../firmware/n32g430_std_periph_driver/src/n32g430_flash.c **** * referred to as NATIONS). This software, and the product of NATIONS described herein 
   8:../firmware/n32g430_std_periph_driver/src/n32g430_flash.c **** * (Hereinafter referred to as the Product) are owned by NATIONS under the laws and treaties
   9:../firmware/n32g430_std_periph_driver/src/n32g430_flash.c **** * of the People's Republic of China and other applicable jurisdictions worldwide.
  10:../firmware/n32g430_std_periph_driver/src/n32g430_flash.c **** *
  11:../firmware/n32g430_std_periph_driver/src/n32g430_flash.c **** *     NATIONS does not grant any license under its patents, copyrights, trademarks, or other 
  12:../firmware/n32g430_std_periph_driver/src/n32g430_flash.c **** * intellectual property rights. Names and brands of third party may be mentioned or referred 
  13:../firmware/n32g430_std_periph_driver/src/n32g430_flash.c **** * thereto (if any) for identification purposes only.
  14:../firmware/n32g430_std_periph_driver/src/n32g430_flash.c **** *
  15:../firmware/n32g430_std_periph_driver/src/n32g430_flash.c **** *     NATIONS reserves the right to make changes, corrections, enhancements, modifications, and 
  16:../firmware/n32g430_std_periph_driver/src/n32g430_flash.c **** * improvements to this software at any time without notice. Please contact NATIONS and obtain 
  17:../firmware/n32g430_std_periph_driver/src/n32g430_flash.c **** * the latest version of this software before placing orders.
  18:../firmware/n32g430_std_periph_driver/src/n32g430_flash.c **** 
  19:../firmware/n32g430_std_periph_driver/src/n32g430_flash.c **** *     Although NATIONS has attempted to provide accurate and reliable information, NATIONS assumes 
  20:../firmware/n32g430_std_periph_driver/src/n32g430_flash.c **** * no responsibility for the accuracy and reliability of this software.
  21:../firmware/n32g430_std_periph_driver/src/n32g430_flash.c **** * 
  22:../firmware/n32g430_std_periph_driver/src/n32g430_flash.c **** *     It is the responsibility of the user of this software to properly design, program, and test 
  23:../firmware/n32g430_std_periph_driver/src/n32g430_flash.c **** * the functionality and safety of any application made of this information and any resulting produc
  24:../firmware/n32g430_std_periph_driver/src/n32g430_flash.c **** * In no event shall NATIONS be liable for any direct, indirect, incidental, special,exemplary, or 
  25:../firmware/n32g430_std_periph_driver/src/n32g430_flash.c **** * consequential damages arising in any way out of the use of this software or the Product.
  26:../firmware/n32g430_std_periph_driver/src/n32g430_flash.c **** *
  27:../firmware/n32g430_std_periph_driver/src/n32g430_flash.c **** *     NATIONS Products are neither intended nor warranted for usage in systems or equipment, any
  28:../firmware/n32g430_std_periph_driver/src/n32g430_flash.c **** * malfunction or failure of which may cause loss of human life, bodily injury or severe property 
  29:../firmware/n32g430_std_periph_driver/src/n32g430_flash.c **** * damage. Such applications are deemed, "Insecure Usage".
  30:../firmware/n32g430_std_periph_driver/src/n32g430_flash.c **** *
ARM GAS  C:\Users\ZShuai\AppData\Local\Temp\cc3cdILj.s 			page 2


  31:../firmware/n32g430_std_periph_driver/src/n32g430_flash.c **** *     All Insecure Usage shall be made at user's risk. User shall indemnify NATIONS and hold NATION
  32:../firmware/n32g430_std_periph_driver/src/n32g430_flash.c **** * harmless from and against all claims, costs, damages, and other liabilities, arising from or rela
  33:../firmware/n32g430_std_periph_driver/src/n32g430_flash.c **** * to any customer's Insecure Usage.
  34:../firmware/n32g430_std_periph_driver/src/n32g430_flash.c **** 
  35:../firmware/n32g430_std_periph_driver/src/n32g430_flash.c **** *     Any express or implied warranty with regard to this software or the Product, including,but no
  36:../firmware/n32g430_std_periph_driver/src/n32g430_flash.c **** * limited to, the warranties of merchantability, fitness for a particular purpose and non-infringem
  37:../firmware/n32g430_std_periph_driver/src/n32g430_flash.c **** * are disclaimed to the fullest extent permitted by law.
  38:../firmware/n32g430_std_periph_driver/src/n32g430_flash.c **** 
  39:../firmware/n32g430_std_periph_driver/src/n32g430_flash.c **** *     Unless otherwise explicitly permitted by NATIONS, anyone may not duplicate, modify, transcrib
  40:../firmware/n32g430_std_periph_driver/src/n32g430_flash.c **** * or otherwise distribute this software for any purposes, in whole or in part.
  41:../firmware/n32g430_std_periph_driver/src/n32g430_flash.c **** *
  42:../firmware/n32g430_std_periph_driver/src/n32g430_flash.c **** *     NATIONS products and technologies shall not be used for or incorporated into any products or 
  43:../firmware/n32g430_std_periph_driver/src/n32g430_flash.c **** * whose manufacture, use, or sale is prohibited under any applicable domestic or foreign laws or re
  44:../firmware/n32g430_std_periph_driver/src/n32g430_flash.c **** * User shall comply with any applicable export control laws and regulations promulgated and adminis
  45:../firmware/n32g430_std_periph_driver/src/n32g430_flash.c **** * the governments of any countries asserting jurisdiction over the parties or transactions.
  46:../firmware/n32g430_std_periph_driver/src/n32g430_flash.c **** **/
  47:../firmware/n32g430_std_periph_driver/src/n32g430_flash.c **** 
  48:../firmware/n32g430_std_periph_driver/src/n32g430_flash.c **** /**
  49:../firmware/n32g430_std_periph_driver/src/n32g430_flash.c **** *\*\file n32g430_flash.c
  50:../firmware/n32g430_std_periph_driver/src/n32g430_flash.c **** *\*\author Nations
  51:../firmware/n32g430_std_periph_driver/src/n32g430_flash.c **** *\*\version v1.0.2
  52:../firmware/n32g430_std_periph_driver/src/n32g430_flash.c **** *\*\copyright Copyright (c) 2022, Nations Technologies Inc. All rights reserved.
  53:../firmware/n32g430_std_periph_driver/src/n32g430_flash.c **** **/
  54:../firmware/n32g430_std_periph_driver/src/n32g430_flash.c **** #include "n32g430_flash.h"
  55:../firmware/n32g430_std_periph_driver/src/n32g430_flash.c **** 
  56:../firmware/n32g430_std_periph_driver/src/n32g430_flash.c **** /** FLASH Driving Functions Declaration **/
  57:../firmware/n32g430_std_periph_driver/src/n32g430_flash.c **** 
  58:../firmware/n32g430_std_periph_driver/src/n32g430_flash.c **** /**
  59:../firmware/n32g430_std_periph_driver/src/n32g430_flash.c **** *\*\name    FLASH_Latency_Set
  60:../firmware/n32g430_std_periph_driver/src/n32g430_flash.c **** *\*\fun     Sets the code latency value.
  61:../firmware/n32g430_std_periph_driver/src/n32g430_flash.c **** *\*\note    This function can be used for N32G430 devices.
  62:../firmware/n32g430_std_periph_driver/src/n32g430_flash.c **** *\*\param   flash_latency :
  63:../firmware/n32g430_std_periph_driver/src/n32g430_flash.c **** *\*\            - FLASH_LATENCY_0    FLASH Zero Latency cycle, 0 < HCLK <= 32MHz      
  64:../firmware/n32g430_std_periph_driver/src/n32g430_flash.c **** *\*\            - FLASH_LATENCY_1    FLASH One Latency cycle, 32MHz < HCLK<= 64MHz
  65:../firmware/n32g430_std_periph_driver/src/n32g430_flash.c **** *\*\            - FLASH_LATENCY_2    FLASH Two Latency cycles, 64MHz < HCLK<= 96MHz
  66:../firmware/n32g430_std_periph_driver/src/n32g430_flash.c **** *\*\            - FLASH_LATENCY_3    FLASH Three Latency cycles, 96MHz < HCLK
  67:../firmware/n32g430_std_periph_driver/src/n32g430_flash.c **** *\*\return  none
  68:../firmware/n32g430_std_periph_driver/src/n32g430_flash.c **** **/
  69:../firmware/n32g430_std_periph_driver/src/n32g430_flash.c **** void FLASH_Latency_Set(uint32_t flash_latency)
  70:../firmware/n32g430_std_periph_driver/src/n32g430_flash.c **** {
  29              		.loc 1 70 1
  30              		.cfi_startproc
  31              		@ args = 0, pretend = 0, frame = 16
  32              		@ frame_needed = 1, uses_anonymous_args = 0
  33              		@ link register save eliminated.
  34 0000 80B4     		push	{r7}
  35              	.LCFI0:
  36              		.cfi_def_cfa_offset 4
  37              		.cfi_offset 7, -4
  38 0002 85B0     		sub	sp, sp, #20
  39              	.LCFI1:
  40              		.cfi_def_cfa_offset 24
  41 0004 00AF     		add	r7, sp, #0
  42              	.LCFI2:
  43              		.cfi_def_cfa_register 7
  44 0006 7860     		str	r0, [r7, #4]
  71:../firmware/n32g430_std_periph_driver/src/n32g430_flash.c ****     uint32_t temp_value = 0;
ARM GAS  C:\Users\ZShuai\AppData\Local\Temp\cc3cdILj.s 			page 3


  45              		.loc 1 71 14
  46 0008 0023     		movs	r3, #0
  47 000a FB60     		str	r3, [r7, #12]
  72:../firmware/n32g430_std_periph_driver/src/n32g430_flash.c **** 
  73:../firmware/n32g430_std_periph_driver/src/n32g430_flash.c ****     /* Read the AC register */
  74:../firmware/n32g430_std_periph_driver/src/n32g430_flash.c ****     temp_value = FLASH->AC;
  48              		.loc 1 74 23
  49 000c 094B     		ldr	r3, .L2
  50              		.loc 1 74 16
  51 000e 1B68     		ldr	r3, [r3]
  52 0010 FB60     		str	r3, [r7, #12]
  75:../firmware/n32g430_std_periph_driver/src/n32g430_flash.c **** 
  76:../firmware/n32g430_std_periph_driver/src/n32g430_flash.c ****     /* Sets the Latency value */
  77:../firmware/n32g430_std_periph_driver/src/n32g430_flash.c ****     temp_value &= (~FLASH_LATENCY_MASK);
  53              		.loc 1 77 16
  54 0012 FB68     		ldr	r3, [r7, #12]
  55 0014 23F00703 		bic	r3, r3, #7
  56 0018 FB60     		str	r3, [r7, #12]
  78:../firmware/n32g430_std_periph_driver/src/n32g430_flash.c ****     temp_value |= flash_latency;
  57              		.loc 1 78 16
  58 001a FA68     		ldr	r2, [r7, #12]
  59 001c 7B68     		ldr	r3, [r7, #4]
  60 001e 1343     		orrs	r3, r3, r2
  61 0020 FB60     		str	r3, [r7, #12]
  79:../firmware/n32g430_std_periph_driver/src/n32g430_flash.c **** 
  80:../firmware/n32g430_std_periph_driver/src/n32g430_flash.c ****     /* Write the AC register */
  81:../firmware/n32g430_std_periph_driver/src/n32g430_flash.c ****     FLASH->AC = temp_value;
  62              		.loc 1 81 10
  63 0022 044A     		ldr	r2, .L2
  64              		.loc 1 81 15
  65 0024 FB68     		ldr	r3, [r7, #12]
  66 0026 1360     		str	r3, [r2]
  82:../firmware/n32g430_std_periph_driver/src/n32g430_flash.c **** }
  67              		.loc 1 82 1
  68 0028 00BF     		nop
  69 002a 1437     		adds	r7, r7, #20
  70              	.LCFI3:
  71              		.cfi_def_cfa_offset 4
  72 002c BD46     		mov	sp, r7
  73              	.LCFI4:
  74              		.cfi_def_cfa_register 13
  75              		@ sp needed
  76 002e 5DF8047B 		ldr	r7, [sp], #4
  77              	.LCFI5:
  78              		.cfi_restore 7
  79              		.cfi_def_cfa_offset 0
  80 0032 7047     		bx	lr
  81              	.L3:
  82              		.align	2
  83              	.L2:
  84 0034 00200240 		.word	1073881088
  85              		.cfi_endproc
  86              	.LFE130:
  88              		.section	.text.FLASH_Latency_Get,"ax",%progbits
  89              		.align	1
  90              		.global	FLASH_Latency_Get
  91              		.syntax unified
ARM GAS  C:\Users\ZShuai\AppData\Local\Temp\cc3cdILj.s 			page 4


  92              		.thumb
  93              		.thumb_func
  95              	FLASH_Latency_Get:
  96              	.LFB131:
  83:../firmware/n32g430_std_periph_driver/src/n32g430_flash.c **** 
  84:../firmware/n32g430_std_periph_driver/src/n32g430_flash.c **** /**
  85:../firmware/n32g430_std_periph_driver/src/n32g430_flash.c **** *\*\name    FLASH_Latency_Get
  86:../firmware/n32g430_std_periph_driver/src/n32g430_flash.c **** *\*\fun     Get the code latency value.
  87:../firmware/n32g430_std_periph_driver/src/n32g430_flash.c **** *\*\note    This function can be used for N32G430 devices.
  88:../firmware/n32g430_std_periph_driver/src/n32g430_flash.c **** *\*\param   none
  89:../firmware/n32g430_std_periph_driver/src/n32g430_flash.c **** *\*\return  FLASH_LATENCY :
  90:../firmware/n32g430_std_periph_driver/src/n32g430_flash.c **** *\*\            - FLASH_LATENCY_0    FLASH Zero Latency cycle, 0 < HCLK <= 32MHz      
  91:../firmware/n32g430_std_periph_driver/src/n32g430_flash.c **** *\*\            - FLASH_LATENCY_1    FLASH One Latency cycle, 32MHz < HCLK<= 64MHz
  92:../firmware/n32g430_std_periph_driver/src/n32g430_flash.c **** *\*\            - FLASH_LATENCY_2    FLASH Two Latency cycles, 64MHz < HCLK<= 96MHz
  93:../firmware/n32g430_std_periph_driver/src/n32g430_flash.c **** *\*\            - FLASH_LATENCY_3    FLASH Three Latency cycles, 96MHz < HCLK
  94:../firmware/n32g430_std_periph_driver/src/n32g430_flash.c **** **/
  95:../firmware/n32g430_std_periph_driver/src/n32g430_flash.c **** uint8_t FLASH_Latency_Get(void)
  96:../firmware/n32g430_std_periph_driver/src/n32g430_flash.c **** {
  97              		.loc 1 96 1
  98              		.cfi_startproc
  99              		@ args = 0, pretend = 0, frame = 0
 100              		@ frame_needed = 1, uses_anonymous_args = 0
 101              		@ link register save eliminated.
 102 0000 80B4     		push	{r7}
 103              	.LCFI6:
 104              		.cfi_def_cfa_offset 4
 105              		.cfi_offset 7, -4
 106 0002 00AF     		add	r7, sp, #0
 107              	.LCFI7:
 108              		.cfi_def_cfa_register 7
  97:../firmware/n32g430_std_periph_driver/src/n32g430_flash.c ****     /* Read the AC register */
  98:../firmware/n32g430_std_periph_driver/src/n32g430_flash.c ****     return (uint8_t)(FLASH->AC & FLASH_LATENCY_MASK);
 109              		.loc 1 98 27
 110 0004 054B     		ldr	r3, .L6
 111 0006 1B68     		ldr	r3, [r3]
 112              		.loc 1 98 12
 113 0008 DBB2     		uxtb	r3, r3
 114 000a 03F00703 		and	r3, r3, #7
 115 000e DBB2     		uxtb	r3, r3
  99:../firmware/n32g430_std_periph_driver/src/n32g430_flash.c **** }
 116              		.loc 1 99 1
 117 0010 1846     		mov	r0, r3
 118 0012 BD46     		mov	sp, r7
 119              	.LCFI8:
 120              		.cfi_def_cfa_register 13
 121              		@ sp needed
 122 0014 5DF8047B 		ldr	r7, [sp], #4
 123              	.LCFI9:
 124              		.cfi_restore 7
 125              		.cfi_def_cfa_offset 0
 126 0018 7047     		bx	lr
 127              	.L7:
 128 001a 00BF     		.align	2
 129              	.L6:
 130 001c 00200240 		.word	1073881088
 131              		.cfi_endproc
 132              	.LFE131:
ARM GAS  C:\Users\ZShuai\AppData\Local\Temp\cc3cdILj.s 			page 5


 134              		.section	.text.FLASH_Prefetch_Buffer_Enable,"ax",%progbits
 135              		.align	1
 136              		.global	FLASH_Prefetch_Buffer_Enable
 137              		.syntax unified
 138              		.thumb
 139              		.thumb_func
 141              	FLASH_Prefetch_Buffer_Enable:
 142              	.LFB132:
 100:../firmware/n32g430_std_periph_driver/src/n32g430_flash.c **** 
 101:../firmware/n32g430_std_periph_driver/src/n32g430_flash.c **** /**
 102:../firmware/n32g430_std_periph_driver/src/n32g430_flash.c **** *\*\name    FLASH_Prefetch_Buffer_Enable
 103:../firmware/n32g430_std_periph_driver/src/n32g430_flash.c **** *\*\fun     Enables the Prefetch Buffer.
 104:../firmware/n32g430_std_periph_driver/src/n32g430_flash.c **** *\*\note    This function can be used for N32G430 devices. 
 105:../firmware/n32g430_std_periph_driver/src/n32g430_flash.c **** *\*\param   none 
 106:../firmware/n32g430_std_periph_driver/src/n32g430_flash.c **** *\*\return  none
 107:../firmware/n32g430_std_periph_driver/src/n32g430_flash.c **** **/
 108:../firmware/n32g430_std_periph_driver/src/n32g430_flash.c **** void FLASH_Prefetch_Buffer_Enable(void)
 109:../firmware/n32g430_std_periph_driver/src/n32g430_flash.c **** {
 143              		.loc 1 109 1
 144              		.cfi_startproc
 145              		@ args = 0, pretend = 0, frame = 0
 146              		@ frame_needed = 1, uses_anonymous_args = 0
 147              		@ link register save eliminated.
 148 0000 80B4     		push	{r7}
 149              	.LCFI10:
 150              		.cfi_def_cfa_offset 4
 151              		.cfi_offset 7, -4
 152 0002 00AF     		add	r7, sp, #0
 153              	.LCFI11:
 154              		.cfi_def_cfa_register 7
 110:../firmware/n32g430_std_periph_driver/src/n32g430_flash.c ****     /* Enable the Prefetch Buffer */
 111:../firmware/n32g430_std_periph_driver/src/n32g430_flash.c ****     FLASH->AC |= FLASH_PREFETCHBUF_EN;
 155              		.loc 1 111 10
 156 0004 054B     		ldr	r3, .L9
 157 0006 1B68     		ldr	r3, [r3]
 158 0008 044A     		ldr	r2, .L9
 159              		.loc 1 111 15
 160 000a 43F01003 		orr	r3, r3, #16
 161 000e 1360     		str	r3, [r2]
 112:../firmware/n32g430_std_periph_driver/src/n32g430_flash.c **** }
 162              		.loc 1 112 1
 163 0010 00BF     		nop
 164 0012 BD46     		mov	sp, r7
 165              	.LCFI12:
 166              		.cfi_def_cfa_register 13
 167              		@ sp needed
 168 0014 5DF8047B 		ldr	r7, [sp], #4
 169              	.LCFI13:
 170              		.cfi_restore 7
 171              		.cfi_def_cfa_offset 0
 172 0018 7047     		bx	lr
 173              	.L10:
 174 001a 00BF     		.align	2
 175              	.L9:
 176 001c 00200240 		.word	1073881088
 177              		.cfi_endproc
 178              	.LFE132:
ARM GAS  C:\Users\ZShuai\AppData\Local\Temp\cc3cdILj.s 			page 6


 180              		.section	.text.FLASH_Prefetch_Buffer_Disable,"ax",%progbits
 181              		.align	1
 182              		.global	FLASH_Prefetch_Buffer_Disable
 183              		.syntax unified
 184              		.thumb
 185              		.thumb_func
 187              	FLASH_Prefetch_Buffer_Disable:
 188              	.LFB133:
 113:../firmware/n32g430_std_periph_driver/src/n32g430_flash.c **** 
 114:../firmware/n32g430_std_periph_driver/src/n32g430_flash.c **** /**
 115:../firmware/n32g430_std_periph_driver/src/n32g430_flash.c **** *\*\name    FLASH_Prefetch_Buffer_Disable
 116:../firmware/n32g430_std_periph_driver/src/n32g430_flash.c **** *\*\fun     Disables the Prefetch Buffer.
 117:../firmware/n32g430_std_periph_driver/src/n32g430_flash.c **** *\*\note    This function can be used for N32G430 devices.
 118:../firmware/n32g430_std_periph_driver/src/n32g430_flash.c **** *\*\param   none
 119:../firmware/n32g430_std_periph_driver/src/n32g430_flash.c **** *\*\return  none
 120:../firmware/n32g430_std_periph_driver/src/n32g430_flash.c **** **/
 121:../firmware/n32g430_std_periph_driver/src/n32g430_flash.c **** void FLASH_Prefetch_Buffer_Disable(void)
 122:../firmware/n32g430_std_periph_driver/src/n32g430_flash.c **** {
 189              		.loc 1 122 1
 190              		.cfi_startproc
 191              		@ args = 0, pretend = 0, frame = 0
 192              		@ frame_needed = 1, uses_anonymous_args = 0
 193              		@ link register save eliminated.
 194 0000 80B4     		push	{r7}
 195              	.LCFI14:
 196              		.cfi_def_cfa_offset 4
 197              		.cfi_offset 7, -4
 198 0002 00AF     		add	r7, sp, #0
 199              	.LCFI15:
 200              		.cfi_def_cfa_register 7
 123:../firmware/n32g430_std_periph_driver/src/n32g430_flash.c ****     /* Disable the Prefetch Buffer */
 124:../firmware/n32g430_std_periph_driver/src/n32g430_flash.c ****     FLASH->AC &= FLASH_PREFETCHBUF_DIS;
 201              		.loc 1 124 10
 202 0004 054B     		ldr	r3, .L12
 203 0006 1B68     		ldr	r3, [r3]
 204 0008 044A     		ldr	r2, .L12
 205              		.loc 1 124 15
 206 000a 23F01003 		bic	r3, r3, #16
 207 000e 1360     		str	r3, [r2]
 125:../firmware/n32g430_std_periph_driver/src/n32g430_flash.c **** }
 208              		.loc 1 125 1
 209 0010 00BF     		nop
 210 0012 BD46     		mov	sp, r7
 211              	.LCFI16:
 212              		.cfi_def_cfa_register 13
 213              		@ sp needed
 214 0014 5DF8047B 		ldr	r7, [sp], #4
 215              	.LCFI17:
 216              		.cfi_restore 7
 217              		.cfi_def_cfa_offset 0
 218 0018 7047     		bx	lr
 219              	.L13:
 220 001a 00BF     		.align	2
 221              	.L12:
 222 001c 00200240 		.word	1073881088
 223              		.cfi_endproc
 224              	.LFE133:
ARM GAS  C:\Users\ZShuai\AppData\Local\Temp\cc3cdILj.s 			page 7


 226              		.section	.text.FLASH_ICache_Reset,"ax",%progbits
 227              		.align	1
 228              		.global	FLASH_ICache_Reset
 229              		.syntax unified
 230              		.thumb
 231              		.thumb_func
 233              	FLASH_ICache_Reset:
 234              	.LFB134:
 126:../firmware/n32g430_std_periph_driver/src/n32g430_flash.c **** 
 127:../firmware/n32g430_std_periph_driver/src/n32g430_flash.c **** /**
 128:../firmware/n32g430_std_periph_driver/src/n32g430_flash.c **** *\*\name    FLASH_ICache_Reset
 129:../firmware/n32g430_std_periph_driver/src/n32g430_flash.c **** *\*\fun     ICache Reset.
 130:../firmware/n32g430_std_periph_driver/src/n32g430_flash.c **** *\*\note    This function can be used for N32G430 devices.
 131:../firmware/n32g430_std_periph_driver/src/n32g430_flash.c **** *\*\param   none
 132:../firmware/n32g430_std_periph_driver/src/n32g430_flash.c **** *\*\return  none
 133:../firmware/n32g430_std_periph_driver/src/n32g430_flash.c **** **/
 134:../firmware/n32g430_std_periph_driver/src/n32g430_flash.c **** void FLASH_ICache_Reset(void)
 135:../firmware/n32g430_std_periph_driver/src/n32g430_flash.c **** {
 235              		.loc 1 135 1
 236              		.cfi_startproc
 237              		@ args = 0, pretend = 0, frame = 0
 238              		@ frame_needed = 1, uses_anonymous_args = 0
 239              		@ link register save eliminated.
 240 0000 80B4     		push	{r7}
 241              	.LCFI18:
 242              		.cfi_def_cfa_offset 4
 243              		.cfi_offset 7, -4
 244 0002 00AF     		add	r7, sp, #0
 245              	.LCFI19:
 246              		.cfi_def_cfa_register 7
 136:../firmware/n32g430_std_periph_driver/src/n32g430_flash.c ****     /* ICache Reset */
 137:../firmware/n32g430_std_periph_driver/src/n32g430_flash.c ****     FLASH->AC |= FLASH_ICAHRST_MSK;
 247              		.loc 1 137 10
 248 0004 054B     		ldr	r3, .L15
 249 0006 1B68     		ldr	r3, [r3]
 250 0008 044A     		ldr	r2, .L15
 251              		.loc 1 137 15
 252 000a 43F04003 		orr	r3, r3, #64
 253 000e 1360     		str	r3, [r2]
 138:../firmware/n32g430_std_periph_driver/src/n32g430_flash.c **** }
 254              		.loc 1 138 1
 255 0010 00BF     		nop
 256 0012 BD46     		mov	sp, r7
 257              	.LCFI20:
 258              		.cfi_def_cfa_register 13
 259              		@ sp needed
 260 0014 5DF8047B 		ldr	r7, [sp], #4
 261              	.LCFI21:
 262              		.cfi_restore 7
 263              		.cfi_def_cfa_offset 0
 264 0018 7047     		bx	lr
 265              	.L16:
 266 001a 00BF     		.align	2
 267              	.L15:
 268 001c 00200240 		.word	1073881088
 269              		.cfi_endproc
 270              	.LFE134:
ARM GAS  C:\Users\ZShuai\AppData\Local\Temp\cc3cdILj.s 			page 8


 272              		.section	.text.FLASH_ICache_Enable,"ax",%progbits
 273              		.align	1
 274              		.global	FLASH_ICache_Enable
 275              		.syntax unified
 276              		.thumb
 277              		.thumb_func
 279              	FLASH_ICache_Enable:
 280              	.LFB135:
 139:../firmware/n32g430_std_periph_driver/src/n32g430_flash.c **** 
 140:../firmware/n32g430_std_periph_driver/src/n32g430_flash.c **** /**
 141:../firmware/n32g430_std_periph_driver/src/n32g430_flash.c **** *\*\name    FLASH_ICache_Enable
 142:../firmware/n32g430_std_periph_driver/src/n32g430_flash.c **** *\*\fun     Enables the iCache.
 143:../firmware/n32g430_std_periph_driver/src/n32g430_flash.c **** *\*\note    This function can be used for N32G430 devices.
 144:../firmware/n32g430_std_periph_driver/src/n32g430_flash.c **** *\*\param   none
 145:../firmware/n32g430_std_periph_driver/src/n32g430_flash.c **** *\*\return  none
 146:../firmware/n32g430_std_periph_driver/src/n32g430_flash.c **** **/
 147:../firmware/n32g430_std_periph_driver/src/n32g430_flash.c **** void FLASH_ICache_Enable(void)
 148:../firmware/n32g430_std_periph_driver/src/n32g430_flash.c **** {
 281              		.loc 1 148 1
 282              		.cfi_startproc
 283              		@ args = 0, pretend = 0, frame = 0
 284              		@ frame_needed = 1, uses_anonymous_args = 0
 285              		@ link register save eliminated.
 286 0000 80B4     		push	{r7}
 287              	.LCFI22:
 288              		.cfi_def_cfa_offset 4
 289              		.cfi_offset 7, -4
 290 0002 00AF     		add	r7, sp, #0
 291              	.LCFI23:
 292              		.cfi_def_cfa_register 7
 149:../firmware/n32g430_std_periph_driver/src/n32g430_flash.c ****     /* Enable the iCache */
 150:../firmware/n32g430_std_periph_driver/src/n32g430_flash.c ****     FLASH->AC |= FLASH_ICACHE_EN;
 293              		.loc 1 150 10
 294 0004 054B     		ldr	r3, .L18
 295 0006 1B68     		ldr	r3, [r3]
 296 0008 044A     		ldr	r2, .L18
 297              		.loc 1 150 15
 298 000a 43F08003 		orr	r3, r3, #128
 299 000e 1360     		str	r3, [r2]
 151:../firmware/n32g430_std_periph_driver/src/n32g430_flash.c **** }
 300              		.loc 1 151 1
 301 0010 00BF     		nop
 302 0012 BD46     		mov	sp, r7
 303              	.LCFI24:
 304              		.cfi_def_cfa_register 13
 305              		@ sp needed
 306 0014 5DF8047B 		ldr	r7, [sp], #4
 307              	.LCFI25:
 308              		.cfi_restore 7
 309              		.cfi_def_cfa_offset 0
 310 0018 7047     		bx	lr
 311              	.L19:
 312 001a 00BF     		.align	2
 313              	.L18:
 314 001c 00200240 		.word	1073881088
 315              		.cfi_endproc
 316              	.LFE135:
ARM GAS  C:\Users\ZShuai\AppData\Local\Temp\cc3cdILj.s 			page 9


 318              		.section	.text.FLASH_ICache_Disable,"ax",%progbits
 319              		.align	1
 320              		.global	FLASH_ICache_Disable
 321              		.syntax unified
 322              		.thumb
 323              		.thumb_func
 325              	FLASH_ICache_Disable:
 326              	.LFB136:
 152:../firmware/n32g430_std_periph_driver/src/n32g430_flash.c **** 
 153:../firmware/n32g430_std_periph_driver/src/n32g430_flash.c **** /**
 154:../firmware/n32g430_std_periph_driver/src/n32g430_flash.c **** *\*\name    FLASH_ICache_Disable
 155:../firmware/n32g430_std_periph_driver/src/n32g430_flash.c **** *\*\fun     Disables the iCache.
 156:../firmware/n32g430_std_periph_driver/src/n32g430_flash.c **** *\*\note    This function can be used for N32G430 devices.
 157:../firmware/n32g430_std_periph_driver/src/n32g430_flash.c **** *\*\param   none
 158:../firmware/n32g430_std_periph_driver/src/n32g430_flash.c **** *\*\return  none
 159:../firmware/n32g430_std_periph_driver/src/n32g430_flash.c **** **/
 160:../firmware/n32g430_std_periph_driver/src/n32g430_flash.c **** void FLASH_ICache_Disable(void)
 161:../firmware/n32g430_std_periph_driver/src/n32g430_flash.c **** {
 327              		.loc 1 161 1
 328              		.cfi_startproc
 329              		@ args = 0, pretend = 0, frame = 0
 330              		@ frame_needed = 1, uses_anonymous_args = 0
 331              		@ link register save eliminated.
 332 0000 80B4     		push	{r7}
 333              	.LCFI26:
 334              		.cfi_def_cfa_offset 4
 335              		.cfi_offset 7, -4
 336 0002 00AF     		add	r7, sp, #0
 337              	.LCFI27:
 338              		.cfi_def_cfa_register 7
 162:../firmware/n32g430_std_periph_driver/src/n32g430_flash.c ****     /* Disable the iCache */
 163:../firmware/n32g430_std_periph_driver/src/n32g430_flash.c ****     FLASH->AC &= FLASH_ICACHE_DIS;
 339              		.loc 1 163 10
 340 0004 054B     		ldr	r3, .L21
 341 0006 1B68     		ldr	r3, [r3]
 342 0008 044A     		ldr	r2, .L21
 343              		.loc 1 163 15
 344 000a 23F08003 		bic	r3, r3, #128
 345 000e 1360     		str	r3, [r2]
 164:../firmware/n32g430_std_periph_driver/src/n32g430_flash.c **** }
 346              		.loc 1 164 1
 347 0010 00BF     		nop
 348 0012 BD46     		mov	sp, r7
 349              	.LCFI28:
 350              		.cfi_def_cfa_register 13
 351              		@ sp needed
 352 0014 5DF8047B 		ldr	r7, [sp], #4
 353              	.LCFI29:
 354              		.cfi_restore 7
 355              		.cfi_def_cfa_offset 0
 356 0018 7047     		bx	lr
 357              	.L22:
 358 001a 00BF     		.align	2
 359              	.L21:
 360 001c 00200240 		.word	1073881088
 361              		.cfi_endproc
 362              	.LFE136:
ARM GAS  C:\Users\ZShuai\AppData\Local\Temp\cc3cdILj.s 			page 10


 364              		.section	.text.FLASH_ICache_Status_Get,"ax",%progbits
 365              		.align	1
 366              		.global	FLASH_ICache_Status_Get
 367              		.syntax unified
 368              		.thumb
 369              		.thumb_func
 371              	FLASH_ICache_Status_Get:
 372              	.LFB137:
 165:../firmware/n32g430_std_periph_driver/src/n32g430_flash.c **** 
 166:../firmware/n32g430_std_periph_driver/src/n32g430_flash.c **** 
 167:../firmware/n32g430_std_periph_driver/src/n32g430_flash.c **** /**
 168:../firmware/n32g430_std_periph_driver/src/n32g430_flash.c **** *\*\name    FLASH_ICache_Status_Get
 169:../firmware/n32g430_std_periph_driver/src/n32g430_flash.c **** *\*\fun     Get the iCache status.
 170:../firmware/n32g430_std_periph_driver/src/n32g430_flash.c **** *\*\note    This function can be used for N32G430 devices.
 171:../firmware/n32g430_std_periph_driver/src/n32g430_flash.c **** *\*\param   none
 172:../firmware/n32g430_std_periph_driver/src/n32g430_flash.c **** *\*\return  FlagStatus :
 173:../firmware/n32g430_std_periph_driver/src/n32g430_flash.c **** *\*\            - SET
 174:../firmware/n32g430_std_periph_driver/src/n32g430_flash.c **** *\*\            - RESET
 175:../firmware/n32g430_std_periph_driver/src/n32g430_flash.c **** **/
 176:../firmware/n32g430_std_periph_driver/src/n32g430_flash.c **** FlagStatus FLASH_ICache_Status_Get(void)
 177:../firmware/n32g430_std_periph_driver/src/n32g430_flash.c **** {
 373              		.loc 1 177 1
 374              		.cfi_startproc
 375              		@ args = 0, pretend = 0, frame = 0
 376              		@ frame_needed = 1, uses_anonymous_args = 0
 377              		@ link register save eliminated.
 378 0000 80B4     		push	{r7}
 379              	.LCFI30:
 380              		.cfi_def_cfa_offset 4
 381              		.cfi_offset 7, -4
 382 0002 00AF     		add	r7, sp, #0
 383              	.LCFI31:
 384              		.cfi_def_cfa_register 7
 178:../firmware/n32g430_std_periph_driver/src/n32g430_flash.c ****     if ((FLASH->AC & FLASH_AC_ICAHEN) != (uint32_t)RESET)
 385              		.loc 1 178 15
 386 0004 064B     		ldr	r3, .L26
 387 0006 1B68     		ldr	r3, [r3]
 388              		.loc 1 178 20
 389 0008 03F08003 		and	r3, r3, #128
 390              		.loc 1 178 8
 391 000c 002B     		cmp	r3, #0
 392 000e 01D0     		beq	.L24
 179:../firmware/n32g430_std_periph_driver/src/n32g430_flash.c ****     {
 180:../firmware/n32g430_std_periph_driver/src/n32g430_flash.c ****         return SET;
 393              		.loc 1 180 16
 394 0010 0123     		movs	r3, #1
 395 0012 00E0     		b	.L25
 396              	.L24:
 181:../firmware/n32g430_std_periph_driver/src/n32g430_flash.c ****     }
 182:../firmware/n32g430_std_periph_driver/src/n32g430_flash.c ****     else
 183:../firmware/n32g430_std_periph_driver/src/n32g430_flash.c ****     {
 184:../firmware/n32g430_std_periph_driver/src/n32g430_flash.c ****         return RESET;
 397              		.loc 1 184 16
 398 0014 0023     		movs	r3, #0
 399              	.L25:
 185:../firmware/n32g430_std_periph_driver/src/n32g430_flash.c ****     }
 186:../firmware/n32g430_std_periph_driver/src/n32g430_flash.c **** }
ARM GAS  C:\Users\ZShuai\AppData\Local\Temp\cc3cdILj.s 			page 11


 400              		.loc 1 186 1
 401 0016 1846     		mov	r0, r3
 402 0018 BD46     		mov	sp, r7
 403              	.LCFI32:
 404              		.cfi_def_cfa_register 13
 405              		@ sp needed
 406 001a 5DF8047B 		ldr	r7, [sp], #4
 407              	.LCFI33:
 408              		.cfi_restore 7
 409              		.cfi_def_cfa_offset 0
 410 001e 7047     		bx	lr
 411              	.L27:
 412              		.align	2
 413              	.L26:
 414 0020 00200240 		.word	1073881088
 415              		.cfi_endproc
 416              	.LFE137:
 418              		.section	.text.FLASH_Cache_LOCK_Start,"ax",%progbits
 419              		.align	1
 420              		.global	FLASH_Cache_LOCK_Start
 421              		.syntax unified
 422              		.thumb
 423              		.thumb_func
 425              	FLASH_Cache_LOCK_Start:
 426              	.LFB138:
 187:../firmware/n32g430_std_periph_driver/src/n32g430_flash.c **** 
 188:../firmware/n32g430_std_periph_driver/src/n32g430_flash.c **** 
 189:../firmware/n32g430_std_periph_driver/src/n32g430_flash.c **** 
 190:../firmware/n32g430_std_periph_driver/src/n32g430_flash.c **** /**
 191:../firmware/n32g430_std_periph_driver/src/n32g430_flash.c **** *\*\name   FLASH_Cache_LOCK_Start
 192:../firmware/n32g430_std_periph_driver/src/n32g430_flash.c **** *\*\fun    Start cache lock.
 193:../firmware/n32g430_std_periph_driver/src/n32g430_flash.c **** *\*\note   This function can be used for N32G430 devices.
 194:../firmware/n32g430_std_periph_driver/src/n32g430_flash.c **** *\*\param  lock_start_way :
 195:../firmware/n32g430_std_periph_driver/src/n32g430_flash.c **** *\*\            - FLASH_CAHR_LOCKSTRT_WAY0
 196:../firmware/n32g430_std_periph_driver/src/n32g430_flash.c **** *\*\            - FLASH_CAHR_LOCKSTRT_WAY1
 197:../firmware/n32g430_std_periph_driver/src/n32g430_flash.c **** *\*\            - FLASH_CAHR_LOCKSTRT_WAY2
 198:../firmware/n32g430_std_periph_driver/src/n32g430_flash.c **** *\*\            - FLASH_CAHR_LOCKSTRT_WAY3
 199:../firmware/n32g430_std_periph_driver/src/n32g430_flash.c **** *\*\return none
 200:../firmware/n32g430_std_periph_driver/src/n32g430_flash.c **** **/
 201:../firmware/n32g430_std_periph_driver/src/n32g430_flash.c **** void FLASH_Cache_LOCK_Start(uint32_t lock_start_way)
 202:../firmware/n32g430_std_periph_driver/src/n32g430_flash.c **** {
 427              		.loc 1 202 1
 428              		.cfi_startproc
 429              		@ args = 0, pretend = 0, frame = 8
 430              		@ frame_needed = 1, uses_anonymous_args = 0
 431              		@ link register save eliminated.
 432 0000 80B4     		push	{r7}
 433              	.LCFI34:
 434              		.cfi_def_cfa_offset 4
 435              		.cfi_offset 7, -4
 436 0002 83B0     		sub	sp, sp, #12
 437              	.LCFI35:
 438              		.cfi_def_cfa_offset 16
 439 0004 00AF     		add	r7, sp, #0
 440              	.LCFI36:
 441              		.cfi_def_cfa_register 7
 442 0006 7860     		str	r0, [r7, #4]
ARM GAS  C:\Users\ZShuai\AppData\Local\Temp\cc3cdILj.s 			page 12


 203:../firmware/n32g430_std_periph_driver/src/n32g430_flash.c ****     FLASH->CAHR &= (~(lock_start_way << FLASH_CAHR_LOCK_OFFSET));
 443              		.loc 1 203 10
 444 0008 094B     		ldr	r3, .L29
 445 000a 1A6B     		ldr	r2, [r3, #48]
 446              		.loc 1 203 38
 447 000c 7B68     		ldr	r3, [r7, #4]
 448 000e 1B01     		lsls	r3, r3, #4
 449              		.loc 1 203 21
 450 0010 DB43     		mvns	r3, r3
 451              		.loc 1 203 10
 452 0012 0749     		ldr	r1, .L29
 453              		.loc 1 203 17
 454 0014 1340     		ands	r3, r3, r2
 455 0016 0B63     		str	r3, [r1, #48]
 204:../firmware/n32g430_std_periph_driver/src/n32g430_flash.c ****     FLASH->CAHR |= lock_start_way;
 456              		.loc 1 204 10
 457 0018 054B     		ldr	r3, .L29
 458 001a 1A6B     		ldr	r2, [r3, #48]
 459 001c 0449     		ldr	r1, .L29
 460              		.loc 1 204 17
 461 001e 7B68     		ldr	r3, [r7, #4]
 462 0020 1343     		orrs	r3, r3, r2
 463 0022 0B63     		str	r3, [r1, #48]
 205:../firmware/n32g430_std_periph_driver/src/n32g430_flash.c **** }
 464              		.loc 1 205 1
 465 0024 00BF     		nop
 466 0026 0C37     		adds	r7, r7, #12
 467              	.LCFI37:
 468              		.cfi_def_cfa_offset 4
 469 0028 BD46     		mov	sp, r7
 470              	.LCFI38:
 471              		.cfi_def_cfa_register 13
 472              		@ sp needed
 473 002a 5DF8047B 		ldr	r7, [sp], #4
 474              	.LCFI39:
 475              		.cfi_restore 7
 476              		.cfi_def_cfa_offset 0
 477 002e 7047     		bx	lr
 478              	.L30:
 479              		.align	2
 480              	.L29:
 481 0030 00200240 		.word	1073881088
 482              		.cfi_endproc
 483              	.LFE138:
 485              		.section	.text.FLASH_Cache_LOCK_Stop,"ax",%progbits
 486              		.align	1
 487              		.global	FLASH_Cache_LOCK_Stop
 488              		.syntax unified
 489              		.thumb
 490              		.thumb_func
 492              	FLASH_Cache_LOCK_Stop:
 493              	.LFB139:
 206:../firmware/n32g430_std_periph_driver/src/n32g430_flash.c **** 
 207:../firmware/n32g430_std_periph_driver/src/n32g430_flash.c **** /**
 208:../firmware/n32g430_std_periph_driver/src/n32g430_flash.c **** *\*\name   FLASH_Cache_LOCK_Stop
 209:../firmware/n32g430_std_periph_driver/src/n32g430_flash.c **** *\*\fun    Stop cache lock.
 210:../firmware/n32g430_std_periph_driver/src/n32g430_flash.c **** *\*\note   This function can be used for N32G430 devices.
ARM GAS  C:\Users\ZShuai\AppData\Local\Temp\cc3cdILj.s 			page 13


 211:../firmware/n32g430_std_periph_driver/src/n32g430_flash.c **** *\*\param  lock_stop_way :
 212:../firmware/n32g430_std_periph_driver/src/n32g430_flash.c **** *\*\            - FLASH_CAHR_LOCKSTOP_WAY0
 213:../firmware/n32g430_std_periph_driver/src/n32g430_flash.c **** *\*\            - FLASH_CAHR_LOCKSTOP_WAY1
 214:../firmware/n32g430_std_periph_driver/src/n32g430_flash.c **** *\*\            - FLASH_CAHR_LOCKSTOP_WAY2
 215:../firmware/n32g430_std_periph_driver/src/n32g430_flash.c **** *\*\            - FLASH_CAHR_LOCKSTOP_WAY3
 216:../firmware/n32g430_std_periph_driver/src/n32g430_flash.c **** *\*\return none
 217:../firmware/n32g430_std_periph_driver/src/n32g430_flash.c **** **/
 218:../firmware/n32g430_std_periph_driver/src/n32g430_flash.c **** void FLASH_Cache_LOCK_Stop(uint32_t lock_stop_way)
 219:../firmware/n32g430_std_periph_driver/src/n32g430_flash.c **** {
 494              		.loc 1 219 1
 495              		.cfi_startproc
 496              		@ args = 0, pretend = 0, frame = 8
 497              		@ frame_needed = 1, uses_anonymous_args = 0
 498              		@ link register save eliminated.
 499 0000 80B4     		push	{r7}
 500              	.LCFI40:
 501              		.cfi_def_cfa_offset 4
 502              		.cfi_offset 7, -4
 503 0002 83B0     		sub	sp, sp, #12
 504              	.LCFI41:
 505              		.cfi_def_cfa_offset 16
 506 0004 00AF     		add	r7, sp, #0
 507              	.LCFI42:
 508              		.cfi_def_cfa_register 7
 509 0006 7860     		str	r0, [r7, #4]
 220:../firmware/n32g430_std_periph_driver/src/n32g430_flash.c ****     FLASH->CAHR |= lock_stop_way;
 510              		.loc 1 220 10
 511 0008 054B     		ldr	r3, .L32
 512 000a 1A6B     		ldr	r2, [r3, #48]
 513 000c 0449     		ldr	r1, .L32
 514              		.loc 1 220 17
 515 000e 7B68     		ldr	r3, [r7, #4]
 516 0010 1343     		orrs	r3, r3, r2
 517 0012 0B63     		str	r3, [r1, #48]
 221:../firmware/n32g430_std_periph_driver/src/n32g430_flash.c **** }
 518              		.loc 1 221 1
 519 0014 00BF     		nop
 520 0016 0C37     		adds	r7, r7, #12
 521              	.LCFI43:
 522              		.cfi_def_cfa_offset 4
 523 0018 BD46     		mov	sp, r7
 524              	.LCFI44:
 525              		.cfi_def_cfa_register 13
 526              		@ sp needed
 527 001a 5DF8047B 		ldr	r7, [sp], #4
 528              	.LCFI45:
 529              		.cfi_restore 7
 530              		.cfi_def_cfa_offset 0
 531 001e 7047     		bx	lr
 532              	.L33:
 533              		.align	2
 534              	.L32:
 535 0020 00200240 		.word	1073881088
 536              		.cfi_endproc
 537              	.LFE139:
 539              		.section	.text.FLASH_Cache_LOCK_Cancel,"ax",%progbits
 540              		.align	1
ARM GAS  C:\Users\ZShuai\AppData\Local\Temp\cc3cdILj.s 			page 14


 541              		.global	FLASH_Cache_LOCK_Cancel
 542              		.syntax unified
 543              		.thumb
 544              		.thumb_func
 546              	FLASH_Cache_LOCK_Cancel:
 547              	.LFB140:
 222:../firmware/n32g430_std_periph_driver/src/n32g430_flash.c **** 
 223:../firmware/n32g430_std_periph_driver/src/n32g430_flash.c **** 
 224:../firmware/n32g430_std_periph_driver/src/n32g430_flash.c **** /**
 225:../firmware/n32g430_std_periph_driver/src/n32g430_flash.c **** *\*\name   FLASH_Cache_LOCK_Cancel
 226:../firmware/n32g430_std_periph_driver/src/n32g430_flash.c **** *\*\fun    Cancle cache lock.
 227:../firmware/n32g430_std_periph_driver/src/n32g430_flash.c **** *\*\note   This function can be used for N32G430 devices.
 228:../firmware/n32g430_std_periph_driver/src/n32g430_flash.c **** *\*\param  lock_stop_way :
 229:../firmware/n32g430_std_periph_driver/src/n32g430_flash.c **** *\*\            - FLASH_CAHR_LOCKSTOP_WAY0
 230:../firmware/n32g430_std_periph_driver/src/n32g430_flash.c **** *\*\            - FLASH_CAHR_LOCKSTOP_WAY1
 231:../firmware/n32g430_std_periph_driver/src/n32g430_flash.c **** *\*\            - FLASH_CAHR_LOCKSTOP_WAY2
 232:../firmware/n32g430_std_periph_driver/src/n32g430_flash.c **** *\*\            - FLASH_CAHR_LOCKSTOP_WAY3
 233:../firmware/n32g430_std_periph_driver/src/n32g430_flash.c **** *\*\return none
 234:../firmware/n32g430_std_periph_driver/src/n32g430_flash.c **** **/
 235:../firmware/n32g430_std_periph_driver/src/n32g430_flash.c **** void FLASH_Cache_LOCK_Cancel(uint32_t lock_stop_way)
 236:../firmware/n32g430_std_periph_driver/src/n32g430_flash.c **** {
 548              		.loc 1 236 1
 549              		.cfi_startproc
 550              		@ args = 0, pretend = 0, frame = 8
 551              		@ frame_needed = 1, uses_anonymous_args = 0
 552              		@ link register save eliminated.
 553 0000 80B4     		push	{r7}
 554              	.LCFI46:
 555              		.cfi_def_cfa_offset 4
 556              		.cfi_offset 7, -4
 557 0002 83B0     		sub	sp, sp, #12
 558              	.LCFI47:
 559              		.cfi_def_cfa_offset 16
 560 0004 00AF     		add	r7, sp, #0
 561              	.LCFI48:
 562              		.cfi_def_cfa_register 7
 563 0006 7860     		str	r0, [r7, #4]
 237:../firmware/n32g430_std_periph_driver/src/n32g430_flash.c ****     FLASH->CAHR |= lock_stop_way;
 564              		.loc 1 237 10
 565 0008 094B     		ldr	r3, .L35
 566 000a 1A6B     		ldr	r2, [r3, #48]
 567 000c 0849     		ldr	r1, .L35
 568              		.loc 1 237 17
 569 000e 7B68     		ldr	r3, [r7, #4]
 570 0010 1343     		orrs	r3, r3, r2
 571 0012 0B63     		str	r3, [r1, #48]
 238:../firmware/n32g430_std_periph_driver/src/n32g430_flash.c ****     FLASH->CAHR &= (~lock_stop_way);
 572              		.loc 1 238 10
 573 0014 064B     		ldr	r3, .L35
 574 0016 1A6B     		ldr	r2, [r3, #48]
 575              		.loc 1 238 21
 576 0018 7B68     		ldr	r3, [r7, #4]
 577 001a DB43     		mvns	r3, r3
 578              		.loc 1 238 10
 579 001c 0449     		ldr	r1, .L35
 580              		.loc 1 238 17
 581 001e 1340     		ands	r3, r3, r2
ARM GAS  C:\Users\ZShuai\AppData\Local\Temp\cc3cdILj.s 			page 15


 582 0020 0B63     		str	r3, [r1, #48]
 239:../firmware/n32g430_std_periph_driver/src/n32g430_flash.c **** }
 583              		.loc 1 239 1
 584 0022 00BF     		nop
 585 0024 0C37     		adds	r7, r7, #12
 586              	.LCFI49:
 587              		.cfi_def_cfa_offset 4
 588 0026 BD46     		mov	sp, r7
 589              	.LCFI50:
 590              		.cfi_def_cfa_register 13
 591              		@ sp needed
 592 0028 5DF8047B 		ldr	r7, [sp], #4
 593              	.LCFI51:
 594              		.cfi_restore 7
 595              		.cfi_def_cfa_offset 0
 596 002c 7047     		bx	lr
 597              	.L36:
 598 002e 00BF     		.align	2
 599              	.L35:
 600 0030 00200240 		.word	1073881088
 601              		.cfi_endproc
 602              	.LFE140:
 604              		.section	.text.FLASH_Cache_LOCK_Status_Get,"ax",%progbits
 605              		.align	1
 606              		.global	FLASH_Cache_LOCK_Status_Get
 607              		.syntax unified
 608              		.thumb
 609              		.thumb_func
 611              	FLASH_Cache_LOCK_Status_Get:
 612              	.LFB141:
 240:../firmware/n32g430_std_periph_driver/src/n32g430_flash.c **** 
 241:../firmware/n32g430_std_periph_driver/src/n32g430_flash.c **** /**
 242:../firmware/n32g430_std_periph_driver/src/n32g430_flash.c **** *\*\name   FLASH_Cache_LOCK_Status_Get
 243:../firmware/n32g430_std_periph_driver/src/n32g430_flash.c **** *\*\fun    Get cache lock status.
 244:../firmware/n32g430_std_periph_driver/src/n32g430_flash.c **** *\*\note   This function can be used for N32G430 devices.
 245:../firmware/n32g430_std_periph_driver/src/n32g430_flash.c **** *\*\param  lock_way :
 246:../firmware/n32g430_std_periph_driver/src/n32g430_flash.c **** *\*\            - FLASH_CAHR_LOCKSTRT_WAY0
 247:../firmware/n32g430_std_periph_driver/src/n32g430_flash.c **** *\*\            - FLASH_CAHR_LOCKSTRT_WAY1
 248:../firmware/n32g430_std_periph_driver/src/n32g430_flash.c **** *\*\            - FLASH_CAHR_LOCKSTRT_WAY2
 249:../firmware/n32g430_std_periph_driver/src/n32g430_flash.c **** *\*\            - FLASH_CAHR_LOCKSTRT_WAY3
 250:../firmware/n32g430_std_periph_driver/src/n32g430_flash.c **** *\*\            - FLASH_CAHR_LOCKSTOP_WAY0
 251:../firmware/n32g430_std_periph_driver/src/n32g430_flash.c **** *\*\            - FLASH_CAHR_LOCKSTOP_WAY1
 252:../firmware/n32g430_std_periph_driver/src/n32g430_flash.c **** *\*\            - FLASH_CAHR_LOCKSTOP_WAY2
 253:../firmware/n32g430_std_periph_driver/src/n32g430_flash.c **** *\*\            - FLASH_CAHR_LOCKSTOP_WAY3
 254:../firmware/n32g430_std_periph_driver/src/n32g430_flash.c **** *\*\return  FlagStatus :
 255:../firmware/n32g430_std_periph_driver/src/n32g430_flash.c **** *\*\            - SET
 256:../firmware/n32g430_std_periph_driver/src/n32g430_flash.c **** *\*\            - RESET
 257:../firmware/n32g430_std_periph_driver/src/n32g430_flash.c **** **/
 258:../firmware/n32g430_std_periph_driver/src/n32g430_flash.c **** FlagStatus FLASH_Cache_LOCK_Status_Get(uint32_t lock_way)
 259:../firmware/n32g430_std_periph_driver/src/n32g430_flash.c **** {
 613              		.loc 1 259 1
 614              		.cfi_startproc
 615              		@ args = 0, pretend = 0, frame = 8
 616              		@ frame_needed = 1, uses_anonymous_args = 0
 617              		@ link register save eliminated.
 618 0000 80B4     		push	{r7}
 619              	.LCFI52:
ARM GAS  C:\Users\ZShuai\AppData\Local\Temp\cc3cdILj.s 			page 16


 620              		.cfi_def_cfa_offset 4
 621              		.cfi_offset 7, -4
 622 0002 83B0     		sub	sp, sp, #12
 623              	.LCFI53:
 624              		.cfi_def_cfa_offset 16
 625 0004 00AF     		add	r7, sp, #0
 626              	.LCFI54:
 627              		.cfi_def_cfa_register 7
 628 0006 7860     		str	r0, [r7, #4]
 260:../firmware/n32g430_std_periph_driver/src/n32g430_flash.c ****     if ((FLASH->CAHR & lock_way) != (uint32_t)RESET)
 629              		.loc 1 260 15
 630 0008 074B     		ldr	r3, .L40
 631 000a 1A6B     		ldr	r2, [r3, #48]
 632              		.loc 1 260 22
 633 000c 7B68     		ldr	r3, [r7, #4]
 634 000e 1340     		ands	r3, r3, r2
 635              		.loc 1 260 8
 636 0010 002B     		cmp	r3, #0
 637 0012 01D0     		beq	.L38
 261:../firmware/n32g430_std_periph_driver/src/n32g430_flash.c ****     {
 262:../firmware/n32g430_std_periph_driver/src/n32g430_flash.c ****         return SET;
 638              		.loc 1 262 16
 639 0014 0123     		movs	r3, #1
 640 0016 00E0     		b	.L39
 641              	.L38:
 263:../firmware/n32g430_std_periph_driver/src/n32g430_flash.c ****     }
 264:../firmware/n32g430_std_periph_driver/src/n32g430_flash.c ****     else
 265:../firmware/n32g430_std_periph_driver/src/n32g430_flash.c ****     {
 266:../firmware/n32g430_std_periph_driver/src/n32g430_flash.c ****         return RESET;
 642              		.loc 1 266 16
 643 0018 0023     		movs	r3, #0
 644              	.L39:
 267:../firmware/n32g430_std_periph_driver/src/n32g430_flash.c ****     }
 268:../firmware/n32g430_std_periph_driver/src/n32g430_flash.c **** }
 645              		.loc 1 268 1
 646 001a 1846     		mov	r0, r3
 647 001c 0C37     		adds	r7, r7, #12
 648              	.LCFI55:
 649              		.cfi_def_cfa_offset 4
 650 001e BD46     		mov	sp, r7
 651              	.LCFI56:
 652              		.cfi_def_cfa_register 13
 653              		@ sp needed
 654 0020 5DF8047B 		ldr	r7, [sp], #4
 655              	.LCFI57:
 656              		.cfi_restore 7
 657              		.cfi_def_cfa_offset 0
 658 0024 7047     		bx	lr
 659              	.L41:
 660 0026 00BF     		.align	2
 661              	.L40:
 662 0028 00200240 		.word	1073881088
 663              		.cfi_endproc
 664              	.LFE141:
 666              		.section	.text.FLASH_Unlock,"ax",%progbits
 667              		.align	1
 668              		.global	FLASH_Unlock
ARM GAS  C:\Users\ZShuai\AppData\Local\Temp\cc3cdILj.s 			page 17


 669              		.syntax unified
 670              		.thumb
 671              		.thumb_func
 673              	FLASH_Unlock:
 674              	.LFB142:
 269:../firmware/n32g430_std_periph_driver/src/n32g430_flash.c **** 
 270:../firmware/n32g430_std_periph_driver/src/n32g430_flash.c **** 
 271:../firmware/n32g430_std_periph_driver/src/n32g430_flash.c **** 
 272:../firmware/n32g430_std_periph_driver/src/n32g430_flash.c **** /**
 273:../firmware/n32g430_std_periph_driver/src/n32g430_flash.c **** *\*\name   FLASH_Unlock
 274:../firmware/n32g430_std_periph_driver/src/n32g430_flash.c **** *\*\fun    Unlocks the FLASH Program Erase Controller.
 275:../firmware/n32g430_std_periph_driver/src/n32g430_flash.c **** *\*\note   This function can be used for N32G430 devices.
 276:../firmware/n32g430_std_periph_driver/src/n32g430_flash.c **** *\*\param  none
 277:../firmware/n32g430_std_periph_driver/src/n32g430_flash.c **** *\*\return none
 278:../firmware/n32g430_std_periph_driver/src/n32g430_flash.c **** **/
 279:../firmware/n32g430_std_periph_driver/src/n32g430_flash.c **** void FLASH_Unlock(void)
 280:../firmware/n32g430_std_periph_driver/src/n32g430_flash.c **** {
 675              		.loc 1 280 1
 676              		.cfi_startproc
 677              		@ args = 0, pretend = 0, frame = 0
 678              		@ frame_needed = 1, uses_anonymous_args = 0
 679              		@ link register save eliminated.
 680 0000 80B4     		push	{r7}
 681              	.LCFI58:
 682              		.cfi_def_cfa_offset 4
 683              		.cfi_offset 7, -4
 684 0002 00AF     		add	r7, sp, #0
 685              	.LCFI59:
 686              		.cfi_def_cfa_register 7
 281:../firmware/n32g430_std_periph_driver/src/n32g430_flash.c ****     FLASH->KEY = FLASH_KEY1;
 687              		.loc 1 281 10
 688 0004 054B     		ldr	r3, .L43
 689              		.loc 1 281 16
 690 0006 064A     		ldr	r2, .L43+4
 691 0008 5A60     		str	r2, [r3, #4]
 282:../firmware/n32g430_std_periph_driver/src/n32g430_flash.c ****     FLASH->KEY = FLASH_KEY2;
 692              		.loc 1 282 10
 693 000a 044B     		ldr	r3, .L43
 694              		.loc 1 282 16
 695 000c 054A     		ldr	r2, .L43+8
 696 000e 5A60     		str	r2, [r3, #4]
 283:../firmware/n32g430_std_periph_driver/src/n32g430_flash.c **** }
 697              		.loc 1 283 1
 698 0010 00BF     		nop
 699 0012 BD46     		mov	sp, r7
 700              	.LCFI60:
 701              		.cfi_def_cfa_register 13
 702              		@ sp needed
 703 0014 5DF8047B 		ldr	r7, [sp], #4
 704              	.LCFI61:
 705              		.cfi_restore 7
 706              		.cfi_def_cfa_offset 0
 707 0018 7047     		bx	lr
 708              	.L44:
 709 001a 00BF     		.align	2
 710              	.L43:
 711 001c 00200240 		.word	1073881088
ARM GAS  C:\Users\ZShuai\AppData\Local\Temp\cc3cdILj.s 			page 18


 712 0020 23016745 		.word	1164378403
 713 0024 AB89EFCD 		.word	-839939669
 714              		.cfi_endproc
 715              	.LFE142:
 717              		.section	.text.FLASH_Lock,"ax",%progbits
 718              		.align	1
 719              		.global	FLASH_Lock
 720              		.syntax unified
 721              		.thumb
 722              		.thumb_func
 724              	FLASH_Lock:
 725              	.LFB143:
 284:../firmware/n32g430_std_periph_driver/src/n32g430_flash.c **** 
 285:../firmware/n32g430_std_periph_driver/src/n32g430_flash.c **** /**
 286:../firmware/n32g430_std_periph_driver/src/n32g430_flash.c **** *\*\name   FLASH_Lock
 287:../firmware/n32g430_std_periph_driver/src/n32g430_flash.c **** *\*\fun    Locks the FLASH Program Erase Controller.
 288:../firmware/n32g430_std_periph_driver/src/n32g430_flash.c **** *\*\note   This function can be used for N32G430 devices.
 289:../firmware/n32g430_std_periph_driver/src/n32g430_flash.c **** *\*\param  none
 290:../firmware/n32g430_std_periph_driver/src/n32g430_flash.c **** *\*\return none
 291:../firmware/n32g430_std_periph_driver/src/n32g430_flash.c **** **/
 292:../firmware/n32g430_std_periph_driver/src/n32g430_flash.c **** void FLASH_Lock(void)
 293:../firmware/n32g430_std_periph_driver/src/n32g430_flash.c **** {
 726              		.loc 1 293 1
 727              		.cfi_startproc
 728              		@ args = 0, pretend = 0, frame = 0
 729              		@ frame_needed = 1, uses_anonymous_args = 0
 730              		@ link register save eliminated.
 731 0000 80B4     		push	{r7}
 732              	.LCFI62:
 733              		.cfi_def_cfa_offset 4
 734              		.cfi_offset 7, -4
 735 0002 00AF     		add	r7, sp, #0
 736              	.LCFI63:
 737              		.cfi_def_cfa_register 7
 294:../firmware/n32g430_std_periph_driver/src/n32g430_flash.c ****     FLASH->CTRL |= FLASH_CTRL_SET_LOCK;
 738              		.loc 1 294 10
 739 0004 054B     		ldr	r3, .L46
 740 0006 1B69     		ldr	r3, [r3, #16]
 741 0008 044A     		ldr	r2, .L46
 742              		.loc 1 294 17
 743 000a 43F08003 		orr	r3, r3, #128
 744 000e 1361     		str	r3, [r2, #16]
 295:../firmware/n32g430_std_periph_driver/src/n32g430_flash.c **** }
 745              		.loc 1 295 1
 746 0010 00BF     		nop
 747 0012 BD46     		mov	sp, r7
 748              	.LCFI64:
 749              		.cfi_def_cfa_register 13
 750              		@ sp needed
 751 0014 5DF8047B 		ldr	r7, [sp], #4
 752              	.LCFI65:
 753              		.cfi_restore 7
 754              		.cfi_def_cfa_offset 0
 755 0018 7047     		bx	lr
 756              	.L47:
 757 001a 00BF     		.align	2
 758              	.L46:
ARM GAS  C:\Users\ZShuai\AppData\Local\Temp\cc3cdILj.s 			page 19


 759 001c 00200240 		.word	1073881088
 760              		.cfi_endproc
 761              	.LFE143:
 763              		.section	.text.Option_Bytes_Unlock,"ax",%progbits
 764              		.align	1
 765              		.global	Option_Bytes_Unlock
 766              		.syntax unified
 767              		.thumb
 768              		.thumb_func
 770              	Option_Bytes_Unlock:
 771              	.LFB144:
 296:../firmware/n32g430_std_periph_driver/src/n32g430_flash.c **** 
 297:../firmware/n32g430_std_periph_driver/src/n32g430_flash.c **** 
 298:../firmware/n32g430_std_periph_driver/src/n32g430_flash.c **** /**
 299:../firmware/n32g430_std_periph_driver/src/n32g430_flash.c **** *\*\name   Option_Bytes_Unlock
 300:../firmware/n32g430_std_periph_driver/src/n32g430_flash.c **** *\*\fun    Unlocks the Option_Bytes Program Erase Controller.
 301:../firmware/n32g430_std_periph_driver/src/n32g430_flash.c **** *\*\note   This function can be used for N32G430 devices.
 302:../firmware/n32g430_std_periph_driver/src/n32g430_flash.c **** *\*\param  none
 303:../firmware/n32g430_std_periph_driver/src/n32g430_flash.c **** *\*\return none
 304:../firmware/n32g430_std_periph_driver/src/n32g430_flash.c **** **/
 305:../firmware/n32g430_std_periph_driver/src/n32g430_flash.c **** void Option_Bytes_Unlock(void)
 306:../firmware/n32g430_std_periph_driver/src/n32g430_flash.c **** {
 772              		.loc 1 306 1
 773              		.cfi_startproc
 774              		@ args = 0, pretend = 0, frame = 0
 775              		@ frame_needed = 1, uses_anonymous_args = 0
 776              		@ link register save eliminated.
 777 0000 80B4     		push	{r7}
 778              	.LCFI66:
 779              		.cfi_def_cfa_offset 4
 780              		.cfi_offset 7, -4
 781 0002 00AF     		add	r7, sp, #0
 782              	.LCFI67:
 783              		.cfi_def_cfa_register 7
 307:../firmware/n32g430_std_periph_driver/src/n32g430_flash.c ****     FLASH->OPTKEY = FLASH_KEY1;
 784              		.loc 1 307 10
 785 0004 054B     		ldr	r3, .L49
 786              		.loc 1 307 19
 787 0006 064A     		ldr	r2, .L49+4
 788 0008 9A60     		str	r2, [r3, #8]
 308:../firmware/n32g430_std_periph_driver/src/n32g430_flash.c ****     FLASH->OPTKEY = FLASH_KEY2;
 789              		.loc 1 308 10
 790 000a 044B     		ldr	r3, .L49
 791              		.loc 1 308 19
 792 000c 054A     		ldr	r2, .L49+8
 793 000e 9A60     		str	r2, [r3, #8]
 309:../firmware/n32g430_std_periph_driver/src/n32g430_flash.c **** }
 794              		.loc 1 309 1
 795 0010 00BF     		nop
 796 0012 BD46     		mov	sp, r7
 797              	.LCFI68:
 798              		.cfi_def_cfa_register 13
 799              		@ sp needed
 800 0014 5DF8047B 		ldr	r7, [sp], #4
 801              	.LCFI69:
 802              		.cfi_restore 7
 803              		.cfi_def_cfa_offset 0
ARM GAS  C:\Users\ZShuai\AppData\Local\Temp\cc3cdILj.s 			page 20


 804 0018 7047     		bx	lr
 805              	.L50:
 806 001a 00BF     		.align	2
 807              	.L49:
 808 001c 00200240 		.word	1073881088
 809 0020 23016745 		.word	1164378403
 810 0024 AB89EFCD 		.word	-839939669
 811              		.cfi_endproc
 812              	.LFE144:
 814              		.section	.text.Option_Bytes_Lock,"ax",%progbits
 815              		.align	1
 816              		.global	Option_Bytes_Lock
 817              		.syntax unified
 818              		.thumb
 819              		.thumb_func
 821              	Option_Bytes_Lock:
 822              	.LFB145:
 310:../firmware/n32g430_std_periph_driver/src/n32g430_flash.c **** 
 311:../firmware/n32g430_std_periph_driver/src/n32g430_flash.c **** 
 312:../firmware/n32g430_std_periph_driver/src/n32g430_flash.c **** /**
 313:../firmware/n32g430_std_periph_driver/src/n32g430_flash.c **** *\*\name   Option_Bytes_Lock
 314:../firmware/n32g430_std_periph_driver/src/n32g430_flash.c **** *\*\fun    Locks the Option_Bytes Program Erase Controller.
 315:../firmware/n32g430_std_periph_driver/src/n32g430_flash.c **** *\*\note   This function can be used for N32G430 devices.
 316:../firmware/n32g430_std_periph_driver/src/n32g430_flash.c **** *\*\param  none
 317:../firmware/n32g430_std_periph_driver/src/n32g430_flash.c **** *\*\return none
 318:../firmware/n32g430_std_periph_driver/src/n32g430_flash.c **** **/
 319:../firmware/n32g430_std_periph_driver/src/n32g430_flash.c **** void Option_Bytes_Lock(void)
 320:../firmware/n32g430_std_periph_driver/src/n32g430_flash.c **** {
 823              		.loc 1 320 1
 824              		.cfi_startproc
 825              		@ args = 0, pretend = 0, frame = 0
 826              		@ frame_needed = 1, uses_anonymous_args = 0
 827              		@ link register save eliminated.
 828 0000 80B4     		push	{r7}
 829              	.LCFI70:
 830              		.cfi_def_cfa_offset 4
 831              		.cfi_offset 7, -4
 832 0002 00AF     		add	r7, sp, #0
 833              	.LCFI71:
 834              		.cfi_def_cfa_register 7
 321:../firmware/n32g430_std_periph_driver/src/n32g430_flash.c ****     /* Set the FLASH_CTRL_SET_OPTWE Bit to lock */
 322:../firmware/n32g430_std_periph_driver/src/n32g430_flash.c ****     FLASH->CTRL &= (~FLASH_CTRL_SET_OPTWE);
 835              		.loc 1 322 10
 836 0004 054B     		ldr	r3, .L52
 837 0006 1B69     		ldr	r3, [r3, #16]
 838 0008 044A     		ldr	r2, .L52
 839              		.loc 1 322 17
 840 000a 23F40073 		bic	r3, r3, #512
 841 000e 1361     		str	r3, [r2, #16]
 323:../firmware/n32g430_std_periph_driver/src/n32g430_flash.c **** }
 842              		.loc 1 323 1
 843 0010 00BF     		nop
 844 0012 BD46     		mov	sp, r7
 845              	.LCFI72:
 846              		.cfi_def_cfa_register 13
 847              		@ sp needed
 848 0014 5DF8047B 		ldr	r7, [sp], #4
ARM GAS  C:\Users\ZShuai\AppData\Local\Temp\cc3cdILj.s 			page 21


 849              	.LCFI73:
 850              		.cfi_restore 7
 851              		.cfi_def_cfa_offset 0
 852 0018 7047     		bx	lr
 853              	.L53:
 854 001a 00BF     		.align	2
 855              	.L52:
 856 001c 00200240 		.word	1073881088
 857              		.cfi_endproc
 858              	.LFE145:
 860              		.section	.text.Option_Bytes_Lock_Status_Get,"ax",%progbits
 861              		.align	1
 862              		.global	Option_Bytes_Lock_Status_Get
 863              		.syntax unified
 864              		.thumb
 865              		.thumb_func
 867              	Option_Bytes_Lock_Status_Get:
 868              	.LFB146:
 324:../firmware/n32g430_std_periph_driver/src/n32g430_flash.c **** 
 325:../firmware/n32g430_std_periph_driver/src/n32g430_flash.c **** 
 326:../firmware/n32g430_std_periph_driver/src/n32g430_flash.c **** /**
 327:../firmware/n32g430_std_periph_driver/src/n32g430_flash.c **** *\*\name   Option_Bytes_Lock_Status_Get
 328:../firmware/n32g430_std_periph_driver/src/n32g430_flash.c **** *\*\fun    Get the Option Bytes lock status.
 329:../firmware/n32g430_std_periph_driver/src/n32g430_flash.c **** *\*\note   This function can be used for N32G430 devices.
 330:../firmware/n32g430_std_periph_driver/src/n32g430_flash.c **** *\*\param  none
 331:../firmware/n32g430_std_periph_driver/src/n32g430_flash.c **** *\*\return FlagStatus :
 332:../firmware/n32g430_std_periph_driver/src/n32g430_flash.c **** *\*\            - SET
 333:../firmware/n32g430_std_periph_driver/src/n32g430_flash.c **** *\*\            - RESET
 334:../firmware/n32g430_std_periph_driver/src/n32g430_flash.c **** **/
 335:../firmware/n32g430_std_periph_driver/src/n32g430_flash.c **** FlagStatus Option_Bytes_Lock_Status_Get(void)
 336:../firmware/n32g430_std_periph_driver/src/n32g430_flash.c **** {
 869              		.loc 1 336 1
 870              		.cfi_startproc
 871              		@ args = 0, pretend = 0, frame = 0
 872              		@ frame_needed = 1, uses_anonymous_args = 0
 873              		@ link register save eliminated.
 874 0000 80B4     		push	{r7}
 875              	.LCFI74:
 876              		.cfi_def_cfa_offset 4
 877              		.cfi_offset 7, -4
 878 0002 00AF     		add	r7, sp, #0
 879              	.LCFI75:
 880              		.cfi_def_cfa_register 7
 337:../firmware/n32g430_std_periph_driver/src/n32g430_flash.c ****     if ((FLASH->CTRL & FLASH_CTRL_SET_OPTWE) != (uint32_t)RESET)
 881              		.loc 1 337 15
 882 0004 064B     		ldr	r3, .L57
 883 0006 1B69     		ldr	r3, [r3, #16]
 884              		.loc 1 337 22
 885 0008 03F40073 		and	r3, r3, #512
 886              		.loc 1 337 8
 887 000c 002B     		cmp	r3, #0
 888 000e 01D0     		beq	.L55
 338:../firmware/n32g430_std_periph_driver/src/n32g430_flash.c ****     {
 339:../firmware/n32g430_std_periph_driver/src/n32g430_flash.c ****         return SET;
 889              		.loc 1 339 16
 890 0010 0123     		movs	r3, #1
 891 0012 00E0     		b	.L56
ARM GAS  C:\Users\ZShuai\AppData\Local\Temp\cc3cdILj.s 			page 22


 892              	.L55:
 340:../firmware/n32g430_std_periph_driver/src/n32g430_flash.c ****     }
 341:../firmware/n32g430_std_periph_driver/src/n32g430_flash.c ****     else
 342:../firmware/n32g430_std_periph_driver/src/n32g430_flash.c ****     {
 343:../firmware/n32g430_std_periph_driver/src/n32g430_flash.c ****         return RESET;
 893              		.loc 1 343 16
 894 0014 0023     		movs	r3, #0
 895              	.L56:
 344:../firmware/n32g430_std_periph_driver/src/n32g430_flash.c ****     }
 345:../firmware/n32g430_std_periph_driver/src/n32g430_flash.c **** }
 896              		.loc 1 345 1
 897 0016 1846     		mov	r0, r3
 898 0018 BD46     		mov	sp, r7
 899              	.LCFI76:
 900              		.cfi_def_cfa_register 13
 901              		@ sp needed
 902 001a 5DF8047B 		ldr	r7, [sp], #4
 903              	.LCFI77:
 904              		.cfi_restore 7
 905              		.cfi_def_cfa_offset 0
 906 001e 7047     		bx	lr
 907              	.L58:
 908              		.align	2
 909              	.L57:
 910 0020 00200240 		.word	1073881088
 911              		.cfi_endproc
 912              	.LFE146:
 914              		.section	.text.FLASH_One_Page_Erase,"ax",%progbits
 915              		.align	1
 916              		.global	FLASH_One_Page_Erase
 917              		.syntax unified
 918              		.thumb
 919              		.thumb_func
 921              	FLASH_One_Page_Erase:
 922              	.LFB147:
 346:../firmware/n32g430_std_periph_driver/src/n32g430_flash.c **** 
 347:../firmware/n32g430_std_periph_driver/src/n32g430_flash.c **** 
 348:../firmware/n32g430_std_periph_driver/src/n32g430_flash.c **** /**
 349:../firmware/n32g430_std_periph_driver/src/n32g430_flash.c **** *\*\name   FLASH_One_Page_Erase
 350:../firmware/n32g430_std_periph_driver/src/n32g430_flash.c **** *\*\fun    Erases a specified FLASH page.
 351:../firmware/n32g430_std_periph_driver/src/n32g430_flash.c **** *\*\note   This function can be used for N32G430 devices.
 352:../firmware/n32g430_std_periph_driver/src/n32g430_flash.c **** *\*\param  page_address :
 353:../firmware/n32g430_std_periph_driver/src/n32g430_flash.c **** *\*\            - It ranges from 0x08000000 to 0x0800FFFF
 354:../firmware/n32g430_std_periph_driver/src/n32g430_flash.c **** *\*\return FLASH_STS : 
 355:../firmware/n32g430_std_periph_driver/src/n32g430_flash.c **** *\*\            - FLASH_BUSY
 356:../firmware/n32g430_std_periph_driver/src/n32g430_flash.c **** *\*\            - FLASH_ERR_PG 
 357:../firmware/n32g430_std_periph_driver/src/n32g430_flash.c **** *\*\            - FLASH_ERR_WRP
 358:../firmware/n32g430_std_periph_driver/src/n32g430_flash.c **** *\*\            - FLASH_EOP
 359:../firmware/n32g430_std_periph_driver/src/n32g430_flash.c **** *\*\            - FLASH_TIMEOUT
 360:../firmware/n32g430_std_periph_driver/src/n32g430_flash.c **** **/
 361:../firmware/n32g430_std_periph_driver/src/n32g430_flash.c **** FLASH_STS FLASH_One_Page_Erase(uint32_t page_address)
 362:../firmware/n32g430_std_periph_driver/src/n32g430_flash.c **** {
 923              		.loc 1 362 1
 924              		.cfi_startproc
 925              		@ args = 0, pretend = 0, frame = 16
 926              		@ frame_needed = 1, uses_anonymous_args = 0
 927 0000 80B5     		push	{r7, lr}
ARM GAS  C:\Users\ZShuai\AppData\Local\Temp\cc3cdILj.s 			page 23


 928              	.LCFI78:
 929              		.cfi_def_cfa_offset 8
 930              		.cfi_offset 7, -8
 931              		.cfi_offset 14, -4
 932 0002 84B0     		sub	sp, sp, #16
 933              	.LCFI79:
 934              		.cfi_def_cfa_offset 24
 935 0004 00AF     		add	r7, sp, #0
 936              	.LCFI80:
 937              		.cfi_def_cfa_register 7
 938 0006 7860     		str	r0, [r7, #4]
 363:../firmware/n32g430_std_periph_driver/src/n32g430_flash.c ****     FLASH_STS status_value = FLASH_EOP;
 939              		.loc 1 363 15
 940 0008 0423     		movs	r3, #4
 941 000a FB73     		strb	r3, [r7, #15]
 364:../firmware/n32g430_std_periph_driver/src/n32g430_flash.c **** 
 365:../firmware/n32g430_std_periph_driver/src/n32g430_flash.c ****    /* Clears the FLASH's pending flags */
 366:../firmware/n32g430_std_periph_driver/src/n32g430_flash.c ****     FLASH_Flag_Status_Clear(FLASH_STS_CLRFLAG);
 942              		.loc 1 366 5
 943 000c 3420     		movs	r0, #52
 944 000e FFF7FEFF 		bl	FLASH_Flag_Status_Clear
 367:../firmware/n32g430_std_periph_driver/src/n32g430_flash.c ****     /* Wait for last operation to be completed */
 368:../firmware/n32g430_std_periph_driver/src/n32g430_flash.c ****     status_value = FLASH_Last_Operation_Wait(ERASE_TIMEOUT);
 945              		.loc 1 368 20
 946 0012 4FF43020 		mov	r0, #720896
 947 0016 FFF7FEFF 		bl	FLASH_Last_Operation_Wait
 948 001a 0346     		mov	r3, r0
 949 001c FB73     		strb	r3, [r7, #15]
 369:../firmware/n32g430_std_periph_driver/src/n32g430_flash.c **** 
 370:../firmware/n32g430_std_periph_driver/src/n32g430_flash.c ****     if (status_value == FLASH_EOP)
 950              		.loc 1 370 8
 951 001e FB7B     		ldrb	r3, [r7, #15]	@ zero_extendqisi2
 952 0020 042B     		cmp	r3, #4
 953 0022 1AD1     		bne	.L60
 371:../firmware/n32g430_std_periph_driver/src/n32g430_flash.c ****     {
 372:../firmware/n32g430_std_periph_driver/src/n32g430_flash.c ****         /* if the previous operation is completed, proceed to erase the page */
 373:../firmware/n32g430_std_periph_driver/src/n32g430_flash.c ****         FLASH->CTRL |= FLASH_CTRL_SET_PER;
 954              		.loc 1 373 14
 955 0024 0F4B     		ldr	r3, .L62
 956 0026 1B69     		ldr	r3, [r3, #16]
 957 0028 0E4A     		ldr	r2, .L62
 958              		.loc 1 373 21
 959 002a 43F00203 		orr	r3, r3, #2
 960 002e 1361     		str	r3, [r2, #16]
 374:../firmware/n32g430_std_periph_driver/src/n32g430_flash.c ****         FLASH->ADD = page_address;
 961              		.loc 1 374 14
 962 0030 0C4A     		ldr	r2, .L62
 963              		.loc 1 374 20
 964 0032 7B68     		ldr	r3, [r7, #4]
 965 0034 5361     		str	r3, [r2, #20]
 375:../firmware/n32g430_std_periph_driver/src/n32g430_flash.c ****         FLASH->CTRL |= FLASH_CTRL_SET_START;
 966              		.loc 1 375 14
 967 0036 0B4B     		ldr	r3, .L62
 968 0038 1B69     		ldr	r3, [r3, #16]
 969 003a 0A4A     		ldr	r2, .L62
 970              		.loc 1 375 21
 971 003c 43F04003 		orr	r3, r3, #64
ARM GAS  C:\Users\ZShuai\AppData\Local\Temp\cc3cdILj.s 			page 24


 972 0040 1361     		str	r3, [r2, #16]
 376:../firmware/n32g430_std_periph_driver/src/n32g430_flash.c **** 
 377:../firmware/n32g430_std_periph_driver/src/n32g430_flash.c ****         /* Wait for last operation to be completed */
 378:../firmware/n32g430_std_periph_driver/src/n32g430_flash.c ****         status_value = FLASH_Last_Operation_Wait(ERASE_TIMEOUT);
 973              		.loc 1 378 24
 974 0042 4FF43020 		mov	r0, #720896
 975 0046 FFF7FEFF 		bl	FLASH_Last_Operation_Wait
 976 004a 0346     		mov	r3, r0
 977 004c FB73     		strb	r3, [r7, #15]
 379:../firmware/n32g430_std_periph_driver/src/n32g430_flash.c **** 
 380:../firmware/n32g430_std_periph_driver/src/n32g430_flash.c ****         /* Disable the PER Bit */
 381:../firmware/n32g430_std_periph_driver/src/n32g430_flash.c ****         FLASH->CTRL &= FLASH_CTRL_RESET_PER;
 978              		.loc 1 381 14
 979 004e 054B     		ldr	r3, .L62
 980 0050 1B69     		ldr	r3, [r3, #16]
 981 0052 044A     		ldr	r2, .L62
 982              		.loc 1 381 21
 983 0054 23F00203 		bic	r3, r3, #2
 984 0058 1361     		str	r3, [r2, #16]
 985              	.L60:
 382:../firmware/n32g430_std_periph_driver/src/n32g430_flash.c ****     }
 383:../firmware/n32g430_std_periph_driver/src/n32g430_flash.c ****     else
 384:../firmware/n32g430_std_periph_driver/src/n32g430_flash.c ****     {
 385:../firmware/n32g430_std_periph_driver/src/n32g430_flash.c ****         /*No process*/
 386:../firmware/n32g430_std_periph_driver/src/n32g430_flash.c ****     }
 387:../firmware/n32g430_std_periph_driver/src/n32g430_flash.c **** 
 388:../firmware/n32g430_std_periph_driver/src/n32g430_flash.c ****     /* Return the Erase status_value */
 389:../firmware/n32g430_std_periph_driver/src/n32g430_flash.c ****     return status_value;
 986              		.loc 1 389 12
 987 005a FB7B     		ldrb	r3, [r7, #15]	@ zero_extendqisi2
 390:../firmware/n32g430_std_periph_driver/src/n32g430_flash.c **** }
 988              		.loc 1 390 1
 989 005c 1846     		mov	r0, r3
 990 005e 1037     		adds	r7, r7, #16
 991              	.LCFI81:
 992              		.cfi_def_cfa_offset 8
 993 0060 BD46     		mov	sp, r7
 994              	.LCFI82:
 995              		.cfi_def_cfa_register 13
 996              		@ sp needed
 997 0062 80BD     		pop	{r7, pc}
 998              	.L63:
 999              		.align	2
 1000              	.L62:
 1001 0064 00200240 		.word	1073881088
 1002              		.cfi_endproc
 1003              	.LFE147:
 1005              		.section	.text.FLASH_Mass_Erase,"ax",%progbits
 1006              		.align	1
 1007              		.global	FLASH_Mass_Erase
 1008              		.syntax unified
 1009              		.thumb
 1010              		.thumb_func
 1012              	FLASH_Mass_Erase:
 1013              	.LFB148:
 391:../firmware/n32g430_std_periph_driver/src/n32g430_flash.c **** 
 392:../firmware/n32g430_std_periph_driver/src/n32g430_flash.c **** /**
ARM GAS  C:\Users\ZShuai\AppData\Local\Temp\cc3cdILj.s 			page 25


 393:../firmware/n32g430_std_periph_driver/src/n32g430_flash.c **** *\*\name   FLASH_Mass_Erase
 394:../firmware/n32g430_std_periph_driver/src/n32g430_flash.c **** *\*\fun    Erases all FLASH pages.
 395:../firmware/n32g430_std_periph_driver/src/n32g430_flash.c **** *\*\note   This function can be used for all N32G430 devices.
 396:../firmware/n32g430_std_periph_driver/src/n32g430_flash.c **** *\*\param  none
 397:../firmware/n32g430_std_periph_driver/src/n32g430_flash.c **** *\*\return FLASH_STS : 
 398:../firmware/n32g430_std_periph_driver/src/n32g430_flash.c **** *\*\            - FLASH_BUSY
 399:../firmware/n32g430_std_periph_driver/src/n32g430_flash.c **** *\*\            - FLASH_ERR_PG 
 400:../firmware/n32g430_std_periph_driver/src/n32g430_flash.c **** *\*\            - FLASH_ERR_WRP
 401:../firmware/n32g430_std_periph_driver/src/n32g430_flash.c **** *\*\            - FLASH_EOP
 402:../firmware/n32g430_std_periph_driver/src/n32g430_flash.c **** *\*\            - FLASH_TIMEOUT
 403:../firmware/n32g430_std_periph_driver/src/n32g430_flash.c **** **/
 404:../firmware/n32g430_std_periph_driver/src/n32g430_flash.c **** FLASH_STS FLASH_Mass_Erase(void)
 405:../firmware/n32g430_std_periph_driver/src/n32g430_flash.c **** {
 1014              		.loc 1 405 1
 1015              		.cfi_startproc
 1016              		@ args = 0, pretend = 0, frame = 8
 1017              		@ frame_needed = 1, uses_anonymous_args = 0
 1018 0000 80B5     		push	{r7, lr}
 1019              	.LCFI83:
 1020              		.cfi_def_cfa_offset 8
 1021              		.cfi_offset 7, -8
 1022              		.cfi_offset 14, -4
 1023 0002 82B0     		sub	sp, sp, #8
 1024              	.LCFI84:
 1025              		.cfi_def_cfa_offset 16
 1026 0004 00AF     		add	r7, sp, #0
 1027              	.LCFI85:
 1028              		.cfi_def_cfa_register 7
 406:../firmware/n32g430_std_periph_driver/src/n32g430_flash.c ****     FLASH_STS status_value = FLASH_EOP;
 1029              		.loc 1 406 15
 1030 0006 0423     		movs	r3, #4
 1031 0008 FB71     		strb	r3, [r7, #7]
 407:../firmware/n32g430_std_periph_driver/src/n32g430_flash.c **** 
 408:../firmware/n32g430_std_periph_driver/src/n32g430_flash.c ****     /* Clears the FLASH's pending flags */
 409:../firmware/n32g430_std_periph_driver/src/n32g430_flash.c ****     FLASH_Flag_Status_Clear(FLASH_STS_CLRFLAG);
 1032              		.loc 1 409 5
 1033 000a 3420     		movs	r0, #52
 1034 000c FFF7FEFF 		bl	FLASH_Flag_Status_Clear
 410:../firmware/n32g430_std_periph_driver/src/n32g430_flash.c ****     /* Wait for last operation to be completed */
 411:../firmware/n32g430_std_periph_driver/src/n32g430_flash.c ****     status_value = FLASH_Last_Operation_Wait(ERASE_TIMEOUT);
 1035              		.loc 1 411 20
 1036 0010 4FF43020 		mov	r0, #720896
 1037 0014 FFF7FEFF 		bl	FLASH_Last_Operation_Wait
 1038 0018 0346     		mov	r3, r0
 1039 001a FB71     		strb	r3, [r7, #7]
 412:../firmware/n32g430_std_periph_driver/src/n32g430_flash.c **** 
 413:../firmware/n32g430_std_periph_driver/src/n32g430_flash.c ****     if (status_value == FLASH_EOP)
 1040              		.loc 1 413 8
 1041 001c FB79     		ldrb	r3, [r7, #7]	@ zero_extendqisi2
 1042 001e 042B     		cmp	r3, #4
 1043 0020 17D1     		bne	.L65
 414:../firmware/n32g430_std_periph_driver/src/n32g430_flash.c ****     {
 415:../firmware/n32g430_std_periph_driver/src/n32g430_flash.c ****         /* if the previous operation is completed, proceed to erase all pages */
 416:../firmware/n32g430_std_periph_driver/src/n32g430_flash.c ****         FLASH->CTRL |= FLASH_CTRL_SET_MER;
 1044              		.loc 1 416 14
 1045 0022 0E4B     		ldr	r3, .L67
 1046 0024 1B69     		ldr	r3, [r3, #16]
ARM GAS  C:\Users\ZShuai\AppData\Local\Temp\cc3cdILj.s 			page 26


 1047 0026 0D4A     		ldr	r2, .L67
 1048              		.loc 1 416 21
 1049 0028 43F00403 		orr	r3, r3, #4
 1050 002c 1361     		str	r3, [r2, #16]
 417:../firmware/n32g430_std_periph_driver/src/n32g430_flash.c ****         FLASH->CTRL |= FLASH_CTRL_SET_START;
 1051              		.loc 1 417 14
 1052 002e 0B4B     		ldr	r3, .L67
 1053 0030 1B69     		ldr	r3, [r3, #16]
 1054 0032 0A4A     		ldr	r2, .L67
 1055              		.loc 1 417 21
 1056 0034 43F04003 		orr	r3, r3, #64
 1057 0038 1361     		str	r3, [r2, #16]
 418:../firmware/n32g430_std_periph_driver/src/n32g430_flash.c **** 
 419:../firmware/n32g430_std_periph_driver/src/n32g430_flash.c ****         /* Wait for last operation to be completed */
 420:../firmware/n32g430_std_periph_driver/src/n32g430_flash.c ****         status_value = FLASH_Last_Operation_Wait(ERASE_TIMEOUT);
 1058              		.loc 1 420 24
 1059 003a 4FF43020 		mov	r0, #720896
 1060 003e FFF7FEFF 		bl	FLASH_Last_Operation_Wait
 1061 0042 0346     		mov	r3, r0
 1062 0044 FB71     		strb	r3, [r7, #7]
 421:../firmware/n32g430_std_periph_driver/src/n32g430_flash.c **** 
 422:../firmware/n32g430_std_periph_driver/src/n32g430_flash.c ****         /* Disable the MER Bit */
 423:../firmware/n32g430_std_periph_driver/src/n32g430_flash.c ****         FLASH->CTRL &= FLASH_CTRL_RESET_MER;
 1063              		.loc 1 423 14
 1064 0046 054B     		ldr	r3, .L67
 1065 0048 1B69     		ldr	r3, [r3, #16]
 1066 004a 044A     		ldr	r2, .L67
 1067              		.loc 1 423 21
 1068 004c 23F00403 		bic	r3, r3, #4
 1069 0050 1361     		str	r3, [r2, #16]
 1070              	.L65:
 424:../firmware/n32g430_std_periph_driver/src/n32g430_flash.c ****     }
 425:../firmware/n32g430_std_periph_driver/src/n32g430_flash.c ****     else
 426:../firmware/n32g430_std_periph_driver/src/n32g430_flash.c ****     {
 427:../firmware/n32g430_std_periph_driver/src/n32g430_flash.c ****         /*No process*/
 428:../firmware/n32g430_std_periph_driver/src/n32g430_flash.c ****     }
 429:../firmware/n32g430_std_periph_driver/src/n32g430_flash.c **** 
 430:../firmware/n32g430_std_periph_driver/src/n32g430_flash.c ****     /* Return the Erase status_value */
 431:../firmware/n32g430_std_periph_driver/src/n32g430_flash.c ****     return status_value;
 1071              		.loc 1 431 12
 1072 0052 FB79     		ldrb	r3, [r7, #7]	@ zero_extendqisi2
 432:../firmware/n32g430_std_periph_driver/src/n32g430_flash.c **** }
 1073              		.loc 1 432 1
 1074 0054 1846     		mov	r0, r3
 1075 0056 0837     		adds	r7, r7, #8
 1076              	.LCFI86:
 1077              		.cfi_def_cfa_offset 8
 1078 0058 BD46     		mov	sp, r7
 1079              	.LCFI87:
 1080              		.cfi_def_cfa_register 13
 1081              		@ sp needed
 1082 005a 80BD     		pop	{r7, pc}
 1083              	.L68:
 1084              		.align	2
 1085              	.L67:
 1086 005c 00200240 		.word	1073881088
 1087              		.cfi_endproc
ARM GAS  C:\Users\ZShuai\AppData\Local\Temp\cc3cdILj.s 			page 27


 1088              	.LFE148:
 1090              		.section	.text.FLASH_Word_Program,"ax",%progbits
 1091              		.align	1
 1092              		.global	FLASH_Word_Program
 1093              		.syntax unified
 1094              		.thumb
 1095              		.thumb_func
 1097              	FLASH_Word_Program:
 1098              	.LFB149:
 433:../firmware/n32g430_std_periph_driver/src/n32g430_flash.c **** 
 434:../firmware/n32g430_std_periph_driver/src/n32g430_flash.c **** /**
 435:../firmware/n32g430_std_periph_driver/src/n32g430_flash.c **** *\*\name   FLASH_Word_Program
 436:../firmware/n32g430_std_periph_driver/src/n32g430_flash.c **** *\*\fun    Programs a word at a specified address.
 437:../firmware/n32g430_std_periph_driver/src/n32g430_flash.c **** *\*\note   This function can be used for N32G430 devices.
 438:../firmware/n32g430_std_periph_driver/src/n32g430_flash.c **** *\*\param  address :
 439:../firmware/n32g430_std_periph_driver/src/n32g430_flash.c **** *\*\            - It ranges from 0x08000000 to 0x0800FFFF
 440:../firmware/n32g430_std_periph_driver/src/n32g430_flash.c **** *\*\param  data :
 441:../firmware/n32g430_std_periph_driver/src/n32g430_flash.c **** *\*\            - It ranges from 0x00000000 to 0xFFFFFFFF
 442:../firmware/n32g430_std_periph_driver/src/n32g430_flash.c **** *\*\return FLASH_STS : 
 443:../firmware/n32g430_std_periph_driver/src/n32g430_flash.c **** *\*\            - FLASH_BUSY
 444:../firmware/n32g430_std_periph_driver/src/n32g430_flash.c **** *\*\            - FLASH_ERR_PG
 445:../firmware/n32g430_std_periph_driver/src/n32g430_flash.c **** *\*\            - FLASH_ERR_WRP
 446:../firmware/n32g430_std_periph_driver/src/n32g430_flash.c **** *\*\            - FLASH_EOP
 447:../firmware/n32g430_std_periph_driver/src/n32g430_flash.c **** *\*\            - FLASH_ERR_ADD
 448:../firmware/n32g430_std_periph_driver/src/n32g430_flash.c **** *\*\            - FLASH_TIMEOUT
 449:../firmware/n32g430_std_periph_driver/src/n32g430_flash.c **** **/
 450:../firmware/n32g430_std_periph_driver/src/n32g430_flash.c **** FLASH_STS FLASH_Word_Program(uint32_t address, uint32_t data)
 451:../firmware/n32g430_std_periph_driver/src/n32g430_flash.c **** {
 1099              		.loc 1 451 1
 1100              		.cfi_startproc
 1101              		@ args = 0, pretend = 0, frame = 16
 1102              		@ frame_needed = 1, uses_anonymous_args = 0
 1103 0000 80B5     		push	{r7, lr}
 1104              	.LCFI88:
 1105              		.cfi_def_cfa_offset 8
 1106              		.cfi_offset 7, -8
 1107              		.cfi_offset 14, -4
 1108 0002 84B0     		sub	sp, sp, #16
 1109              	.LCFI89:
 1110              		.cfi_def_cfa_offset 24
 1111 0004 00AF     		add	r7, sp, #0
 1112              	.LCFI90:
 1113              		.cfi_def_cfa_register 7
 1114 0006 7860     		str	r0, [r7, #4]
 1115 0008 3960     		str	r1, [r7]
 452:../firmware/n32g430_std_periph_driver/src/n32g430_flash.c ****     FLASH_STS status_value  = FLASH_EOP;
 1116              		.loc 1 452 15
 1117 000a 0423     		movs	r3, #4
 1118 000c FB73     		strb	r3, [r7, #15]
 453:../firmware/n32g430_std_periph_driver/src/n32g430_flash.c **** 
 454:../firmware/n32g430_std_periph_driver/src/n32g430_flash.c ****     if((address & FLASH_WORD_LENGTH) != RESET)
 1119              		.loc 1 454 17
 1120 000e 7B68     		ldr	r3, [r7, #4]
 1121 0010 03F00303 		and	r3, r3, #3
 1122              		.loc 1 454 7
 1123 0014 002B     		cmp	r3, #0
 1124 0016 01D0     		beq	.L70
ARM GAS  C:\Users\ZShuai\AppData\Local\Temp\cc3cdILj.s 			page 28


 455:../firmware/n32g430_std_periph_driver/src/n32g430_flash.c ****     {
 456:../firmware/n32g430_std_periph_driver/src/n32g430_flash.c ****         /* The programming address is not a multiple of 4 */
 457:../firmware/n32g430_std_periph_driver/src/n32g430_flash.c ****         return FLASH_ERR_ADD;
 1125              		.loc 1 457 16
 1126 0018 0623     		movs	r3, #6
 1127 001a 21E0     		b	.L71
 1128              	.L70:
 458:../firmware/n32g430_std_periph_driver/src/n32g430_flash.c ****     }
 459:../firmware/n32g430_std_periph_driver/src/n32g430_flash.c ****     else
 460:../firmware/n32g430_std_periph_driver/src/n32g430_flash.c ****     {
 461:../firmware/n32g430_std_periph_driver/src/n32g430_flash.c ****         /*No process*/
 462:../firmware/n32g430_std_periph_driver/src/n32g430_flash.c ****     }
 463:../firmware/n32g430_std_periph_driver/src/n32g430_flash.c **** 
 464:../firmware/n32g430_std_periph_driver/src/n32g430_flash.c ****     /* Clears the FLASH's pending flags */
 465:../firmware/n32g430_std_periph_driver/src/n32g430_flash.c ****     FLASH_Flag_Status_Clear(FLASH_STS_CLRFLAG);
 1129              		.loc 1 465 5
 1130 001c 3420     		movs	r0, #52
 1131 001e FFF7FEFF 		bl	FLASH_Flag_Status_Clear
 466:../firmware/n32g430_std_periph_driver/src/n32g430_flash.c ****     /* Wait for last operation to be completed */
 467:../firmware/n32g430_std_periph_driver/src/n32g430_flash.c ****     status_value = FLASH_Last_Operation_Wait(PROGRAM_TIMEOUT);
 1132              		.loc 1 467 20
 1133 0022 4FF40050 		mov	r0, #8192
 1134 0026 FFF7FEFF 		bl	FLASH_Last_Operation_Wait
 1135 002a 0346     		mov	r3, r0
 1136 002c FB73     		strb	r3, [r7, #15]
 468:../firmware/n32g430_std_periph_driver/src/n32g430_flash.c **** 
 469:../firmware/n32g430_std_periph_driver/src/n32g430_flash.c ****     if (status_value == FLASH_EOP)
 1137              		.loc 1 469 8
 1138 002e FB7B     		ldrb	r3, [r7, #15]	@ zero_extendqisi2
 1139 0030 042B     		cmp	r3, #4
 1140 0032 14D1     		bne	.L72
 470:../firmware/n32g430_std_periph_driver/src/n32g430_flash.c ****     {
 471:../firmware/n32g430_std_periph_driver/src/n32g430_flash.c ****         /* if the previous operation is completed, proceed to program the new word */
 472:../firmware/n32g430_std_periph_driver/src/n32g430_flash.c ****         FLASH->CTRL |= FLASH_CTRL_SET_PG;
 1141              		.loc 1 472 14
 1142 0034 0C4B     		ldr	r3, .L73
 1143 0036 1B69     		ldr	r3, [r3, #16]
 1144 0038 0B4A     		ldr	r2, .L73
 1145              		.loc 1 472 21
 1146 003a 43F00103 		orr	r3, r3, #1
 1147 003e 1361     		str	r3, [r2, #16]
 473:../firmware/n32g430_std_periph_driver/src/n32g430_flash.c **** 
 474:../firmware/n32g430_std_periph_driver/src/n32g430_flash.c ****         *(__IO uint32_t*)address = (uint32_t)data;
 1148              		.loc 1 474 10
 1149 0040 7B68     		ldr	r3, [r7, #4]
 1150              		.loc 1 474 34
 1151 0042 3A68     		ldr	r2, [r7]
 1152 0044 1A60     		str	r2, [r3]
 475:../firmware/n32g430_std_periph_driver/src/n32g430_flash.c ****         /* Wait for last operation to be completed */
 476:../firmware/n32g430_std_periph_driver/src/n32g430_flash.c ****         status_value = FLASH_Last_Operation_Wait(PROGRAM_TIMEOUT);
 1153              		.loc 1 476 24
 1154 0046 4FF40050 		mov	r0, #8192
 1155 004a FFF7FEFF 		bl	FLASH_Last_Operation_Wait
 1156 004e 0346     		mov	r3, r0
 1157 0050 FB73     		strb	r3, [r7, #15]
 477:../firmware/n32g430_std_periph_driver/src/n32g430_flash.c **** 
 478:../firmware/n32g430_std_periph_driver/src/n32g430_flash.c ****         /* Disable the PG Bit */
ARM GAS  C:\Users\ZShuai\AppData\Local\Temp\cc3cdILj.s 			page 29


 479:../firmware/n32g430_std_periph_driver/src/n32g430_flash.c ****         FLASH->CTRL &= FLASH_CTRL_RESET_PG;
 1158              		.loc 1 479 14
 1159 0052 054B     		ldr	r3, .L73
 1160 0054 1B69     		ldr	r3, [r3, #16]
 1161 0056 044A     		ldr	r2, .L73
 1162              		.loc 1 479 21
 1163 0058 23F00103 		bic	r3, r3, #1
 1164 005c 1361     		str	r3, [r2, #16]
 1165              	.L72:
 480:../firmware/n32g430_std_periph_driver/src/n32g430_flash.c ****     }
 481:../firmware/n32g430_std_periph_driver/src/n32g430_flash.c ****     else
 482:../firmware/n32g430_std_periph_driver/src/n32g430_flash.c ****     {
 483:../firmware/n32g430_std_periph_driver/src/n32g430_flash.c ****         /*No process*/
 484:../firmware/n32g430_std_periph_driver/src/n32g430_flash.c ****     }
 485:../firmware/n32g430_std_periph_driver/src/n32g430_flash.c **** 
 486:../firmware/n32g430_std_periph_driver/src/n32g430_flash.c ****     /* Return the Program status_value */
 487:../firmware/n32g430_std_periph_driver/src/n32g430_flash.c ****     return status_value;
 1166              		.loc 1 487 12
 1167 005e FB7B     		ldrb	r3, [r7, #15]	@ zero_extendqisi2
 1168              	.L71:
 488:../firmware/n32g430_std_periph_driver/src/n32g430_flash.c **** }
 1169              		.loc 1 488 1
 1170 0060 1846     		mov	r0, r3
 1171 0062 1037     		adds	r7, r7, #16
 1172              	.LCFI91:
 1173              		.cfi_def_cfa_offset 8
 1174 0064 BD46     		mov	sp, r7
 1175              	.LCFI92:
 1176              		.cfi_def_cfa_register 13
 1177              		@ sp needed
 1178 0066 80BD     		pop	{r7, pc}
 1179              	.L74:
 1180              		.align	2
 1181              	.L73:
 1182 0068 00200240 		.word	1073881088
 1183              		.cfi_endproc
 1184              	.LFE149:
 1186              		.section	.text.FLASH_Option_Bytes_Erase,"ax",%progbits
 1187              		.align	1
 1188              		.global	FLASH_Option_Bytes_Erase
 1189              		.syntax unified
 1190              		.thumb
 1191              		.thumb_func
 1193              	FLASH_Option_Bytes_Erase:
 1194              	.LFB150:
 489:../firmware/n32g430_std_periph_driver/src/n32g430_flash.c **** 
 490:../firmware/n32g430_std_periph_driver/src/n32g430_flash.c **** 
 491:../firmware/n32g430_std_periph_driver/src/n32g430_flash.c **** /**
 492:../firmware/n32g430_std_periph_driver/src/n32g430_flash.c **** *\*\name   FLASH_Option_Bytes_Erase
 493:../firmware/n32g430_std_periph_driver/src/n32g430_flash.c **** *\*\fun    Erases the FLASH option bytes.
 494:../firmware/n32g430_std_periph_driver/src/n32g430_flash.c **** *\*\note   This functions erases all option bytes except the Read protection (RDP).
 495:../firmware/n32g430_std_periph_driver/src/n32g430_flash.c **** *\*\       This function can be used for N32G430 devices.
 496:../firmware/n32g430_std_periph_driver/src/n32g430_flash.c **** *\*\param  none
 497:../firmware/n32g430_std_periph_driver/src/n32g430_flash.c **** *\*\return FLASH_STS : 
 498:../firmware/n32g430_std_periph_driver/src/n32g430_flash.c **** *\*\            - FLASH_BUSY
 499:../firmware/n32g430_std_periph_driver/src/n32g430_flash.c **** *\*\            - FLASH_ERR_PG 
 500:../firmware/n32g430_std_periph_driver/src/n32g430_flash.c **** *\*\            - FLASH_ERR_WRP
ARM GAS  C:\Users\ZShuai\AppData\Local\Temp\cc3cdILj.s 			page 30


 501:../firmware/n32g430_std_periph_driver/src/n32g430_flash.c **** *\*\            - FLASH_EOP
 502:../firmware/n32g430_std_periph_driver/src/n32g430_flash.c **** *\*\            - FLASH_ERR_RDP2
 503:../firmware/n32g430_std_periph_driver/src/n32g430_flash.c **** *\*\            - FLASH_ERR_ADD
 504:../firmware/n32g430_std_periph_driver/src/n32g430_flash.c **** *\*\            - FLASH_TIMEOUT
 505:../firmware/n32g430_std_periph_driver/src/n32g430_flash.c **** **/
 506:../firmware/n32g430_std_periph_driver/src/n32g430_flash.c **** FLASH_STS FLASH_Option_Bytes_Erase(void)
 507:../firmware/n32g430_std_periph_driver/src/n32g430_flash.c **** {
 1195              		.loc 1 507 1
 1196              		.cfi_startproc
 1197              		@ args = 0, pretend = 0, frame = 8
 1198              		@ frame_needed = 1, uses_anonymous_args = 0
 1199 0000 80B5     		push	{r7, lr}
 1200              	.LCFI93:
 1201              		.cfi_def_cfa_offset 8
 1202              		.cfi_offset 7, -8
 1203              		.cfi_offset 14, -4
 1204 0002 82B0     		sub	sp, sp, #8
 1205              	.LCFI94:
 1206              		.cfi_def_cfa_offset 16
 1207 0004 00AF     		add	r7, sp, #0
 1208              	.LCFI95:
 1209              		.cfi_def_cfa_register 7
 508:../firmware/n32g430_std_periph_driver/src/n32g430_flash.c ****     FLASH_STS status_value = FLASH_EOP;
 1210              		.loc 1 508 15
 1211 0006 0423     		movs	r3, #4
 1212 0008 FB71     		strb	r3, [r7, #7]
 509:../firmware/n32g430_std_periph_driver/src/n32g430_flash.c **** 
 510:../firmware/n32g430_std_periph_driver/src/n32g430_flash.c ****     /* Get the actual read protection L2 Option Byte value */
 511:../firmware/n32g430_std_periph_driver/src/n32g430_flash.c ****     if (FLASH_Read_Out_Protection_L2_Status_Get() != RESET)
 1213              		.loc 1 511 9
 1214 000a FFF7FEFF 		bl	FLASH_Read_Out_Protection_L2_Status_Get
 1215 000e 0346     		mov	r3, r0
 1216              		.loc 1 511 8
 1217 0010 002B     		cmp	r3, #0
 1218 0012 01D0     		beq	.L76
 512:../firmware/n32g430_std_periph_driver/src/n32g430_flash.c ****     {
 513:../firmware/n32g430_std_periph_driver/src/n32g430_flash.c ****         return FLASH_ERR_RDP2;
 1219              		.loc 1 513 16
 1220 0014 0523     		movs	r3, #5
 1221 0016 36E0     		b	.L77
 1222              	.L76:
 514:../firmware/n32g430_std_periph_driver/src/n32g430_flash.c ****     }
 515:../firmware/n32g430_std_periph_driver/src/n32g430_flash.c ****     else
 516:../firmware/n32g430_std_periph_driver/src/n32g430_flash.c ****     {
 517:../firmware/n32g430_std_periph_driver/src/n32g430_flash.c ****         /*No process*/
 518:../firmware/n32g430_std_periph_driver/src/n32g430_flash.c ****     }
 519:../firmware/n32g430_std_periph_driver/src/n32g430_flash.c **** 
 520:../firmware/n32g430_std_periph_driver/src/n32g430_flash.c ****     /* Clears the FLASH's pending flags */
 521:../firmware/n32g430_std_periph_driver/src/n32g430_flash.c ****     FLASH_Flag_Status_Clear(FLASH_STS_CLRFLAG);
 1223              		.loc 1 521 5
 1224 0018 3420     		movs	r0, #52
 1225 001a FFF7FEFF 		bl	FLASH_Flag_Status_Clear
 522:../firmware/n32g430_std_periph_driver/src/n32g430_flash.c ****     /* Wait for last operation to be completed */
 523:../firmware/n32g430_std_periph_driver/src/n32g430_flash.c ****     status_value = FLASH_Last_Operation_Wait(ERASE_TIMEOUT);
 1226              		.loc 1 523 20
 1227 001e 4FF43020 		mov	r0, #720896
 1228 0022 FFF7FEFF 		bl	FLASH_Last_Operation_Wait
ARM GAS  C:\Users\ZShuai\AppData\Local\Temp\cc3cdILj.s 			page 31


 1229 0026 0346     		mov	r3, r0
 1230 0028 FB71     		strb	r3, [r7, #7]
 524:../firmware/n32g430_std_periph_driver/src/n32g430_flash.c **** 
 525:../firmware/n32g430_std_periph_driver/src/n32g430_flash.c ****     if (status_value == FLASH_EOP)
 1231              		.loc 1 525 8
 1232 002a FB79     		ldrb	r3, [r7, #7]	@ zero_extendqisi2
 1233 002c 042B     		cmp	r3, #4
 1234 002e 29D1     		bne	.L78
 526:../firmware/n32g430_std_periph_driver/src/n32g430_flash.c ****     {
 527:../firmware/n32g430_std_periph_driver/src/n32g430_flash.c ****         Option_Bytes_Unlock();
 1235              		.loc 1 527 9
 1236 0030 FFF7FEFF 		bl	Option_Bytes_Unlock
 528:../firmware/n32g430_std_periph_driver/src/n32g430_flash.c **** 
 529:../firmware/n32g430_std_periph_driver/src/n32g430_flash.c ****         /* if the previous operation is completed, proceed to erase the option bytes */
 530:../firmware/n32g430_std_periph_driver/src/n32g430_flash.c ****         FLASH->CTRL |= FLASH_CTRL_SET_OPTER;
 1237              		.loc 1 530 14
 1238 0034 164B     		ldr	r3, .L80
 1239 0036 1B69     		ldr	r3, [r3, #16]
 1240 0038 154A     		ldr	r2, .L80
 1241              		.loc 1 530 21
 1242 003a 43F02003 		orr	r3, r3, #32
 1243 003e 1361     		str	r3, [r2, #16]
 531:../firmware/n32g430_std_periph_driver/src/n32g430_flash.c ****         FLASH->CTRL |= FLASH_CTRL_SET_START;
 1244              		.loc 1 531 14
 1245 0040 134B     		ldr	r3, .L80
 1246 0042 1B69     		ldr	r3, [r3, #16]
 1247 0044 124A     		ldr	r2, .L80
 1248              		.loc 1 531 21
 1249 0046 43F04003 		orr	r3, r3, #64
 1250 004a 1361     		str	r3, [r2, #16]
 532:../firmware/n32g430_std_periph_driver/src/n32g430_flash.c ****         /* Wait for last operation to be completed */
 533:../firmware/n32g430_std_periph_driver/src/n32g430_flash.c ****         status_value = FLASH_Last_Operation_Wait(ERASE_TIMEOUT);
 1251              		.loc 1 533 24
 1252 004c 4FF43020 		mov	r0, #720896
 1253 0050 FFF7FEFF 		bl	FLASH_Last_Operation_Wait
 1254 0054 0346     		mov	r3, r0
 1255 0056 FB71     		strb	r3, [r7, #7]
 534:../firmware/n32g430_std_periph_driver/src/n32g430_flash.c **** 
 535:../firmware/n32g430_std_periph_driver/src/n32g430_flash.c ****         if (status_value == FLASH_EOP)
 1256              		.loc 1 535 12
 1257 0058 FB79     		ldrb	r3, [r7, #7]	@ zero_extendqisi2
 1258 005a 042B     		cmp	r3, #4
 1259 005c 09D1     		bne	.L79
 536:../firmware/n32g430_std_periph_driver/src/n32g430_flash.c ****         {
 537:../firmware/n32g430_std_periph_driver/src/n32g430_flash.c ****             /* Clears the FLASH's pending flags */
 538:../firmware/n32g430_std_periph_driver/src/n32g430_flash.c ****             FLASH_Flag_Status_Clear(FLASH_STS_CLRFLAG);
 1260              		.loc 1 538 13
 1261 005e 3420     		movs	r0, #52
 1262 0060 FFF7FEFF 		bl	FLASH_Flag_Status_Clear
 539:../firmware/n32g430_std_periph_driver/src/n32g430_flash.c **** 
 540:../firmware/n32g430_std_periph_driver/src/n32g430_flash.c ****             /* if the erase operation is completed, disable the OPTER Bit */
 541:../firmware/n32g430_std_periph_driver/src/n32g430_flash.c ****             FLASH->CTRL &= FLASH_CTRL_RESET_OPTER;
 1263              		.loc 1 541 18
 1264 0064 0A4B     		ldr	r3, .L80
 1265 0066 1B69     		ldr	r3, [r3, #16]
 1266 0068 094A     		ldr	r2, .L80
 1267              		.loc 1 541 25
ARM GAS  C:\Users\ZShuai\AppData\Local\Temp\cc3cdILj.s 			page 32


 1268 006a 23F02003 		bic	r3, r3, #32
 1269 006e 1361     		str	r3, [r2, #16]
 1270 0070 08E0     		b	.L78
 1271              	.L79:
 542:../firmware/n32g430_std_periph_driver/src/n32g430_flash.c ****         }
 543:../firmware/n32g430_std_periph_driver/src/n32g430_flash.c ****         else
 544:../firmware/n32g430_std_periph_driver/src/n32g430_flash.c ****         {
 545:../firmware/n32g430_std_periph_driver/src/n32g430_flash.c ****             if (status_value != FLASH_TIMEOUT)
 1272              		.loc 1 545 16
 1273 0072 FB79     		ldrb	r3, [r7, #7]	@ zero_extendqisi2
 1274 0074 072B     		cmp	r3, #7
 1275 0076 05D0     		beq	.L78
 546:../firmware/n32g430_std_periph_driver/src/n32g430_flash.c ****             {
 547:../firmware/n32g430_std_periph_driver/src/n32g430_flash.c ****                 /* Disable the OPTER Bit */
 548:../firmware/n32g430_std_periph_driver/src/n32g430_flash.c ****                 FLASH->CTRL &= FLASH_CTRL_RESET_OPTER;
 1276              		.loc 1 548 22
 1277 0078 054B     		ldr	r3, .L80
 1278 007a 1B69     		ldr	r3, [r3, #16]
 1279 007c 044A     		ldr	r2, .L80
 1280              		.loc 1 548 29
 1281 007e 23F02003 		bic	r3, r3, #32
 1282 0082 1361     		str	r3, [r2, #16]
 1283              	.L78:
 549:../firmware/n32g430_std_periph_driver/src/n32g430_flash.c ****             }
 550:../firmware/n32g430_std_periph_driver/src/n32g430_flash.c ****             else
 551:../firmware/n32g430_std_periph_driver/src/n32g430_flash.c ****             {
 552:../firmware/n32g430_std_periph_driver/src/n32g430_flash.c ****                 /*No process*/
 553:../firmware/n32g430_std_periph_driver/src/n32g430_flash.c ****             }
 554:../firmware/n32g430_std_periph_driver/src/n32g430_flash.c ****         }
 555:../firmware/n32g430_std_periph_driver/src/n32g430_flash.c ****     }
 556:../firmware/n32g430_std_periph_driver/src/n32g430_flash.c ****     else
 557:../firmware/n32g430_std_periph_driver/src/n32g430_flash.c ****     {
 558:../firmware/n32g430_std_periph_driver/src/n32g430_flash.c ****         /*No process*/
 559:../firmware/n32g430_std_periph_driver/src/n32g430_flash.c ****     }
 560:../firmware/n32g430_std_periph_driver/src/n32g430_flash.c ****     /* Return the erase status_value */
 561:../firmware/n32g430_std_periph_driver/src/n32g430_flash.c ****     return status_value;
 1284              		.loc 1 561 12
 1285 0084 FB79     		ldrb	r3, [r7, #7]	@ zero_extendqisi2
 1286              	.L77:
 562:../firmware/n32g430_std_periph_driver/src/n32g430_flash.c **** }
 1287              		.loc 1 562 1
 1288 0086 1846     		mov	r0, r3
 1289 0088 0837     		adds	r7, r7, #8
 1290              	.LCFI96:
 1291              		.cfi_def_cfa_offset 8
 1292 008a BD46     		mov	sp, r7
 1293              	.LCFI97:
 1294              		.cfi_def_cfa_register 13
 1295              		@ sp needed
 1296 008c 80BD     		pop	{r7, pc}
 1297              	.L81:
 1298 008e 00BF     		.align	2
 1299              	.L80:
 1300 0090 00200240 		.word	1073881088
 1301              		.cfi_endproc
 1302              	.LFE150:
 1304              		.section	.text.FLASH_Option_Bytes_User_RDP1_Program,"ax",%progbits
ARM GAS  C:\Users\ZShuai\AppData\Local\Temp\cc3cdILj.s 			page 33


 1305              		.align	1
 1306              		.global	FLASH_Option_Bytes_User_RDP1_Program
 1307              		.syntax unified
 1308              		.thumb
 1309              		.thumb_func
 1311              	FLASH_Option_Bytes_User_RDP1_Program:
 1312              	.LFB151:
 563:../firmware/n32g430_std_periph_driver/src/n32g430_flash.c **** 
 564:../firmware/n32g430_std_periph_driver/src/n32g430_flash.c **** 
 565:../firmware/n32g430_std_periph_driver/src/n32g430_flash.c **** /**
 566:../firmware/n32g430_std_periph_driver/src/n32g430_flash.c **** *\*\name   FLASH_Option_Bytes_User_RDP1_Program
 567:../firmware/n32g430_std_periph_driver/src/n32g430_flash.c **** *\*\fun    Programs the FLASH User Option Byte: IWDG_SW / RST_STOP / RST_STDBY / 
 568:../firmware/n32g430_std_periph_driver/src/n32g430_flash.c **** *\*\       IWDG_STOP0_FRZ / IWDG_STOP2_FRZ / IWDG_STDBY_FRZ / IWDG_SLEEP_FRZ / RDP1.
 569:../firmware/n32g430_std_periph_driver/src/n32g430_flash.c **** *\*\note   This function can be used for N32G430 devices.
 570:../firmware/n32g430_std_periph_driver/src/n32g430_flash.c **** *\*\param  option_byte_rpd1 :
 571:../firmware/n32g430_std_periph_driver/src/n32g430_flash.c **** *\*\        - FLASH_OB_RDP1_ENABLE
 572:../firmware/n32g430_std_periph_driver/src/n32g430_flash.c **** *\*\        - FLASH_OB_RDP1_DISABLE
 573:../firmware/n32g430_std_periph_driver/src/n32g430_flash.c **** *\*\param  option_byte_iwdg :
 574:../firmware/n32g430_std_periph_driver/src/n32g430_flash.c **** *\*\        - FLASH_OB_IWDG_SW Software IWDG selected
 575:../firmware/n32g430_std_periph_driver/src/n32g430_flash.c **** *\*\        - FLASH_OB_IWDG_HW Hardware IWDG selected
 576:../firmware/n32g430_std_periph_driver/src/n32g430_flash.c **** *\*\param  option_byte_stop :
 577:../firmware/n32g430_std_periph_driver/src/n32g430_flash.c **** *\*\        - FLASH_OB_STOP_NORST No reset generated when entering in STOP
 578:../firmware/n32g430_std_periph_driver/src/n32g430_flash.c **** *\*\        - FLASH_OB_STOP_RST Reset generated when entering in STOP
 579:../firmware/n32g430_std_periph_driver/src/n32g430_flash.c **** *\*\param  option_byte_stdby :
 580:../firmware/n32g430_std_periph_driver/src/n32g430_flash.c **** *\*\        - FLASH_OB_STDBY_NORST No reset generated when entering in STANDBY
 581:../firmware/n32g430_std_periph_driver/src/n32g430_flash.c **** *\*\        - FLASH_OB_STDBY_RST Reset generated when entering in STANDBY
 582:../firmware/n32g430_std_periph_driver/src/n32g430_flash.c **** *\*\param  option_byte_iwdg_stop0 :
 583:../firmware/n32g430_std_periph_driver/src/n32g430_flash.c **** *\*\        - FLASH_OB_IWDG_STOP0_FRZ IWDG freeze in stop0
 584:../firmware/n32g430_std_periph_driver/src/n32g430_flash.c **** *\*\        - FLASH_OB_IWDG_STOP0_NOFRZ Default no freeze
 585:../firmware/n32g430_std_periph_driver/src/n32g430_flash.c **** *\*\param  option_byte_iwdg_stop2 :
 586:../firmware/n32g430_std_periph_driver/src/n32g430_flash.c **** *\*\        - FLASH_OB_IWDG_STOP2_FRZ IWDG freeze in stop2
 587:../firmware/n32g430_std_periph_driver/src/n32g430_flash.c **** *\*\        - FLASH_OB_IWDG_STOP2_NOFRZ Default no freeze
 588:../firmware/n32g430_std_periph_driver/src/n32g430_flash.c **** *\*\param  option_byte_iwdg_stdby :
 589:../firmware/n32g430_std_periph_driver/src/n32g430_flash.c **** *\*\        - FLASH_OB_IWDG_STDBY_FRZ IWDG freeze in standby
 590:../firmware/n32g430_std_periph_driver/src/n32g430_flash.c **** *\*\        - FLASH_OB_IWDG_STDBY_NOFRZ Default no freeze
 591:../firmware/n32g430_std_periph_driver/src/n32g430_flash.c **** *\*\param  option_byte_iwdg_sleep :
 592:../firmware/n32g430_std_periph_driver/src/n32g430_flash.c **** *\*\        - FLASH_OB_IWDG_SLEEP_FRZ IWDG freeze in sleep
 593:../firmware/n32g430_std_periph_driver/src/n32g430_flash.c **** *\*\        - FLASH_OB_IWDG_SLEEP_NOFRZ Default no freeze
 594:../firmware/n32g430_std_periph_driver/src/n32g430_flash.c **** *\*\return FLASH_STS : 
 595:../firmware/n32g430_std_periph_driver/src/n32g430_flash.c **** *\*\        - FLASH_BUSY
 596:../firmware/n32g430_std_periph_driver/src/n32g430_flash.c **** *\*\        - FLASH_ERR_PG 
 597:../firmware/n32g430_std_periph_driver/src/n32g430_flash.c **** *\*\        - FLASH_ERR_WRP
 598:../firmware/n32g430_std_periph_driver/src/n32g430_flash.c **** *\*\        - FLASH_EOP
 599:../firmware/n32g430_std_periph_driver/src/n32g430_flash.c **** *\*\        - FLASH_ERR_RDP2
 600:../firmware/n32g430_std_periph_driver/src/n32g430_flash.c **** *\*\        - FLASH_TIMEOUT
 601:../firmware/n32g430_std_periph_driver/src/n32g430_flash.c **** **/
 602:../firmware/n32g430_std_periph_driver/src/n32g430_flash.c **** FLASH_STS FLASH_Option_Bytes_User_RDP1_Program(uint8_t option_byte_rpd1, uint16_t option_byte_iwdg,
 603:../firmware/n32g430_std_periph_driver/src/n32g430_flash.c ****                                                uint16_t option_byte_stop, uint16_t option_byte_stdb
 604:../firmware/n32g430_std_periph_driver/src/n32g430_flash.c ****                                                uint16_t option_byte_iwdg_stop0, uint16_t option_byt
 605:../firmware/n32g430_std_periph_driver/src/n32g430_flash.c ****                                                uint16_t option_byte_iwdg_stdby, uint16_t option_byt
 606:../firmware/n32g430_std_periph_driver/src/n32g430_flash.c **** {
 1313              		.loc 1 606 1
 1314              		.cfi_startproc
 1315              		@ args = 16, pretend = 0, frame = 16
 1316              		@ frame_needed = 1, uses_anonymous_args = 0
 1317 0000 90B5     		push	{r4, r7, lr}
 1318              	.LCFI98:
ARM GAS  C:\Users\ZShuai\AppData\Local\Temp\cc3cdILj.s 			page 34


 1319              		.cfi_def_cfa_offset 12
 1320              		.cfi_offset 4, -12
 1321              		.cfi_offset 7, -8
 1322              		.cfi_offset 14, -4
 1323 0002 85B0     		sub	sp, sp, #20
 1324              	.LCFI99:
 1325              		.cfi_def_cfa_offset 32
 1326 0004 00AF     		add	r7, sp, #0
 1327              	.LCFI100:
 1328              		.cfi_def_cfa_register 7
 1329 0006 0446     		mov	r4, r0
 1330 0008 0846     		mov	r0, r1
 1331 000a 1146     		mov	r1, r2
 1332 000c 1A46     		mov	r2, r3
 1333 000e 2346     		mov	r3, r4
 1334 0010 FB71     		strb	r3, [r7, #7]
 1335 0012 0346     		mov	r3, r0	@ movhi
 1336 0014 BB80     		strh	r3, [r7, #4]	@ movhi
 1337 0016 0B46     		mov	r3, r1	@ movhi
 1338 0018 7B80     		strh	r3, [r7, #2]	@ movhi
 1339 001a 1346     		mov	r3, r2	@ movhi
 1340 001c 3B80     		strh	r3, [r7]	@ movhi
 607:../firmware/n32g430_std_periph_driver/src/n32g430_flash.c ****     FLASH_STS status_value = FLASH_EOP;
 1341              		.loc 1 607 15
 1342 001e 0423     		movs	r3, #4
 1343 0020 FB73     		strb	r3, [r7, #15]
 608:../firmware/n32g430_std_periph_driver/src/n32g430_flash.c **** 
 609:../firmware/n32g430_std_periph_driver/src/n32g430_flash.c ****     /* Get the actual read protection L2 Option Byte value */
 610:../firmware/n32g430_std_periph_driver/src/n32g430_flash.c ****     if (FLASH_Read_Out_Protection_L2_Status_Get() != RESET)
 1344              		.loc 1 610 9
 1345 0022 FFF7FEFF 		bl	FLASH_Read_Out_Protection_L2_Status_Get
 1346 0026 0346     		mov	r3, r0
 1347              		.loc 1 610 8
 1348 0028 002B     		cmp	r3, #0
 1349 002a 01D0     		beq	.L83
 611:../firmware/n32g430_std_periph_driver/src/n32g430_flash.c ****     {
 612:../firmware/n32g430_std_periph_driver/src/n32g430_flash.c ****         return FLASH_ERR_RDP2;
 1350              		.loc 1 612 16
 1351 002c 0523     		movs	r3, #5
 1352 002e 3BE0     		b	.L84
 1353              	.L83:
 613:../firmware/n32g430_std_periph_driver/src/n32g430_flash.c ****     }
 614:../firmware/n32g430_std_periph_driver/src/n32g430_flash.c ****     else
 615:../firmware/n32g430_std_periph_driver/src/n32g430_flash.c ****     {
 616:../firmware/n32g430_std_periph_driver/src/n32g430_flash.c ****         /*No process*/
 617:../firmware/n32g430_std_periph_driver/src/n32g430_flash.c ****     }
 618:../firmware/n32g430_std_periph_driver/src/n32g430_flash.c **** 
 619:../firmware/n32g430_std_periph_driver/src/n32g430_flash.c ****     Option_Bytes_Unlock();
 1354              		.loc 1 619 5
 1355 0030 FFF7FEFF 		bl	Option_Bytes_Unlock
 620:../firmware/n32g430_std_periph_driver/src/n32g430_flash.c **** 
 621:../firmware/n32g430_std_periph_driver/src/n32g430_flash.c ****     /* Clears the FLASH's pending flags */
 622:../firmware/n32g430_std_periph_driver/src/n32g430_flash.c ****     FLASH_Flag_Status_Clear(FLASH_STS_CLRFLAG);
 1356              		.loc 1 622 5
 1357 0034 3420     		movs	r0, #52
 1358 0036 FFF7FEFF 		bl	FLASH_Flag_Status_Clear
 623:../firmware/n32g430_std_periph_driver/src/n32g430_flash.c ****     /* Wait for last operation to be completed */
ARM GAS  C:\Users\ZShuai\AppData\Local\Temp\cc3cdILj.s 			page 35


 624:../firmware/n32g430_std_periph_driver/src/n32g430_flash.c ****     status_value = FLASH_Last_Operation_Wait(ERASE_TIMEOUT);
 1359              		.loc 1 624 20
 1360 003a 4FF43020 		mov	r0, #720896
 1361 003e FFF7FEFF 		bl	FLASH_Last_Operation_Wait
 1362 0042 0346     		mov	r3, r0
 1363 0044 FB73     		strb	r3, [r7, #15]
 625:../firmware/n32g430_std_periph_driver/src/n32g430_flash.c **** 
 626:../firmware/n32g430_std_periph_driver/src/n32g430_flash.c ****     if (status_value == FLASH_EOP)
 1364              		.loc 1 626 8
 1365 0046 FB7B     		ldrb	r3, [r7, #15]	@ zero_extendqisi2
 1366 0048 042B     		cmp	r3, #4
 1367 004a 2CD1     		bne	.L85
 627:../firmware/n32g430_std_periph_driver/src/n32g430_flash.c ****     {
 628:../firmware/n32g430_std_periph_driver/src/n32g430_flash.c ****         /* Enable the Option Bytes Programming operation */
 629:../firmware/n32g430_std_periph_driver/src/n32g430_flash.c ****         FLASH->CTRL |= FLASH_CTRL_SET_OPTPG;
 1368              		.loc 1 629 14
 1369 004c 184B     		ldr	r3, .L86
 1370 004e 1B69     		ldr	r3, [r3, #16]
 1371 0050 174A     		ldr	r2, .L86
 1372              		.loc 1 629 21
 1373 0052 43F01003 		orr	r3, r3, #16
 1374 0056 1361     		str	r3, [r2, #16]
 630:../firmware/n32g430_std_periph_driver/src/n32g430_flash.c ****         /* Restore the last read protection Option Byte value */
 631:../firmware/n32g430_std_periph_driver/src/n32g430_flash.c ****         OBT->USER_RDP =
 632:../firmware/n32g430_std_periph_driver/src/n32g430_flash.c ****             (uint32_t)option_byte_rpd1
 1375              		.loc 1 632 13
 1376 0058 FA79     		ldrb	r2, [r7, #7]	@ zero_extendqisi2
 633:../firmware/n32g430_std_periph_driver/src/n32g430_flash.c ****             | (((uint32_t)(option_byte_iwdg | option_byte_stop | option_byte_stdby | option_byte_iw
 1377              		.loc 1 633 17
 1378 005a B988     		ldrh	r1, [r7, #4]	@ movhi
 1379 005c 7B88     		ldrh	r3, [r7, #2]	@ movhi
 1380 005e 0B43     		orrs	r3, r3, r1
 1381 0060 99B2     		uxth	r1, r3
 1382 0062 3B88     		ldrh	r3, [r7]	@ movhi
 1383 0064 0B43     		orrs	r3, r3, r1
 1384 0066 99B2     		uxth	r1, r3
 1385 0068 3B8C     		ldrh	r3, [r7, #32]	@ movhi
 1386 006a 0B43     		orrs	r3, r3, r1
 1387 006c 99B2     		uxth	r1, r3
 1388 006e BB8C     		ldrh	r3, [r7, #36]	@ movhi
 1389 0070 0B43     		orrs	r3, r3, r1
 1390 0072 99B2     		uxth	r1, r3
 1391 0074 3B8D     		ldrh	r3, [r7, #40]	@ movhi
 1392 0076 0B43     		orrs	r3, r3, r1
 1393 0078 99B2     		uxth	r1, r3
 1394 007a BB8D     		ldrh	r3, [r7, #44]	@ movhi
 1395 007c 0B43     		orrs	r3, r3, r1
 1396 007e 9BB2     		uxth	r3, r3
 634:../firmware/n32g430_std_periph_driver/src/n32g430_flash.c ****             | option_byte_iwdg_stop2 | option_byte_iwdg_stdby | option_byte_iwdg_sleep)) << FLASH_U
 1397              		.loc 1 634 90
 1398 0080 1B04     		lsls	r3, r3, #16
 631:../firmware/n32g430_std_periph_driver/src/n32g430_flash.c ****             (uint32_t)option_byte_rpd1
 1399              		.loc 1 631 12
 1400 0082 0C49     		ldr	r1, .L86+4
 633:../firmware/n32g430_std_periph_driver/src/n32g430_flash.c ****             | (((uint32_t)(option_byte_iwdg | option_byte_stop | option_byte_stdby | option_byte_iw
 1401              		.loc 1 633 13
 1402 0084 1343     		orrs	r3, r3, r2
ARM GAS  C:\Users\ZShuai\AppData\Local\Temp\cc3cdILj.s 			page 36


 631:../firmware/n32g430_std_periph_driver/src/n32g430_flash.c ****             (uint32_t)option_byte_rpd1
 1403              		.loc 1 631 23
 1404 0086 0B60     		str	r3, [r1]
 635:../firmware/n32g430_std_periph_driver/src/n32g430_flash.c ****         
 636:../firmware/n32g430_std_periph_driver/src/n32g430_flash.c ****         /* Wait for last operation to be completed */
 637:../firmware/n32g430_std_periph_driver/src/n32g430_flash.c ****         status_value = FLASH_Last_Operation_Wait(PROGRAM_TIMEOUT);
 1405              		.loc 1 637 24
 1406 0088 4FF40050 		mov	r0, #8192
 1407 008c FFF7FEFF 		bl	FLASH_Last_Operation_Wait
 1408 0090 0346     		mov	r3, r0
 1409 0092 FB73     		strb	r3, [r7, #15]
 638:../firmware/n32g430_std_periph_driver/src/n32g430_flash.c ****         if (status_value != FLASH_TIMEOUT)
 1410              		.loc 1 638 12
 1411 0094 FB7B     		ldrb	r3, [r7, #15]	@ zero_extendqisi2
 1412 0096 072B     		cmp	r3, #7
 1413 0098 05D0     		beq	.L85
 639:../firmware/n32g430_std_periph_driver/src/n32g430_flash.c ****         {
 640:../firmware/n32g430_std_periph_driver/src/n32g430_flash.c ****             /* if the program operation is completed, disable the OPTPG Bit */
 641:../firmware/n32g430_std_periph_driver/src/n32g430_flash.c ****             FLASH->CTRL &= FLASH_CTRL_RESET_OPTPG;
 1414              		.loc 1 641 18
 1415 009a 054B     		ldr	r3, .L86
 1416 009c 1B69     		ldr	r3, [r3, #16]
 1417 009e 044A     		ldr	r2, .L86
 1418              		.loc 1 641 25
 1419 00a0 23F01003 		bic	r3, r3, #16
 1420 00a4 1361     		str	r3, [r2, #16]
 1421              	.L85:
 642:../firmware/n32g430_std_periph_driver/src/n32g430_flash.c ****         }
 643:../firmware/n32g430_std_periph_driver/src/n32g430_flash.c ****         else
 644:../firmware/n32g430_std_periph_driver/src/n32g430_flash.c ****         {
 645:../firmware/n32g430_std_periph_driver/src/n32g430_flash.c ****             /*No process*/
 646:../firmware/n32g430_std_periph_driver/src/n32g430_flash.c ****         }
 647:../firmware/n32g430_std_periph_driver/src/n32g430_flash.c ****     }
 648:../firmware/n32g430_std_periph_driver/src/n32g430_flash.c ****     else
 649:../firmware/n32g430_std_periph_driver/src/n32g430_flash.c ****     {
 650:../firmware/n32g430_std_periph_driver/src/n32g430_flash.c ****         /*No process*/
 651:../firmware/n32g430_std_periph_driver/src/n32g430_flash.c ****     }
 652:../firmware/n32g430_std_periph_driver/src/n32g430_flash.c **** 
 653:../firmware/n32g430_std_periph_driver/src/n32g430_flash.c ****     /* Return the Option Byte program status_value */
 654:../firmware/n32g430_std_periph_driver/src/n32g430_flash.c ****     return status_value;
 1422              		.loc 1 654 12
 1423 00a6 FB7B     		ldrb	r3, [r7, #15]	@ zero_extendqisi2
 1424              	.L84:
 655:../firmware/n32g430_std_periph_driver/src/n32g430_flash.c **** }
 1425              		.loc 1 655 1
 1426 00a8 1846     		mov	r0, r3
 1427 00aa 1437     		adds	r7, r7, #20
 1428              	.LCFI101:
 1429              		.cfi_def_cfa_offset 12
 1430 00ac BD46     		mov	sp, r7
 1431              	.LCFI102:
 1432              		.cfi_def_cfa_register 13
 1433              		@ sp needed
 1434 00ae 90BD     		pop	{r4, r7, pc}
 1435              	.L87:
 1436              		.align	2
 1437              	.L86:
ARM GAS  C:\Users\ZShuai\AppData\Local\Temp\cc3cdILj.s 			page 37


 1438 00b0 00200240 		.word	1073881088
 1439 00b4 00F8FF1F 		.word	536868864
 1440              		.cfi_endproc
 1441              	.LFE151:
 1443              		.section	.text.FLASH_Option_Bytes_DATA_Program,"ax",%progbits
 1444              		.align	1
 1445              		.global	FLASH_Option_Bytes_DATA_Program
 1446              		.syntax unified
 1447              		.thumb
 1448              		.thumb_func
 1450              	FLASH_Option_Bytes_DATA_Program:
 1451              	.LFB152:
 656:../firmware/n32g430_std_periph_driver/src/n32g430_flash.c **** 
 657:../firmware/n32g430_std_periph_driver/src/n32g430_flash.c **** 
 658:../firmware/n32g430_std_periph_driver/src/n32g430_flash.c **** /**
 659:../firmware/n32g430_std_periph_driver/src/n32g430_flash.c **** *\*\name   FLASH_Option_Bytes_DATA_Program
 660:../firmware/n32g430_std_periph_driver/src/n32g430_flash.c **** *\*\fun    Programs a half word at a specified Option Byte Data0 and Data1.
 661:../firmware/n32g430_std_periph_driver/src/n32g430_flash.c **** *\*\note   This function can be used for N32G430 devices.
 662:../firmware/n32g430_std_periph_driver/src/n32g430_flash.c **** *\*\param  option_byte_data0:
 663:../firmware/n32g430_std_periph_driver/src/n32g430_flash.c **** *\*\                - 0x00 to 0xFF
 664:../firmware/n32g430_std_periph_driver/src/n32g430_flash.c **** *\*\param  option_byte_data1:
 665:../firmware/n32g430_std_periph_driver/src/n32g430_flash.c **** *\*\                - 0x00 to 0xFF
 666:../firmware/n32g430_std_periph_driver/src/n32g430_flash.c **** *\*\return FLASH_STS: The returned value can be: 
 667:../firmware/n32g430_std_periph_driver/src/n32g430_flash.c **** *\*\                - FLASH_BUSY
 668:../firmware/n32g430_std_periph_driver/src/n32g430_flash.c **** *\*\                - FLASH_ERR_PG
 669:../firmware/n32g430_std_periph_driver/src/n32g430_flash.c **** *\*\                - FLASH_ERR_WRP
 670:../firmware/n32g430_std_periph_driver/src/n32g430_flash.c **** *\*\                - FLASH_EOP
 671:../firmware/n32g430_std_periph_driver/src/n32g430_flash.c **** *\*\                - FLASH_ERR_RDP2
 672:../firmware/n32g430_std_periph_driver/src/n32g430_flash.c **** *\*\                - FLASH_TIMEOUT
 673:../firmware/n32g430_std_periph_driver/src/n32g430_flash.c **** **/
 674:../firmware/n32g430_std_periph_driver/src/n32g430_flash.c **** FLASH_STS FLASH_Option_Bytes_DATA_Program(uint8_t option_byte_data0,uint8_t option_byte_data1)
 675:../firmware/n32g430_std_periph_driver/src/n32g430_flash.c **** {
 1452              		.loc 1 675 1
 1453              		.cfi_startproc
 1454              		@ args = 0, pretend = 0, frame = 16
 1455              		@ frame_needed = 1, uses_anonymous_args = 0
 1456 0000 80B5     		push	{r7, lr}
 1457              	.LCFI103:
 1458              		.cfi_def_cfa_offset 8
 1459              		.cfi_offset 7, -8
 1460              		.cfi_offset 14, -4
 1461 0002 84B0     		sub	sp, sp, #16
 1462              	.LCFI104:
 1463              		.cfi_def_cfa_offset 24
 1464 0004 00AF     		add	r7, sp, #0
 1465              	.LCFI105:
 1466              		.cfi_def_cfa_register 7
 1467 0006 0346     		mov	r3, r0
 1468 0008 0A46     		mov	r2, r1
 1469 000a FB71     		strb	r3, [r7, #7]
 1470 000c 1346     		mov	r3, r2
 1471 000e BB71     		strb	r3, [r7, #6]
 676:../firmware/n32g430_std_periph_driver/src/n32g430_flash.c ****     FLASH_STS status_value = FLASH_EOP;
 1472              		.loc 1 676 15
 1473 0010 0423     		movs	r3, #4
 1474 0012 FB73     		strb	r3, [r7, #15]
 677:../firmware/n32g430_std_periph_driver/src/n32g430_flash.c ****  
ARM GAS  C:\Users\ZShuai\AppData\Local\Temp\cc3cdILj.s 			page 38


 678:../firmware/n32g430_std_periph_driver/src/n32g430_flash.c ****     /* Clears the FLASH's pending flags */
 679:../firmware/n32g430_std_periph_driver/src/n32g430_flash.c ****     FLASH_Flag_Status_Clear(FLASH_STS_CLRFLAG);
 1475              		.loc 1 679 5
 1476 0014 3420     		movs	r0, #52
 1477 0016 FFF7FEFF 		bl	FLASH_Flag_Status_Clear
 680:../firmware/n32g430_std_periph_driver/src/n32g430_flash.c ****     /* Wait for last operation to be completed */
 681:../firmware/n32g430_std_periph_driver/src/n32g430_flash.c ****     status_value = FLASH_Last_Operation_Wait(PROGRAM_TIMEOUT);
 1478              		.loc 1 681 20
 1479 001a 4FF40050 		mov	r0, #8192
 1480 001e FFF7FEFF 		bl	FLASH_Last_Operation_Wait
 1481 0022 0346     		mov	r3, r0
 1482 0024 FB73     		strb	r3, [r7, #15]
 682:../firmware/n32g430_std_periph_driver/src/n32g430_flash.c **** 
 683:../firmware/n32g430_std_periph_driver/src/n32g430_flash.c ****     /* Get the actual read protection L2 Option Byte value */
 684:../firmware/n32g430_std_periph_driver/src/n32g430_flash.c ****     if (FLASH_Read_Out_Protection_L2_Status_Get() != RESET)
 1483              		.loc 1 684 9
 1484 0026 FFF7FEFF 		bl	FLASH_Read_Out_Protection_L2_Status_Get
 1485 002a 0346     		mov	r3, r0
 1486              		.loc 1 684 8
 1487 002c 002B     		cmp	r3, #0
 1488 002e 01D0     		beq	.L89
 685:../firmware/n32g430_std_periph_driver/src/n32g430_flash.c ****     {
 686:../firmware/n32g430_std_periph_driver/src/n32g430_flash.c ****         return FLASH_ERR_RDP2;
 1489              		.loc 1 686 16
 1490 0030 0523     		movs	r3, #5
 1491 0032 20E0     		b	.L90
 1492              	.L89:
 687:../firmware/n32g430_std_periph_driver/src/n32g430_flash.c ****     }
 688:../firmware/n32g430_std_periph_driver/src/n32g430_flash.c ****     else
 689:../firmware/n32g430_std_periph_driver/src/n32g430_flash.c ****     {
 690:../firmware/n32g430_std_periph_driver/src/n32g430_flash.c ****         /*No process*/
 691:../firmware/n32g430_std_periph_driver/src/n32g430_flash.c ****     }
 692:../firmware/n32g430_std_periph_driver/src/n32g430_flash.c **** 
 693:../firmware/n32g430_std_periph_driver/src/n32g430_flash.c ****     if (status_value == FLASH_EOP)
 1493              		.loc 1 693 8
 1494 0034 FB7B     		ldrb	r3, [r7, #15]	@ zero_extendqisi2
 1495 0036 042B     		cmp	r3, #4
 1496 0038 1CD1     		bne	.L91
 694:../firmware/n32g430_std_periph_driver/src/n32g430_flash.c ****     {
 695:../firmware/n32g430_std_periph_driver/src/n32g430_flash.c ****         Option_Bytes_Unlock();
 1497              		.loc 1 695 9
 1498 003a FFF7FEFF 		bl	Option_Bytes_Unlock
 696:../firmware/n32g430_std_periph_driver/src/n32g430_flash.c ****         /* Enables the Option Bytes Programming operation */
 697:../firmware/n32g430_std_periph_driver/src/n32g430_flash.c ****         FLASH->CTRL |= FLASH_CTRL_SET_OPTPG;
 1499              		.loc 1 697 14
 1500 003e 104B     		ldr	r3, .L92
 1501 0040 1B69     		ldr	r3, [r3, #16]
 1502 0042 0F4A     		ldr	r2, .L92
 1503              		.loc 1 697 21
 1504 0044 43F01003 		orr	r3, r3, #16
 1505 0048 1361     		str	r3, [r2, #16]
 698:../firmware/n32g430_std_periph_driver/src/n32g430_flash.c ****         OBT->Data1_Data0 = (((uint32_t)option_byte_data1) << FLASH_DATA0_DATA1_OFFSET) \
 1506              		.loc 1 698 30
 1507 004a BB79     		ldrb	r3, [r7, #6]	@ zero_extendqisi2
 1508              		.loc 1 698 59
 1509 004c 1A04     		lsls	r2, r3, #16
 699:../firmware/n32g430_std_periph_driver/src/n32g430_flash.c ****                           | ((uint32_t)option_byte_data0);
ARM GAS  C:\Users\ZShuai\AppData\Local\Temp\cc3cdILj.s 			page 39


 1510              		.loc 1 699 30
 1511 004e FB79     		ldrb	r3, [r7, #7]	@ zero_extendqisi2
 698:../firmware/n32g430_std_periph_driver/src/n32g430_flash.c ****         OBT->Data1_Data0 = (((uint32_t)option_byte_data1) << FLASH_DATA0_DATA1_OFFSET) \
 1512              		.loc 1 698 12
 1513 0050 0C49     		ldr	r1, .L92+4
 1514              		.loc 1 699 27
 1515 0052 1343     		orrs	r3, r3, r2
 698:../firmware/n32g430_std_periph_driver/src/n32g430_flash.c ****         OBT->Data1_Data0 = (((uint32_t)option_byte_data1) << FLASH_DATA0_DATA1_OFFSET) \
 1516              		.loc 1 698 26
 1517 0054 4B60     		str	r3, [r1, #4]
 700:../firmware/n32g430_std_periph_driver/src/n32g430_flash.c **** 
 701:../firmware/n32g430_std_periph_driver/src/n32g430_flash.c ****         /* Wait for last operation to be completed */
 702:../firmware/n32g430_std_periph_driver/src/n32g430_flash.c ****         status_value = FLASH_Last_Operation_Wait(PROGRAM_TIMEOUT);
 1518              		.loc 1 702 24
 1519 0056 4FF40050 		mov	r0, #8192
 1520 005a FFF7FEFF 		bl	FLASH_Last_Operation_Wait
 1521 005e 0346     		mov	r3, r0
 1522 0060 FB73     		strb	r3, [r7, #15]
 703:../firmware/n32g430_std_periph_driver/src/n32g430_flash.c ****         if (status_value != FLASH_TIMEOUT)
 1523              		.loc 1 703 12
 1524 0062 FB7B     		ldrb	r3, [r7, #15]	@ zero_extendqisi2
 1525 0064 072B     		cmp	r3, #7
 1526 0066 05D0     		beq	.L91
 704:../firmware/n32g430_std_periph_driver/src/n32g430_flash.c ****         {
 705:../firmware/n32g430_std_periph_driver/src/n32g430_flash.c ****             /* if the program operation is completed, disable the OPTPG Bit */
 706:../firmware/n32g430_std_periph_driver/src/n32g430_flash.c ****             FLASH->CTRL &= FLASH_CTRL_RESET_OPTPG;
 1527              		.loc 1 706 18
 1528 0068 054B     		ldr	r3, .L92
 1529 006a 1B69     		ldr	r3, [r3, #16]
 1530 006c 044A     		ldr	r2, .L92
 1531              		.loc 1 706 25
 1532 006e 23F01003 		bic	r3, r3, #16
 1533 0072 1361     		str	r3, [r2, #16]
 1534              	.L91:
 707:../firmware/n32g430_std_periph_driver/src/n32g430_flash.c ****         }
 708:../firmware/n32g430_std_periph_driver/src/n32g430_flash.c ****         else
 709:../firmware/n32g430_std_periph_driver/src/n32g430_flash.c ****         {
 710:../firmware/n32g430_std_periph_driver/src/n32g430_flash.c ****             /*No process*/
 711:../firmware/n32g430_std_periph_driver/src/n32g430_flash.c ****         }
 712:../firmware/n32g430_std_periph_driver/src/n32g430_flash.c ****     }
 713:../firmware/n32g430_std_periph_driver/src/n32g430_flash.c ****     else
 714:../firmware/n32g430_std_periph_driver/src/n32g430_flash.c ****     {
 715:../firmware/n32g430_std_periph_driver/src/n32g430_flash.c ****         /*No process*/
 716:../firmware/n32g430_std_periph_driver/src/n32g430_flash.c ****     }
 717:../firmware/n32g430_std_periph_driver/src/n32g430_flash.c ****     /* Return the Option Byte Data Program status_value */
 718:../firmware/n32g430_std_periph_driver/src/n32g430_flash.c ****     return status_value;
 1535              		.loc 1 718 12
 1536 0074 FB7B     		ldrb	r3, [r7, #15]	@ zero_extendqisi2
 1537              	.L90:
 719:../firmware/n32g430_std_periph_driver/src/n32g430_flash.c **** }
 1538              		.loc 1 719 1
 1539 0076 1846     		mov	r0, r3
 1540 0078 1037     		adds	r7, r7, #16
 1541              	.LCFI106:
 1542              		.cfi_def_cfa_offset 8
 1543 007a BD46     		mov	sp, r7
 1544              	.LCFI107:
ARM GAS  C:\Users\ZShuai\AppData\Local\Temp\cc3cdILj.s 			page 40


 1545              		.cfi_def_cfa_register 13
 1546              		@ sp needed
 1547 007c 80BD     		pop	{r7, pc}
 1548              	.L93:
 1549 007e 00BF     		.align	2
 1550              	.L92:
 1551 0080 00200240 		.word	1073881088
 1552 0084 00F8FF1F 		.word	536868864
 1553              		.cfi_endproc
 1554              	.LFE152:
 1556              		.section	.text.FLASH_Write_Protection_Enable,"ax",%progbits
 1557              		.align	1
 1558              		.global	FLASH_Write_Protection_Enable
 1559              		.syntax unified
 1560              		.thumb
 1561              		.thumb_func
 1563              	FLASH_Write_Protection_Enable:
 1564              	.LFB153:
 720:../firmware/n32g430_std_periph_driver/src/n32g430_flash.c **** 
 721:../firmware/n32g430_std_periph_driver/src/n32g430_flash.c **** /**
 722:../firmware/n32g430_std_periph_driver/src/n32g430_flash.c **** *\*\name   FLASH_Write_Protection_Enable
 723:../firmware/n32g430_std_periph_driver/src/n32g430_flash.c **** *\*\fun    Write protects the desired pages
 724:../firmware/n32g430_std_periph_driver/src/n32g430_flash.c **** *\*\note   This function can be used for N32G430 devices.
 725:../firmware/n32g430_std_periph_driver/src/n32g430_flash.c **** *\*\param  flash_pages :
 726:../firmware/n32g430_std_periph_driver/src/n32g430_flash.c **** *\*\        - FLASH_WRP_Pages0to1
 727:../firmware/n32g430_std_periph_driver/src/n32g430_flash.c **** *\*\        - FLASH_WRP_Pages2to3
 728:../firmware/n32g430_std_periph_driver/src/n32g430_flash.c **** *\*\        - FLASH_WRP_Pages4to5
 729:../firmware/n32g430_std_periph_driver/src/n32g430_flash.c **** *\*\        - FLASH_WRP_Pages6to7
 730:../firmware/n32g430_std_periph_driver/src/n32g430_flash.c **** *\*\        - FLASH_WRP_Pages8to9
 731:../firmware/n32g430_std_periph_driver/src/n32g430_flash.c **** *\*\        - FLASH_WRP_Pages10to11
 732:../firmware/n32g430_std_periph_driver/src/n32g430_flash.c **** *\*\        - FLASH_WRP_Pages12to13
 733:../firmware/n32g430_std_periph_driver/src/n32g430_flash.c **** *\*\        - FLASH_WRP_Pages14to15
 734:../firmware/n32g430_std_periph_driver/src/n32g430_flash.c **** *\*\        - FLASH_WRP_Pages16to17
 735:../firmware/n32g430_std_periph_driver/src/n32g430_flash.c **** *\*\        - FLASH_WRP_Pages18to19
 736:../firmware/n32g430_std_periph_driver/src/n32g430_flash.c **** *\*\        - FLASH_WRP_Pages20to21
 737:../firmware/n32g430_std_periph_driver/src/n32g430_flash.c **** *\*\        - FLASH_WRP_Pages22to23
 738:../firmware/n32g430_std_periph_driver/src/n32g430_flash.c **** *\*\        - FLASH_WRP_Pages24to25
 739:../firmware/n32g430_std_periph_driver/src/n32g430_flash.c **** *\*\        - FLASH_WRP_Pages26to27
 740:../firmware/n32g430_std_periph_driver/src/n32g430_flash.c **** *\*\        - FLASH_WRP_Pages28to29
 741:../firmware/n32g430_std_periph_driver/src/n32g430_flash.c **** *\*\        - FLASH_WRP_Pages30to31
 742:../firmware/n32g430_std_periph_driver/src/n32g430_flash.c **** *\*\        - FLASH_WRP_AllPages
 743:../firmware/n32g430_std_periph_driver/src/n32g430_flash.c **** *\*\return FLASH_STS : 
 744:../firmware/n32g430_std_periph_driver/src/n32g430_flash.c **** *\*\        - FLASH_BUSY
 745:../firmware/n32g430_std_periph_driver/src/n32g430_flash.c **** *\*\        - FLASH_ERR_PG 
 746:../firmware/n32g430_std_periph_driver/src/n32g430_flash.c **** *\*\        - FLASH_ERR_WRP
 747:../firmware/n32g430_std_periph_driver/src/n32g430_flash.c **** *\*\        - FLASH_EOP
 748:../firmware/n32g430_std_periph_driver/src/n32g430_flash.c **** *\*\        - FLASH_ERR_RDP2
 749:../firmware/n32g430_std_periph_driver/src/n32g430_flash.c **** *\*\        - FLASH_TIMEOUT
 750:../firmware/n32g430_std_periph_driver/src/n32g430_flash.c **** **/
 751:../firmware/n32g430_std_periph_driver/src/n32g430_flash.c **** FLASH_STS FLASH_Write_Protection_Enable(uint32_t flash_pages)
 752:../firmware/n32g430_std_periph_driver/src/n32g430_flash.c **** {
 1565              		.loc 1 752 1
 1566              		.cfi_startproc
 1567              		@ args = 0, pretend = 0, frame = 16
 1568              		@ frame_needed = 1, uses_anonymous_args = 0
 1569 0000 80B5     		push	{r7, lr}
 1570              	.LCFI108:
ARM GAS  C:\Users\ZShuai\AppData\Local\Temp\cc3cdILj.s 			page 41


 1571              		.cfi_def_cfa_offset 8
 1572              		.cfi_offset 7, -8
 1573              		.cfi_offset 14, -4
 1574 0002 84B0     		sub	sp, sp, #16
 1575              	.LCFI109:
 1576              		.cfi_def_cfa_offset 24
 1577 0004 00AF     		add	r7, sp, #0
 1578              	.LCFI110:
 1579              		.cfi_def_cfa_register 7
 1580 0006 7860     		str	r0, [r7, #4]
 753:../firmware/n32g430_std_periph_driver/src/n32g430_flash.c ****     uint16_t WRP0_Data = 0xFFFF, WRP1_Data = 0xFFFF;
 1581              		.loc 1 753 14
 1582 0008 4FF6FF73 		movw	r3, #65535
 1583 000c BB81     		strh	r3, [r7, #12]	@ movhi
 1584              		.loc 1 753 34
 1585 000e 4FF6FF73 		movw	r3, #65535
 1586 0012 7B81     		strh	r3, [r7, #10]	@ movhi
 754:../firmware/n32g430_std_periph_driver/src/n32g430_flash.c **** 
 755:../firmware/n32g430_std_periph_driver/src/n32g430_flash.c ****     FLASH_STS status_value = FLASH_EOP;
 1587              		.loc 1 755 15
 1588 0014 0423     		movs	r3, #4
 1589 0016 FB73     		strb	r3, [r7, #15]
 756:../firmware/n32g430_std_periph_driver/src/n32g430_flash.c **** 
 757:../firmware/n32g430_std_periph_driver/src/n32g430_flash.c ****     /* Get the actual read protection L2 Option Byte value */
 758:../firmware/n32g430_std_periph_driver/src/n32g430_flash.c ****     if (FLASH_Read_Out_Protection_L2_Status_Get() != RESET)
 1590              		.loc 1 758 9
 1591 0018 FFF7FEFF 		bl	FLASH_Read_Out_Protection_L2_Status_Get
 1592 001c 0346     		mov	r3, r0
 1593              		.loc 1 758 8
 1594 001e 002B     		cmp	r3, #0
 1595 0020 01D0     		beq	.L95
 759:../firmware/n32g430_std_periph_driver/src/n32g430_flash.c ****     {
 760:../firmware/n32g430_std_periph_driver/src/n32g430_flash.c ****         return FLASH_ERR_RDP2;
 1596              		.loc 1 760 16
 1597 0022 0523     		movs	r3, #5
 1598 0024 3BE0     		b	.L96
 1599              	.L95:
 761:../firmware/n32g430_std_periph_driver/src/n32g430_flash.c ****     }
 762:../firmware/n32g430_std_periph_driver/src/n32g430_flash.c ****     else
 763:../firmware/n32g430_std_periph_driver/src/n32g430_flash.c ****     {
 764:../firmware/n32g430_std_periph_driver/src/n32g430_flash.c ****         /*No process*/
 765:../firmware/n32g430_std_periph_driver/src/n32g430_flash.c ****     }
 766:../firmware/n32g430_std_periph_driver/src/n32g430_flash.c **** 
 767:../firmware/n32g430_std_periph_driver/src/n32g430_flash.c ****     flash_pages = (uint32_t)(~flash_pages);
 1600              		.loc 1 767 17
 1601 0026 7B68     		ldr	r3, [r7, #4]
 1602 0028 DB43     		mvns	r3, r3
 1603 002a 7B60     		str	r3, [r7, #4]
 768:../firmware/n32g430_std_periph_driver/src/n32g430_flash.c ****     WRP0_Data   = (uint16_t)( flash_pages & FLASH_WRP0_MSK);
 1604              		.loc 1 768 19
 1605 002c 7B68     		ldr	r3, [r7, #4]
 1606 002e 9BB2     		uxth	r3, r3
 1607              		.loc 1 768 17
 1608 0030 DBB2     		uxtb	r3, r3
 1609 0032 BB81     		strh	r3, [r7, #12]	@ movhi
 769:../firmware/n32g430_std_periph_driver/src/n32g430_flash.c ****     WRP1_Data   = (uint16_t)((flash_pages & FLASH_WRP1_MSK) >> FLASH_WRP_WRP1_OFFSET);
 1610              		.loc 1 769 61
ARM GAS  C:\Users\ZShuai\AppData\Local\Temp\cc3cdILj.s 			page 42


 1611 0034 7B68     		ldr	r3, [r7, #4]
 1612 0036 1B0A     		lsrs	r3, r3, #8
 1613              		.loc 1 769 19
 1614 0038 9BB2     		uxth	r3, r3
 1615              		.loc 1 769 17
 1616 003a DBB2     		uxtb	r3, r3
 1617 003c 7B81     		strh	r3, [r7, #10]	@ movhi
 770:../firmware/n32g430_std_periph_driver/src/n32g430_flash.c **** 
 771:../firmware/n32g430_std_periph_driver/src/n32g430_flash.c ****     /* Clears the FLASH's pending flags */
 772:../firmware/n32g430_std_periph_driver/src/n32g430_flash.c ****     FLASH_Flag_Status_Clear(FLASH_STS_CLRFLAG);
 1618              		.loc 1 772 5
 1619 003e 3420     		movs	r0, #52
 1620 0040 FFF7FEFF 		bl	FLASH_Flag_Status_Clear
 773:../firmware/n32g430_std_periph_driver/src/n32g430_flash.c ****     /* Wait for last operation to be completed */
 774:../firmware/n32g430_std_periph_driver/src/n32g430_flash.c ****     status_value = FLASH_Last_Operation_Wait(PROGRAM_TIMEOUT);
 1621              		.loc 1 774 20
 1622 0044 4FF40050 		mov	r0, #8192
 1623 0048 FFF7FEFF 		bl	FLASH_Last_Operation_Wait
 1624 004c 0346     		mov	r3, r0
 1625 004e FB73     		strb	r3, [r7, #15]
 775:../firmware/n32g430_std_periph_driver/src/n32g430_flash.c **** 
 776:../firmware/n32g430_std_periph_driver/src/n32g430_flash.c ****     if (status_value == FLASH_EOP)
 1626              		.loc 1 776 8
 1627 0050 FB7B     		ldrb	r3, [r7, #15]	@ zero_extendqisi2
 1628 0052 042B     		cmp	r3, #4
 1629 0054 22D1     		bne	.L97
 777:../firmware/n32g430_std_periph_driver/src/n32g430_flash.c ****     {
 778:../firmware/n32g430_std_periph_driver/src/n32g430_flash.c ****         Option_Bytes_Unlock();
 1630              		.loc 1 778 9
 1631 0056 FFF7FEFF 		bl	Option_Bytes_Unlock
 779:../firmware/n32g430_std_periph_driver/src/n32g430_flash.c ****         FLASH->CTRL |= FLASH_CTRL_SET_OPTPG;
 1632              		.loc 1 779 14
 1633 005a 134B     		ldr	r3, .L100
 1634 005c 1B69     		ldr	r3, [r3, #16]
 1635 005e 124A     		ldr	r2, .L100
 1636              		.loc 1 779 21
 1637 0060 43F01003 		orr	r3, r3, #16
 1638 0064 1361     		str	r3, [r2, #16]
 780:../firmware/n32g430_std_periph_driver/src/n32g430_flash.c **** 
 781:../firmware/n32g430_std_periph_driver/src/n32g430_flash.c ****         if ((WRP0_Data != 0xFF) || (WRP1_Data != 0xFF))
 1639              		.loc 1 781 12
 1640 0066 BB89     		ldrh	r3, [r7, #12]
 1641 0068 FF2B     		cmp	r3, #255
 1642 006a 02D1     		bne	.L98
 1643              		.loc 1 781 33 discriminator 1
 1644 006c 7B89     		ldrh	r3, [r7, #10]
 1645 006e FF2B     		cmp	r3, #255
 1646 0070 0BD0     		beq	.L99
 1647              	.L98:
 782:../firmware/n32g430_std_periph_driver/src/n32g430_flash.c ****         {
 783:../firmware/n32g430_std_periph_driver/src/n32g430_flash.c ****             OBT->WRP1_WRP0 = (((uint32_t)WRP0_Data) | (((uint32_t)WRP1_Data) << FLASH_WRP1_DATA_OFF
 1648              		.loc 1 783 32
 1649 0072 BA89     		ldrh	r2, [r7, #12]
 1650              		.loc 1 783 57
 1651 0074 7B89     		ldrh	r3, [r7, #10]
 1652              		.loc 1 783 78
 1653 0076 1B04     		lsls	r3, r3, #16
ARM GAS  C:\Users\ZShuai\AppData\Local\Temp\cc3cdILj.s 			page 43


 1654              		.loc 1 783 16
 1655 0078 0C49     		ldr	r1, .L100+4
 1656              		.loc 1 783 53
 1657 007a 1343     		orrs	r3, r3, r2
 1658              		.loc 1 783 28
 1659 007c 8B60     		str	r3, [r1, #8]
 784:../firmware/n32g430_std_periph_driver/src/n32g430_flash.c **** 
 785:../firmware/n32g430_std_periph_driver/src/n32g430_flash.c ****             /* Wait for last operation to be completed */
 786:../firmware/n32g430_std_periph_driver/src/n32g430_flash.c ****             status_value = FLASH_Last_Operation_Wait(PROGRAM_TIMEOUT);
 1660              		.loc 1 786 28
 1661 007e 4FF40050 		mov	r0, #8192
 1662 0082 FFF7FEFF 		bl	FLASH_Last_Operation_Wait
 1663 0086 0346     		mov	r3, r0
 1664 0088 FB73     		strb	r3, [r7, #15]
 1665              	.L99:
 787:../firmware/n32g430_std_periph_driver/src/n32g430_flash.c ****         }
 788:../firmware/n32g430_std_periph_driver/src/n32g430_flash.c ****         else
 789:../firmware/n32g430_std_periph_driver/src/n32g430_flash.c ****         {
 790:../firmware/n32g430_std_periph_driver/src/n32g430_flash.c ****             /*No process*/
 791:../firmware/n32g430_std_periph_driver/src/n32g430_flash.c ****         }
 792:../firmware/n32g430_std_periph_driver/src/n32g430_flash.c **** 
 793:../firmware/n32g430_std_periph_driver/src/n32g430_flash.c ****         if (status_value != FLASH_TIMEOUT)
 1666              		.loc 1 793 12
 1667 008a FB7B     		ldrb	r3, [r7, #15]	@ zero_extendqisi2
 1668 008c 072B     		cmp	r3, #7
 1669 008e 05D0     		beq	.L97
 794:../firmware/n32g430_std_periph_driver/src/n32g430_flash.c ****         {
 795:../firmware/n32g430_std_periph_driver/src/n32g430_flash.c ****             /* if the program operation is completed, disable the OPTPG Bit */
 796:../firmware/n32g430_std_periph_driver/src/n32g430_flash.c ****             FLASH->CTRL &= FLASH_CTRL_RESET_OPTPG;
 1670              		.loc 1 796 18
 1671 0090 054B     		ldr	r3, .L100
 1672 0092 1B69     		ldr	r3, [r3, #16]
 1673 0094 044A     		ldr	r2, .L100
 1674              		.loc 1 796 25
 1675 0096 23F01003 		bic	r3, r3, #16
 1676 009a 1361     		str	r3, [r2, #16]
 1677              	.L97:
 797:../firmware/n32g430_std_periph_driver/src/n32g430_flash.c ****         }
 798:../firmware/n32g430_std_periph_driver/src/n32g430_flash.c ****         else
 799:../firmware/n32g430_std_periph_driver/src/n32g430_flash.c ****         {
 800:../firmware/n32g430_std_periph_driver/src/n32g430_flash.c ****             /*No process*/
 801:../firmware/n32g430_std_periph_driver/src/n32g430_flash.c ****         }
 802:../firmware/n32g430_std_periph_driver/src/n32g430_flash.c ****     }
 803:../firmware/n32g430_std_periph_driver/src/n32g430_flash.c ****     else
 804:../firmware/n32g430_std_periph_driver/src/n32g430_flash.c ****     {
 805:../firmware/n32g430_std_periph_driver/src/n32g430_flash.c ****         /*No process*/
 806:../firmware/n32g430_std_periph_driver/src/n32g430_flash.c ****     }
 807:../firmware/n32g430_std_periph_driver/src/n32g430_flash.c ****     /* Return the write protection operation status_value */
 808:../firmware/n32g430_std_periph_driver/src/n32g430_flash.c ****     return status_value;
 1678              		.loc 1 808 12
 1679 009c FB7B     		ldrb	r3, [r7, #15]	@ zero_extendqisi2
 1680              	.L96:
 809:../firmware/n32g430_std_periph_driver/src/n32g430_flash.c **** }
 1681              		.loc 1 809 1
 1682 009e 1846     		mov	r0, r3
 1683 00a0 1037     		adds	r7, r7, #16
 1684              	.LCFI111:
ARM GAS  C:\Users\ZShuai\AppData\Local\Temp\cc3cdILj.s 			page 44


 1685              		.cfi_def_cfa_offset 8
 1686 00a2 BD46     		mov	sp, r7
 1687              	.LCFI112:
 1688              		.cfi_def_cfa_register 13
 1689              		@ sp needed
 1690 00a4 80BD     		pop	{r7, pc}
 1691              	.L101:
 1692 00a6 00BF     		.align	2
 1693              	.L100:
 1694 00a8 00200240 		.word	1073881088
 1695 00ac 00F8FF1F 		.word	536868864
 1696              		.cfi_endproc
 1697              	.LFE153:
 1699              		.section	.text.FLASH_Option_Bytes_User2_RDP2_Program,"ax",%progbits
 1700              		.align	1
 1701              		.global	FLASH_Option_Bytes_User2_RDP2_Program
 1702              		.syntax unified
 1703              		.thumb
 1704              		.thumb_func
 1706              	FLASH_Option_Bytes_User2_RDP2_Program:
 1707              	.LFB154:
 810:../firmware/n32g430_std_periph_driver/src/n32g430_flash.c **** 
 811:../firmware/n32g430_std_periph_driver/src/n32g430_flash.c **** 
 812:../firmware/n32g430_std_periph_driver/src/n32g430_flash.c **** /**
 813:../firmware/n32g430_std_periph_driver/src/n32g430_flash.c **** *\*\name    FLASH_Option_Bytes_User2_RDP2_Program
 814:../firmware/n32g430_std_periph_driver/src/n32g430_flash.c **** *\*\fun     Programs the FLASH User2_RDP2 Option Byte: nBOOT0 / nBOOT1 / nSWBOOT0 / RDP2 .
 815:../firmware/n32g430_std_periph_driver/src/n32g430_flash.c **** *\*\note    This function can be used for N32G430 devices.
 816:../firmware/n32g430_std_periph_driver/src/n32g430_flash.c **** *\*\param  option_byte_rpd2 :
 817:../firmware/n32g430_std_periph_driver/src/n32g430_flash.c **** *\*\            - FLASH_OB_RDP2_ENABLE
 818:../firmware/n32g430_std_periph_driver/src/n32g430_flash.c **** *\*\            - FLASH_OB_RDP2_DISABLE
 819:../firmware/n32g430_std_periph_driver/src/n32g430_flash.c **** *\*\param   option_byte2_nBOOT0 :
 820:../firmware/n32g430_std_periph_driver/src/n32g430_flash.c **** *\*\            - FLASH_OB2_NBOOT0_SET Set nBOOT0
 821:../firmware/n32g430_std_periph_driver/src/n32g430_flash.c **** *\*\            - FLASH_OB2_NBOOT0_CLR Clear nBOOT0
 822:../firmware/n32g430_std_periph_driver/src/n32g430_flash.c **** *\*\param   option_byte2_nBOOT1 :
 823:../firmware/n32g430_std_periph_driver/src/n32g430_flash.c **** *\*\            - FLASH_OB2_NBOOT1_SET Set nBOOT1
 824:../firmware/n32g430_std_periph_driver/src/n32g430_flash.c **** *\*\            - FLASH_OB2_NBOOT1_CLR Clear nBOOT1
 825:../firmware/n32g430_std_periph_driver/src/n32g430_flash.c **** *\*\param   option_byte2_nSWBOOT0 :
 826:../firmware/n32g430_std_periph_driver/src/n32g430_flash.c **** *\*\            - FLASH_OB2_NSWBOOT0_SET Set nSWBOOT0
 827:../firmware/n32g430_std_periph_driver/src/n32g430_flash.c **** *\*\            - FLASH_OB2_NSWBOOT0_CLR Clear nSWBOOT0
 828:../firmware/n32g430_std_periph_driver/src/n32g430_flash.c **** *\*\return  FLASH_STS : 
 829:../firmware/n32g430_std_periph_driver/src/n32g430_flash.c **** *\*\            - FLASH_BUSY
 830:../firmware/n32g430_std_periph_driver/src/n32g430_flash.c **** *\*\            - FLASH_ERR_PG 
 831:../firmware/n32g430_std_periph_driver/src/n32g430_flash.c **** *\*\            - FLASH_ERR_WRP
 832:../firmware/n32g430_std_periph_driver/src/n32g430_flash.c **** *\*\            - FLASH_EOP
 833:../firmware/n32g430_std_periph_driver/src/n32g430_flash.c **** *\*\            - FLASH_ERR_RDP2
 834:../firmware/n32g430_std_periph_driver/src/n32g430_flash.c **** *\*\            - FLASH_TIMEOUT
 835:../firmware/n32g430_std_periph_driver/src/n32g430_flash.c **** **/
 836:../firmware/n32g430_std_periph_driver/src/n32g430_flash.c **** FLASH_STS FLASH_Option_Bytes_User2_RDP2_Program(uint8_t option_byte_rpd2,uint8_t option_byte2_nBOOT
 837:../firmware/n32g430_std_periph_driver/src/n32g430_flash.c ****                                                 uint8_t option_byte2_nBOOT1, uint8_t option_byte2_n
 838:../firmware/n32g430_std_periph_driver/src/n32g430_flash.c **** {
 1708              		.loc 1 838 1
 1709              		.cfi_startproc
 1710              		@ args = 0, pretend = 0, frame = 16
 1711              		@ frame_needed = 1, uses_anonymous_args = 0
 1712 0000 90B5     		push	{r4, r7, lr}
 1713              	.LCFI113:
 1714              		.cfi_def_cfa_offset 12
ARM GAS  C:\Users\ZShuai\AppData\Local\Temp\cc3cdILj.s 			page 45


 1715              		.cfi_offset 4, -12
 1716              		.cfi_offset 7, -8
 1717              		.cfi_offset 14, -4
 1718 0002 85B0     		sub	sp, sp, #20
 1719              	.LCFI114:
 1720              		.cfi_def_cfa_offset 32
 1721 0004 00AF     		add	r7, sp, #0
 1722              	.LCFI115:
 1723              		.cfi_def_cfa_register 7
 1724 0006 0446     		mov	r4, r0
 1725 0008 0846     		mov	r0, r1
 1726 000a 1146     		mov	r1, r2
 1727 000c 1A46     		mov	r2, r3
 1728 000e 2346     		mov	r3, r4
 1729 0010 FB71     		strb	r3, [r7, #7]
 1730 0012 0346     		mov	r3, r0
 1731 0014 BB71     		strb	r3, [r7, #6]
 1732 0016 0B46     		mov	r3, r1
 1733 0018 7B71     		strb	r3, [r7, #5]
 1734 001a 1346     		mov	r3, r2
 1735 001c 3B71     		strb	r3, [r7, #4]
 839:../firmware/n32g430_std_periph_driver/src/n32g430_flash.c ****     FLASH_STS status_value = FLASH_EOP;
 1736              		.loc 1 839 15
 1737 001e 0423     		movs	r3, #4
 1738 0020 FB73     		strb	r3, [r7, #15]
 840:../firmware/n32g430_std_periph_driver/src/n32g430_flash.c **** 
 841:../firmware/n32g430_std_periph_driver/src/n32g430_flash.c ****     /* Get the actual read protection L2 Option Byte value */
 842:../firmware/n32g430_std_periph_driver/src/n32g430_flash.c ****     if (FLASH_Read_Out_Protection_L2_Status_Get() != RESET)
 1739              		.loc 1 842 9
 1740 0022 FFF7FEFF 		bl	FLASH_Read_Out_Protection_L2_Status_Get
 1741 0026 0346     		mov	r3, r0
 1742              		.loc 1 842 8
 1743 0028 002B     		cmp	r3, #0
 1744 002a 01D0     		beq	.L103
 843:../firmware/n32g430_std_periph_driver/src/n32g430_flash.c ****     {
 844:../firmware/n32g430_std_periph_driver/src/n32g430_flash.c ****         return FLASH_ERR_RDP2;
 1745              		.loc 1 844 16
 1746 002c 0523     		movs	r3, #5
 1747 002e 2FE0     		b	.L104
 1748              	.L103:
 845:../firmware/n32g430_std_periph_driver/src/n32g430_flash.c ****     }
 846:../firmware/n32g430_std_periph_driver/src/n32g430_flash.c ****     else
 847:../firmware/n32g430_std_periph_driver/src/n32g430_flash.c ****     {
 848:../firmware/n32g430_std_periph_driver/src/n32g430_flash.c ****         /*No process*/
 849:../firmware/n32g430_std_periph_driver/src/n32g430_flash.c ****     }
 850:../firmware/n32g430_std_periph_driver/src/n32g430_flash.c **** 
 851:../firmware/n32g430_std_periph_driver/src/n32g430_flash.c ****     Option_Bytes_Unlock();
 1749              		.loc 1 851 5
 1750 0030 FFF7FEFF 		bl	Option_Bytes_Unlock
 852:../firmware/n32g430_std_periph_driver/src/n32g430_flash.c **** 
 853:../firmware/n32g430_std_periph_driver/src/n32g430_flash.c ****     /* Clears the FLASH's pending flags */
 854:../firmware/n32g430_std_periph_driver/src/n32g430_flash.c ****     FLASH_Flag_Status_Clear(FLASH_STS_CLRFLAG);
 1751              		.loc 1 854 5
 1752 0034 3420     		movs	r0, #52
 1753 0036 FFF7FEFF 		bl	FLASH_Flag_Status_Clear
 855:../firmware/n32g430_std_periph_driver/src/n32g430_flash.c ****     /* Wait for last operation to be completed */
 856:../firmware/n32g430_std_periph_driver/src/n32g430_flash.c ****     status_value = FLASH_Last_Operation_Wait(ERASE_TIMEOUT);
ARM GAS  C:\Users\ZShuai\AppData\Local\Temp\cc3cdILj.s 			page 46


 1754              		.loc 1 856 20
 1755 003a 4FF43020 		mov	r0, #720896
 1756 003e FFF7FEFF 		bl	FLASH_Last_Operation_Wait
 1757 0042 0346     		mov	r3, r0
 1758 0044 FB73     		strb	r3, [r7, #15]
 857:../firmware/n32g430_std_periph_driver/src/n32g430_flash.c **** 
 858:../firmware/n32g430_std_periph_driver/src/n32g430_flash.c ****     if (status_value == FLASH_EOP)
 1759              		.loc 1 858 8
 1760 0046 FB7B     		ldrb	r3, [r7, #15]	@ zero_extendqisi2
 1761 0048 042B     		cmp	r3, #4
 1762 004a 20D1     		bne	.L105
 859:../firmware/n32g430_std_periph_driver/src/n32g430_flash.c ****     {
 860:../firmware/n32g430_std_periph_driver/src/n32g430_flash.c ****         /* Enable the Option Bytes Programming operation */
 861:../firmware/n32g430_std_periph_driver/src/n32g430_flash.c ****         FLASH->CTRL |= FLASH_CTRL_SET_OPTPG;
 1763              		.loc 1 861 14
 1764 004c 124B     		ldr	r3, .L106
 1765 004e 1B69     		ldr	r3, [r3, #16]
 1766 0050 114A     		ldr	r2, .L106
 1767              		.loc 1 861 21
 1768 0052 43F01003 		orr	r3, r3, #16
 1769 0056 1361     		str	r3, [r2, #16]
 862:../firmware/n32g430_std_periph_driver/src/n32g430_flash.c ****         /* Restore the last read protection Option Byte value */
 863:../firmware/n32g430_std_periph_driver/src/n32g430_flash.c ****         OBT->USER2_RDP2 = (((uint32_t)option_byte_rpd2) | \
 1770              		.loc 1 863 29
 1771 0058 FA79     		ldrb	r2, [r7, #7]	@ zero_extendqisi2
 864:../firmware/n32g430_std_periph_driver/src/n32g430_flash.c ****         (((uint32_t)(option_byte2_nBOOT0 | option_byte2_nBOOT1 | option_byte2_nSWBOOT0)) << FLASH_O
 1772              		.loc 1 864 11
 1773 005a B979     		ldrb	r1, [r7, #6]
 1774 005c 7B79     		ldrb	r3, [r7, #5]
 1775 005e 0B43     		orrs	r3, r3, r1
 1776 0060 D9B2     		uxtb	r1, r3
 1777 0062 3B79     		ldrb	r3, [r7, #4]
 1778 0064 0B43     		orrs	r3, r3, r1
 1779 0066 DBB2     		uxtb	r3, r3
 1780              		.loc 1 864 90
 1781 0068 1B04     		lsls	r3, r3, #16
 863:../firmware/n32g430_std_periph_driver/src/n32g430_flash.c ****         (((uint32_t)(option_byte2_nBOOT0 | option_byte2_nBOOT1 | option_byte2_nSWBOOT0)) << FLASH_O
 1782              		.loc 1 863 12
 1783 006a 0C49     		ldr	r1, .L106+4
 863:../firmware/n32g430_std_periph_driver/src/n32g430_flash.c ****         (((uint32_t)(option_byte2_nBOOT0 | option_byte2_nBOOT1 | option_byte2_nSWBOOT0)) << FLASH_O
 1784              		.loc 1 863 57
 1785 006c 1343     		orrs	r3, r3, r2
 863:../firmware/n32g430_std_periph_driver/src/n32g430_flash.c ****         (((uint32_t)(option_byte2_nBOOT0 | option_byte2_nBOOT1 | option_byte2_nSWBOOT0)) << FLASH_O
 1786              		.loc 1 863 25
 1787 006e CB60     		str	r3, [r1, #12]
 865:../firmware/n32g430_std_periph_driver/src/n32g430_flash.c ****         
 866:../firmware/n32g430_std_periph_driver/src/n32g430_flash.c ****         /* Wait for last operation to be completed */
 867:../firmware/n32g430_std_periph_driver/src/n32g430_flash.c ****         status_value = FLASH_Last_Operation_Wait(PROGRAM_TIMEOUT);
 1788              		.loc 1 867 24
 1789 0070 4FF40050 		mov	r0, #8192
 1790 0074 FFF7FEFF 		bl	FLASH_Last_Operation_Wait
 1791 0078 0346     		mov	r3, r0
 1792 007a FB73     		strb	r3, [r7, #15]
 868:../firmware/n32g430_std_periph_driver/src/n32g430_flash.c ****         if (status_value != FLASH_TIMEOUT)
 1793              		.loc 1 868 12
 1794 007c FB7B     		ldrb	r3, [r7, #15]	@ zero_extendqisi2
 1795 007e 072B     		cmp	r3, #7
ARM GAS  C:\Users\ZShuai\AppData\Local\Temp\cc3cdILj.s 			page 47


 1796 0080 05D0     		beq	.L105
 869:../firmware/n32g430_std_periph_driver/src/n32g430_flash.c ****         {
 870:../firmware/n32g430_std_periph_driver/src/n32g430_flash.c ****             /* If the program operation is completed, disable the OPTPG Bit */
 871:../firmware/n32g430_std_periph_driver/src/n32g430_flash.c ****             FLASH->CTRL &= FLASH_CTRL_RESET_OPTPG;
 1797              		.loc 1 871 18
 1798 0082 054B     		ldr	r3, .L106
 1799 0084 1B69     		ldr	r3, [r3, #16]
 1800 0086 044A     		ldr	r2, .L106
 1801              		.loc 1 871 25
 1802 0088 23F01003 		bic	r3, r3, #16
 1803 008c 1361     		str	r3, [r2, #16]
 1804              	.L105:
 872:../firmware/n32g430_std_periph_driver/src/n32g430_flash.c ****         }
 873:../firmware/n32g430_std_periph_driver/src/n32g430_flash.c ****         else
 874:../firmware/n32g430_std_periph_driver/src/n32g430_flash.c ****         {
 875:../firmware/n32g430_std_periph_driver/src/n32g430_flash.c ****             /*No process*/
 876:../firmware/n32g430_std_periph_driver/src/n32g430_flash.c ****         }
 877:../firmware/n32g430_std_periph_driver/src/n32g430_flash.c ****     }
 878:../firmware/n32g430_std_periph_driver/src/n32g430_flash.c ****     else
 879:../firmware/n32g430_std_periph_driver/src/n32g430_flash.c ****     {
 880:../firmware/n32g430_std_periph_driver/src/n32g430_flash.c ****         /*No process*/
 881:../firmware/n32g430_std_periph_driver/src/n32g430_flash.c ****     }
 882:../firmware/n32g430_std_periph_driver/src/n32g430_flash.c **** 
 883:../firmware/n32g430_std_periph_driver/src/n32g430_flash.c ****     /* Return the Option Byte program status_value */
 884:../firmware/n32g430_std_periph_driver/src/n32g430_flash.c ****     return status_value;
 1805              		.loc 1 884 12
 1806 008e FB7B     		ldrb	r3, [r7, #15]	@ zero_extendqisi2
 1807              	.L104:
 885:../firmware/n32g430_std_periph_driver/src/n32g430_flash.c **** }
 1808              		.loc 1 885 1
 1809 0090 1846     		mov	r0, r3
 1810 0092 1437     		adds	r7, r7, #20
 1811              	.LCFI116:
 1812              		.cfi_def_cfa_offset 12
 1813 0094 BD46     		mov	sp, r7
 1814              	.LCFI117:
 1815              		.cfi_def_cfa_register 13
 1816              		@ sp needed
 1817 0096 90BD     		pop	{r4, r7, pc}
 1818              	.L107:
 1819              		.align	2
 1820              	.L106:
 1821 0098 00200240 		.word	1073881088
 1822 009c 00F8FF1F 		.word	536868864
 1823              		.cfi_endproc
 1824              	.LFE154:
 1826              		.section	.text.FLASH_Read_Out_Protection_L1_Enable,"ax",%progbits
 1827              		.align	1
 1828              		.global	FLASH_Read_Out_Protection_L1_Enable
 1829              		.syntax unified
 1830              		.thumb
 1831              		.thumb_func
 1833              	FLASH_Read_Out_Protection_L1_Enable:
 1834              	.LFB155:
 886:../firmware/n32g430_std_periph_driver/src/n32g430_flash.c **** 
 887:../firmware/n32g430_std_periph_driver/src/n32g430_flash.c **** /**
 888:../firmware/n32g430_std_periph_driver/src/n32g430_flash.c **** *\*\name   FLASH_Read_Out_Protection_L1_Enable
ARM GAS  C:\Users\ZShuai\AppData\Local\Temp\cc3cdILj.s 			page 48


 889:../firmware/n32g430_std_periph_driver/src/n32g430_flash.c **** *\*\fun    Enables the read out protection L1.
 890:../firmware/n32g430_std_periph_driver/src/n32g430_flash.c **** *\*\note   If the user has already programmed the other option bytes before calling
 891:../firmware/n32g430_std_periph_driver/src/n32g430_flash.c **** *\*\       this function, he must re-program them since this function erases all option bytes.
 892:../firmware/n32g430_std_periph_driver/src/n32g430_flash.c **** *\*\       This function can be used for N32G430 devices.
 893:../firmware/n32g430_std_periph_driver/src/n32g430_flash.c **** *\*\param  none
 894:../firmware/n32g430_std_periph_driver/src/n32g430_flash.c **** *\*\return FLASH_STS : 
 895:../firmware/n32g430_std_periph_driver/src/n32g430_flash.c **** *\*\        - FLASH_BUSY
 896:../firmware/n32g430_std_periph_driver/src/n32g430_flash.c **** *\*\        - FLASH_ERR_PG
 897:../firmware/n32g430_std_periph_driver/src/n32g430_flash.c **** *\*\        - FLASH_ERR_WRP
 898:../firmware/n32g430_std_periph_driver/src/n32g430_flash.c **** *\*\        - FLASH_EOP
 899:../firmware/n32g430_std_periph_driver/src/n32g430_flash.c **** *\*\        - FLASH_ERR_RDP2
 900:../firmware/n32g430_std_periph_driver/src/n32g430_flash.c **** *\*\        - FLASH_TIMEOUT
 901:../firmware/n32g430_std_periph_driver/src/n32g430_flash.c **** **/
 902:../firmware/n32g430_std_periph_driver/src/n32g430_flash.c **** FLASH_STS FLASH_Read_Out_Protection_L1_Enable(void)
 903:../firmware/n32g430_std_periph_driver/src/n32g430_flash.c **** {
 1835              		.loc 1 903 1
 1836              		.cfi_startproc
 1837              		@ args = 0, pretend = 0, frame = 8
 1838              		@ frame_needed = 1, uses_anonymous_args = 0
 1839 0000 80B5     		push	{r7, lr}
 1840              	.LCFI118:
 1841              		.cfi_def_cfa_offset 8
 1842              		.cfi_offset 7, -8
 1843              		.cfi_offset 14, -4
 1844 0002 82B0     		sub	sp, sp, #8
 1845              	.LCFI119:
 1846              		.cfi_def_cfa_offset 16
 1847 0004 00AF     		add	r7, sp, #0
 1848              	.LCFI120:
 1849              		.cfi_def_cfa_register 7
 904:../firmware/n32g430_std_periph_driver/src/n32g430_flash.c ****     uint32_t user_temp;
 905:../firmware/n32g430_std_periph_driver/src/n32g430_flash.c ****     FLASH_STS status_value = FLASH_EOP;
 1850              		.loc 1 905 15
 1851 0006 0423     		movs	r3, #4
 1852 0008 FB71     		strb	r3, [r7, #7]
 906:../firmware/n32g430_std_periph_driver/src/n32g430_flash.c **** 
 907:../firmware/n32g430_std_periph_driver/src/n32g430_flash.c ****     user_temp = ((FLASH_OB_USER_MSK & FLASH->OB) << FLASH_OB_TO_USER_OFFSET);
 1853              		.loc 1 907 44
 1854 000a 314B     		ldr	r3, .L113
 1855 000c DB69     		ldr	r3, [r3, #28]
 1856              		.loc 1 907 50
 1857 000e 9B03     		lsls	r3, r3, #14
 1858              		.loc 1 907 15
 1859 0010 03F4FE03 		and	r3, r3, #8323072
 1860 0014 3B60     		str	r3, [r7]
 908:../firmware/n32g430_std_periph_driver/src/n32g430_flash.c **** 
 909:../firmware/n32g430_std_periph_driver/src/n32g430_flash.c ****     /* Get the actual read protection L2 Option Byte value */
 910:../firmware/n32g430_std_periph_driver/src/n32g430_flash.c ****     if (FLASH_Read_Out_Protection_L2_Status_Get() != RESET)
 1861              		.loc 1 910 9
 1862 0016 FFF7FEFF 		bl	FLASH_Read_Out_Protection_L2_Status_Get
 1863 001a 0346     		mov	r3, r0
 1864              		.loc 1 910 8
 1865 001c 002B     		cmp	r3, #0
 1866 001e 01D0     		beq	.L109
 911:../firmware/n32g430_std_periph_driver/src/n32g430_flash.c ****     {
 912:../firmware/n32g430_std_periph_driver/src/n32g430_flash.c ****         return FLASH_ERR_RDP2;
 1867              		.loc 1 912 16
ARM GAS  C:\Users\ZShuai\AppData\Local\Temp\cc3cdILj.s 			page 49


 1868 0020 0523     		movs	r3, #5
 1869 0022 50E0     		b	.L110
 1870              	.L109:
 913:../firmware/n32g430_std_periph_driver/src/n32g430_flash.c ****     }
 914:../firmware/n32g430_std_periph_driver/src/n32g430_flash.c ****     else
 915:../firmware/n32g430_std_periph_driver/src/n32g430_flash.c ****     {
 916:../firmware/n32g430_std_periph_driver/src/n32g430_flash.c ****         /*No process*/
 917:../firmware/n32g430_std_periph_driver/src/n32g430_flash.c ****     }
 918:../firmware/n32g430_std_periph_driver/src/n32g430_flash.c **** 
 919:../firmware/n32g430_std_periph_driver/src/n32g430_flash.c ****     /* Clears the FLASH's pending flags */
 920:../firmware/n32g430_std_periph_driver/src/n32g430_flash.c ****     FLASH_Flag_Status_Clear(FLASH_STS_CLRFLAG);
 1871              		.loc 1 920 5
 1872 0024 3420     		movs	r0, #52
 1873 0026 FFF7FEFF 		bl	FLASH_Flag_Status_Clear
 921:../firmware/n32g430_std_periph_driver/src/n32g430_flash.c ****     /* Wait for last operation to be completed */
 922:../firmware/n32g430_std_periph_driver/src/n32g430_flash.c ****     status_value = FLASH_Last_Operation_Wait(ERASE_TIMEOUT);
 1874              		.loc 1 922 20
 1875 002a 4FF43020 		mov	r0, #720896
 1876 002e FFF7FEFF 		bl	FLASH_Last_Operation_Wait
 1877 0032 0346     		mov	r3, r0
 1878 0034 FB71     		strb	r3, [r7, #7]
 923:../firmware/n32g430_std_periph_driver/src/n32g430_flash.c **** 
 924:../firmware/n32g430_std_periph_driver/src/n32g430_flash.c ****     if (status_value == FLASH_EOP)
 1879              		.loc 1 924 8
 1880 0036 FB79     		ldrb	r3, [r7, #7]	@ zero_extendqisi2
 1881 0038 042B     		cmp	r3, #4
 1882 003a 43D1     		bne	.L111
 925:../firmware/n32g430_std_periph_driver/src/n32g430_flash.c ****     {
 926:../firmware/n32g430_std_periph_driver/src/n32g430_flash.c ****         Option_Bytes_Unlock();
 1883              		.loc 1 926 9
 1884 003c FFF7FEFF 		bl	Option_Bytes_Unlock
 927:../firmware/n32g430_std_periph_driver/src/n32g430_flash.c ****         FLASH->CTRL |= FLASH_CTRL_SET_OPTER;
 1885              		.loc 1 927 14
 1886 0040 234B     		ldr	r3, .L113
 1887 0042 1B69     		ldr	r3, [r3, #16]
 1888 0044 224A     		ldr	r2, .L113
 1889              		.loc 1 927 21
 1890 0046 43F02003 		orr	r3, r3, #32
 1891 004a 1361     		str	r3, [r2, #16]
 928:../firmware/n32g430_std_periph_driver/src/n32g430_flash.c ****         FLASH->CTRL |= FLASH_CTRL_SET_START;
 1892              		.loc 1 928 14
 1893 004c 204B     		ldr	r3, .L113
 1894 004e 1B69     		ldr	r3, [r3, #16]
 1895 0050 1F4A     		ldr	r2, .L113
 1896              		.loc 1 928 21
 1897 0052 43F04003 		orr	r3, r3, #64
 1898 0056 1361     		str	r3, [r2, #16]
 929:../firmware/n32g430_std_periph_driver/src/n32g430_flash.c ****         /* Wait for last operation to be completed */
 930:../firmware/n32g430_std_periph_driver/src/n32g430_flash.c ****         status_value = FLASH_Last_Operation_Wait(ERASE_TIMEOUT);
 1899              		.loc 1 930 24
 1900 0058 4FF43020 		mov	r0, #720896
 1901 005c FFF7FEFF 		bl	FLASH_Last_Operation_Wait
 1902 0060 0346     		mov	r3, r0
 1903 0062 FB71     		strb	r3, [r7, #7]
 931:../firmware/n32g430_std_periph_driver/src/n32g430_flash.c ****         if (status_value == FLASH_EOP)
 1904              		.loc 1 931 12
 1905 0064 FB79     		ldrb	r3, [r7, #7]	@ zero_extendqisi2
ARM GAS  C:\Users\ZShuai\AppData\Local\Temp\cc3cdILj.s 			page 50


 1906 0066 042B     		cmp	r3, #4
 1907 0068 23D1     		bne	.L112
 932:../firmware/n32g430_std_periph_driver/src/n32g430_flash.c ****         {
 933:../firmware/n32g430_std_periph_driver/src/n32g430_flash.c ****             /* Clears the FLASH's pending flags */
 934:../firmware/n32g430_std_periph_driver/src/n32g430_flash.c ****             FLASH_Flag_Status_Clear(FLASH_STS_CLRFLAG);
 1908              		.loc 1 934 13
 1909 006a 3420     		movs	r0, #52
 1910 006c FFF7FEFF 		bl	FLASH_Flag_Status_Clear
 935:../firmware/n32g430_std_periph_driver/src/n32g430_flash.c **** 
 936:../firmware/n32g430_std_periph_driver/src/n32g430_flash.c ****             /* if the erase operation is completed, disable the OPTER Bit */
 937:../firmware/n32g430_std_periph_driver/src/n32g430_flash.c ****             FLASH->CTRL &= FLASH_CTRL_RESET_OPTER;
 1911              		.loc 1 937 18
 1912 0070 174B     		ldr	r3, .L113
 1913 0072 1B69     		ldr	r3, [r3, #16]
 1914 0074 164A     		ldr	r2, .L113
 1915              		.loc 1 937 25
 1916 0076 23F02003 		bic	r3, r3, #32
 1917 007a 1361     		str	r3, [r2, #16]
 938:../firmware/n32g430_std_periph_driver/src/n32g430_flash.c ****             /* Enable the Option Bytes Programming operation */
 939:../firmware/n32g430_std_periph_driver/src/n32g430_flash.c ****             FLASH->CTRL |= FLASH_CTRL_SET_OPTPG;
 1918              		.loc 1 939 18
 1919 007c 144B     		ldr	r3, .L113
 1920 007e 1B69     		ldr	r3, [r3, #16]
 1921 0080 134A     		ldr	r2, .L113
 1922              		.loc 1 939 25
 1923 0082 43F01003 		orr	r3, r3, #16
 1924 0086 1361     		str	r3, [r2, #16]
 940:../firmware/n32g430_std_periph_driver/src/n32g430_flash.c ****             /*enable new state of the ReadOut Protection*/
 941:../firmware/n32g430_std_periph_driver/src/n32g430_flash.c ****             OBT->USER_RDP = (FLASH_USER_MASK & user_temp);
 1925              		.loc 1 941 16
 1926 0088 124A     		ldr	r2, .L113+4
 1927              		.loc 1 941 46
 1928 008a 3B68     		ldr	r3, [r7]
 1929 008c 03F47F03 		and	r3, r3, #16711680
 1930              		.loc 1 941 27
 1931 0090 1360     		str	r3, [r2]
 942:../firmware/n32g430_std_periph_driver/src/n32g430_flash.c ****             /* Wait for last operation to be completed */
 943:../firmware/n32g430_std_periph_driver/src/n32g430_flash.c ****             status_value = FLASH_Last_Operation_Wait(ERASE_TIMEOUT);
 1932              		.loc 1 943 28
 1933 0092 4FF43020 		mov	r0, #720896
 1934 0096 FFF7FEFF 		bl	FLASH_Last_Operation_Wait
 1935 009a 0346     		mov	r3, r0
 1936 009c FB71     		strb	r3, [r7, #7]
 944:../firmware/n32g430_std_periph_driver/src/n32g430_flash.c **** 
 945:../firmware/n32g430_std_periph_driver/src/n32g430_flash.c ****             if (status_value != FLASH_TIMEOUT)
 1937              		.loc 1 945 16
 1938 009e FB79     		ldrb	r3, [r7, #7]	@ zero_extendqisi2
 1939 00a0 072B     		cmp	r3, #7
 1940 00a2 0FD0     		beq	.L111
 946:../firmware/n32g430_std_periph_driver/src/n32g430_flash.c ****             {
 947:../firmware/n32g430_std_periph_driver/src/n32g430_flash.c ****                 /* if the program operation is completed, disable the OPTPG Bit */
 948:../firmware/n32g430_std_periph_driver/src/n32g430_flash.c ****                 FLASH->CTRL &= FLASH_CTRL_RESET_OPTPG;
 1941              		.loc 1 948 22
 1942 00a4 0A4B     		ldr	r3, .L113
 1943 00a6 1B69     		ldr	r3, [r3, #16]
 1944 00a8 094A     		ldr	r2, .L113
 1945              		.loc 1 948 29
ARM GAS  C:\Users\ZShuai\AppData\Local\Temp\cc3cdILj.s 			page 51


 1946 00aa 23F01003 		bic	r3, r3, #16
 1947 00ae 1361     		str	r3, [r2, #16]
 1948 00b0 08E0     		b	.L111
 1949              	.L112:
 949:../firmware/n32g430_std_periph_driver/src/n32g430_flash.c ****             }
 950:../firmware/n32g430_std_periph_driver/src/n32g430_flash.c ****             else
 951:../firmware/n32g430_std_periph_driver/src/n32g430_flash.c ****             {
 952:../firmware/n32g430_std_periph_driver/src/n32g430_flash.c ****                 /*No process*/
 953:../firmware/n32g430_std_periph_driver/src/n32g430_flash.c ****             }
 954:../firmware/n32g430_std_periph_driver/src/n32g430_flash.c ****         }
 955:../firmware/n32g430_std_periph_driver/src/n32g430_flash.c ****         else
 956:../firmware/n32g430_std_periph_driver/src/n32g430_flash.c ****         {
 957:../firmware/n32g430_std_periph_driver/src/n32g430_flash.c ****             if (status_value != FLASH_TIMEOUT)
 1950              		.loc 1 957 16
 1951 00b2 FB79     		ldrb	r3, [r7, #7]	@ zero_extendqisi2
 1952 00b4 072B     		cmp	r3, #7
 1953 00b6 05D0     		beq	.L111
 958:../firmware/n32g430_std_periph_driver/src/n32g430_flash.c ****             {
 959:../firmware/n32g430_std_periph_driver/src/n32g430_flash.c ****                 /* Disable the OPTER Bit */
 960:../firmware/n32g430_std_periph_driver/src/n32g430_flash.c ****                 FLASH->CTRL &= FLASH_CTRL_RESET_OPTER;
 1954              		.loc 1 960 22
 1955 00b8 054B     		ldr	r3, .L113
 1956 00ba 1B69     		ldr	r3, [r3, #16]
 1957 00bc 044A     		ldr	r2, .L113
 1958              		.loc 1 960 29
 1959 00be 23F02003 		bic	r3, r3, #32
 1960 00c2 1361     		str	r3, [r2, #16]
 1961              	.L111:
 961:../firmware/n32g430_std_periph_driver/src/n32g430_flash.c ****             }
 962:../firmware/n32g430_std_periph_driver/src/n32g430_flash.c ****             else
 963:../firmware/n32g430_std_periph_driver/src/n32g430_flash.c ****             {
 964:../firmware/n32g430_std_periph_driver/src/n32g430_flash.c ****                 /*No process*/
 965:../firmware/n32g430_std_periph_driver/src/n32g430_flash.c ****             }
 966:../firmware/n32g430_std_periph_driver/src/n32g430_flash.c ****         }
 967:../firmware/n32g430_std_periph_driver/src/n32g430_flash.c ****     }
 968:../firmware/n32g430_std_periph_driver/src/n32g430_flash.c ****     else
 969:../firmware/n32g430_std_periph_driver/src/n32g430_flash.c ****     {
 970:../firmware/n32g430_std_periph_driver/src/n32g430_flash.c ****         /*No process*/
 971:../firmware/n32g430_std_periph_driver/src/n32g430_flash.c ****     }
 972:../firmware/n32g430_std_periph_driver/src/n32g430_flash.c ****     /* Return the protection operation status_value */
 973:../firmware/n32g430_std_periph_driver/src/n32g430_flash.c ****     return status_value;
 1962              		.loc 1 973 12
 1963 00c4 FB79     		ldrb	r3, [r7, #7]	@ zero_extendqisi2
 1964              	.L110:
 974:../firmware/n32g430_std_periph_driver/src/n32g430_flash.c **** }
 1965              		.loc 1 974 1
 1966 00c6 1846     		mov	r0, r3
 1967 00c8 0837     		adds	r7, r7, #8
 1968              	.LCFI121:
 1969              		.cfi_def_cfa_offset 8
 1970 00ca BD46     		mov	sp, r7
 1971              	.LCFI122:
 1972              		.cfi_def_cfa_register 13
 1973              		@ sp needed
 1974 00cc 80BD     		pop	{r7, pc}
 1975              	.L114:
 1976 00ce 00BF     		.align	2
ARM GAS  C:\Users\ZShuai\AppData\Local\Temp\cc3cdILj.s 			page 52


 1977              	.L113:
 1978 00d0 00200240 		.word	1073881088
 1979 00d4 00F8FF1F 		.word	536868864
 1980              		.cfi_endproc
 1981              	.LFE155:
 1983              		.section	.text.FLASH_Read_Out_Protection_L1_Disable,"ax",%progbits
 1984              		.align	1
 1985              		.global	FLASH_Read_Out_Protection_L1_Disable
 1986              		.syntax unified
 1987              		.thumb
 1988              		.thumb_func
 1990              	FLASH_Read_Out_Protection_L1_Disable:
 1991              	.LFB156:
 975:../firmware/n32g430_std_periph_driver/src/n32g430_flash.c **** 
 976:../firmware/n32g430_std_periph_driver/src/n32g430_flash.c **** 
 977:../firmware/n32g430_std_periph_driver/src/n32g430_flash.c **** /**
 978:../firmware/n32g430_std_periph_driver/src/n32g430_flash.c **** *\*\name   FLASH_Read_Out_Protection_L1_Disable
 979:../firmware/n32g430_std_periph_driver/src/n32g430_flash.c **** *\*\fun    Disables the read out protection L1.
 980:../firmware/n32g430_std_periph_driver/src/n32g430_flash.c **** *\*\note   If the user has already programmed the other option bytes before calling
 981:../firmware/n32g430_std_periph_driver/src/n32g430_flash.c **** *\*\       this function, he must re-program them since this function erases all option bytes.
 982:../firmware/n32g430_std_periph_driver/src/n32g430_flash.c **** *\*\       This function can be used for N32G430 devices.
 983:../firmware/n32g430_std_periph_driver/src/n32g430_flash.c **** *\*\param  none
 984:../firmware/n32g430_std_periph_driver/src/n32g430_flash.c **** *\*\return FLASH_STS : 
 985:../firmware/n32g430_std_periph_driver/src/n32g430_flash.c **** *\*\        - FLASH_BUSY
 986:../firmware/n32g430_std_periph_driver/src/n32g430_flash.c **** *\*\        - FLASH_ERR_PG
 987:../firmware/n32g430_std_periph_driver/src/n32g430_flash.c **** *\*\        - FLASH_ERR_WRP
 988:../firmware/n32g430_std_periph_driver/src/n32g430_flash.c **** *\*\        - FLASH_EOP
 989:../firmware/n32g430_std_periph_driver/src/n32g430_flash.c **** *\*\        - FLASH_ERR_RDP2
 990:../firmware/n32g430_std_periph_driver/src/n32g430_flash.c **** *\*\        - FLASH_TIMEOUT
 991:../firmware/n32g430_std_periph_driver/src/n32g430_flash.c **** **/
 992:../firmware/n32g430_std_periph_driver/src/n32g430_flash.c **** FLASH_STS FLASH_Read_Out_Protection_L1_Disable(void)
 993:../firmware/n32g430_std_periph_driver/src/n32g430_flash.c **** {
 1992              		.loc 1 993 1
 1993              		.cfi_startproc
 1994              		@ args = 0, pretend = 0, frame = 8
 1995              		@ frame_needed = 1, uses_anonymous_args = 0
 1996 0000 80B5     		push	{r7, lr}
 1997              	.LCFI123:
 1998              		.cfi_def_cfa_offset 8
 1999              		.cfi_offset 7, -8
 2000              		.cfi_offset 14, -4
 2001 0002 82B0     		sub	sp, sp, #8
 2002              	.LCFI124:
 2003              		.cfi_def_cfa_offset 16
 2004 0004 00AF     		add	r7, sp, #0
 2005              	.LCFI125:
 2006              		.cfi_def_cfa_register 7
 994:../firmware/n32g430_std_periph_driver/src/n32g430_flash.c ****     uint32_t user_temp;
 995:../firmware/n32g430_std_periph_driver/src/n32g430_flash.c ****     FLASH_STS status_value = FLASH_EOP;
 2007              		.loc 1 995 15
 2008 0006 0423     		movs	r3, #4
 2009 0008 FB71     		strb	r3, [r7, #7]
 996:../firmware/n32g430_std_periph_driver/src/n32g430_flash.c **** 
 997:../firmware/n32g430_std_periph_driver/src/n32g430_flash.c ****     user_temp = ((FLASH_OB_USER_MSK & FLASH->OB) << FLASH_OB_TO_USER_OFFSET);
 2010              		.loc 1 997 44
 2011 000a 314B     		ldr	r3, .L120
 2012 000c DB69     		ldr	r3, [r3, #28]
ARM GAS  C:\Users\ZShuai\AppData\Local\Temp\cc3cdILj.s 			page 53


 2013              		.loc 1 997 50
 2014 000e 9B03     		lsls	r3, r3, #14
 2015              		.loc 1 997 15
 2016 0010 03F4FE03 		and	r3, r3, #8323072
 2017 0014 3B60     		str	r3, [r7]
 998:../firmware/n32g430_std_periph_driver/src/n32g430_flash.c **** 
 999:../firmware/n32g430_std_periph_driver/src/n32g430_flash.c ****     /* Get the actual read protection L2 Option Byte value */
1000:../firmware/n32g430_std_periph_driver/src/n32g430_flash.c ****     if (FLASH_Read_Out_Protection_L2_Status_Get() != RESET)
 2018              		.loc 1 1000 9
 2019 0016 FFF7FEFF 		bl	FLASH_Read_Out_Protection_L2_Status_Get
 2020 001a 0346     		mov	r3, r0
 2021              		.loc 1 1000 8
 2022 001c 002B     		cmp	r3, #0
 2023 001e 01D0     		beq	.L116
1001:../firmware/n32g430_std_periph_driver/src/n32g430_flash.c ****     {
1002:../firmware/n32g430_std_periph_driver/src/n32g430_flash.c ****         return FLASH_ERR_RDP2;        
 2024              		.loc 1 1002 16
 2025 0020 0523     		movs	r3, #5
 2026 0022 50E0     		b	.L117
 2027              	.L116:
1003:../firmware/n32g430_std_periph_driver/src/n32g430_flash.c ****     }
1004:../firmware/n32g430_std_periph_driver/src/n32g430_flash.c ****     else
1005:../firmware/n32g430_std_periph_driver/src/n32g430_flash.c ****     {
1006:../firmware/n32g430_std_periph_driver/src/n32g430_flash.c ****         /*No process*/
1007:../firmware/n32g430_std_periph_driver/src/n32g430_flash.c ****     }
1008:../firmware/n32g430_std_periph_driver/src/n32g430_flash.c **** 
1009:../firmware/n32g430_std_periph_driver/src/n32g430_flash.c ****     /* Clears the FLASH's pending flags */
1010:../firmware/n32g430_std_periph_driver/src/n32g430_flash.c ****     FLASH_Flag_Status_Clear(FLASH_STS_CLRFLAG);
 2028              		.loc 1 1010 5
 2029 0024 3420     		movs	r0, #52
 2030 0026 FFF7FEFF 		bl	FLASH_Flag_Status_Clear
1011:../firmware/n32g430_std_periph_driver/src/n32g430_flash.c ****     /* Wait for last operation to be completed */
1012:../firmware/n32g430_std_periph_driver/src/n32g430_flash.c ****     status_value = FLASH_Last_Operation_Wait(ERASE_TIMEOUT);
 2031              		.loc 1 1012 20
 2032 002a 4FF43020 		mov	r0, #720896
 2033 002e FFF7FEFF 		bl	FLASH_Last_Operation_Wait
 2034 0032 0346     		mov	r3, r0
 2035 0034 FB71     		strb	r3, [r7, #7]
1013:../firmware/n32g430_std_periph_driver/src/n32g430_flash.c **** 
1014:../firmware/n32g430_std_periph_driver/src/n32g430_flash.c ****     if (status_value == FLASH_EOP)
 2036              		.loc 1 1014 8
 2037 0036 FB79     		ldrb	r3, [r7, #7]	@ zero_extendqisi2
 2038 0038 042B     		cmp	r3, #4
 2039 003a 43D1     		bne	.L118
1015:../firmware/n32g430_std_periph_driver/src/n32g430_flash.c ****     {
1016:../firmware/n32g430_std_periph_driver/src/n32g430_flash.c ****         Option_Bytes_Unlock();
 2040              		.loc 1 1016 9
 2041 003c FFF7FEFF 		bl	Option_Bytes_Unlock
1017:../firmware/n32g430_std_periph_driver/src/n32g430_flash.c ****         FLASH->CTRL |= FLASH_CTRL_SET_OPTER;
 2042              		.loc 1 1017 14
 2043 0040 234B     		ldr	r3, .L120
 2044 0042 1B69     		ldr	r3, [r3, #16]
 2045 0044 224A     		ldr	r2, .L120
 2046              		.loc 1 1017 21
 2047 0046 43F02003 		orr	r3, r3, #32
 2048 004a 1361     		str	r3, [r2, #16]
1018:../firmware/n32g430_std_periph_driver/src/n32g430_flash.c ****         FLASH->CTRL |= FLASH_CTRL_SET_START;
ARM GAS  C:\Users\ZShuai\AppData\Local\Temp\cc3cdILj.s 			page 54


 2049              		.loc 1 1018 14
 2050 004c 204B     		ldr	r3, .L120
 2051 004e 1B69     		ldr	r3, [r3, #16]
 2052 0050 1F4A     		ldr	r2, .L120
 2053              		.loc 1 1018 21
 2054 0052 43F04003 		orr	r3, r3, #64
 2055 0056 1361     		str	r3, [r2, #16]
1019:../firmware/n32g430_std_periph_driver/src/n32g430_flash.c ****         /* Wait for last operation to be completed */
1020:../firmware/n32g430_std_periph_driver/src/n32g430_flash.c ****         status_value = FLASH_Last_Operation_Wait(ERASE_TIMEOUT);
 2056              		.loc 1 1020 24
 2057 0058 4FF43020 		mov	r0, #720896
 2058 005c FFF7FEFF 		bl	FLASH_Last_Operation_Wait
 2059 0060 0346     		mov	r3, r0
 2060 0062 FB71     		strb	r3, [r7, #7]
1021:../firmware/n32g430_std_periph_driver/src/n32g430_flash.c ****         if (status_value == FLASH_EOP)
 2061              		.loc 1 1021 12
 2062 0064 FB79     		ldrb	r3, [r7, #7]	@ zero_extendqisi2
 2063 0066 042B     		cmp	r3, #4
 2064 0068 23D1     		bne	.L119
1022:../firmware/n32g430_std_periph_driver/src/n32g430_flash.c ****         {
1023:../firmware/n32g430_std_periph_driver/src/n32g430_flash.c ****             /* Clears the FLASH's pending flags */
1024:../firmware/n32g430_std_periph_driver/src/n32g430_flash.c ****             FLASH_Flag_Status_Clear(FLASH_STS_CLRFLAG);
 2065              		.loc 1 1024 13
 2066 006a 3420     		movs	r0, #52
 2067 006c FFF7FEFF 		bl	FLASH_Flag_Status_Clear
1025:../firmware/n32g430_std_periph_driver/src/n32g430_flash.c **** 
1026:../firmware/n32g430_std_periph_driver/src/n32g430_flash.c ****             /* if the erase operation is completed, disable the OPTER Bit */
1027:../firmware/n32g430_std_periph_driver/src/n32g430_flash.c ****             FLASH->CTRL &= FLASH_CTRL_RESET_OPTER;
 2068              		.loc 1 1027 18
 2069 0070 174B     		ldr	r3, .L120
 2070 0072 1B69     		ldr	r3, [r3, #16]
 2071 0074 164A     		ldr	r2, .L120
 2072              		.loc 1 1027 25
 2073 0076 23F02003 		bic	r3, r3, #32
 2074 007a 1361     		str	r3, [r2, #16]
1028:../firmware/n32g430_std_periph_driver/src/n32g430_flash.c ****             /* Enable the Option Bytes Programming operation */
1029:../firmware/n32g430_std_periph_driver/src/n32g430_flash.c ****             FLASH->CTRL |= FLASH_CTRL_SET_OPTPG;
 2075              		.loc 1 1029 18
 2076 007c 144B     		ldr	r3, .L120
 2077 007e 1B69     		ldr	r3, [r3, #16]
 2078 0080 134A     		ldr	r2, .L120
 2079              		.loc 1 1029 25
 2080 0082 43F01003 		orr	r3, r3, #16
 2081 0086 1361     		str	r3, [r2, #16]
1030:../firmware/n32g430_std_periph_driver/src/n32g430_flash.c ****             /* Disables the read out protection */
1031:../firmware/n32g430_std_periph_driver/src/n32g430_flash.c ****             OBT->USER_RDP = ((FLASH_L1_RDP_KEY & FLASH_RDP1_MASK) | user_temp);
 2082              		.loc 1 1031 16
 2083 0088 124A     		ldr	r2, .L120+4
 2084              		.loc 1 1031 67
 2085 008a 3B68     		ldr	r3, [r7]
 2086 008c 43F0A503 		orr	r3, r3, #165
 2087              		.loc 1 1031 27
 2088 0090 1360     		str	r3, [r2]
1032:../firmware/n32g430_std_periph_driver/src/n32g430_flash.c ****             /* Wait for last operation to be completed */
1033:../firmware/n32g430_std_periph_driver/src/n32g430_flash.c ****             status_value = FLASH_Last_Operation_Wait(ERASE_TIMEOUT);
 2089              		.loc 1 1033 28
 2090 0092 4FF43020 		mov	r0, #720896
ARM GAS  C:\Users\ZShuai\AppData\Local\Temp\cc3cdILj.s 			page 55


 2091 0096 FFF7FEFF 		bl	FLASH_Last_Operation_Wait
 2092 009a 0346     		mov	r3, r0
 2093 009c FB71     		strb	r3, [r7, #7]
1034:../firmware/n32g430_std_periph_driver/src/n32g430_flash.c **** 
1035:../firmware/n32g430_std_periph_driver/src/n32g430_flash.c ****             if (status_value != FLASH_TIMEOUT)
 2094              		.loc 1 1035 16
 2095 009e FB79     		ldrb	r3, [r7, #7]	@ zero_extendqisi2
 2096 00a0 072B     		cmp	r3, #7
 2097 00a2 0FD0     		beq	.L118
1036:../firmware/n32g430_std_periph_driver/src/n32g430_flash.c ****             {
1037:../firmware/n32g430_std_periph_driver/src/n32g430_flash.c ****                 /* if the program operation is completed, disable the OPTPG Bit */
1038:../firmware/n32g430_std_periph_driver/src/n32g430_flash.c ****                 FLASH->CTRL &= FLASH_CTRL_RESET_OPTPG;
 2098              		.loc 1 1038 22
 2099 00a4 0A4B     		ldr	r3, .L120
 2100 00a6 1B69     		ldr	r3, [r3, #16]
 2101 00a8 094A     		ldr	r2, .L120
 2102              		.loc 1 1038 29
 2103 00aa 23F01003 		bic	r3, r3, #16
 2104 00ae 1361     		str	r3, [r2, #16]
 2105 00b0 08E0     		b	.L118
 2106              	.L119:
1039:../firmware/n32g430_std_periph_driver/src/n32g430_flash.c ****             }
1040:../firmware/n32g430_std_periph_driver/src/n32g430_flash.c ****             else
1041:../firmware/n32g430_std_periph_driver/src/n32g430_flash.c ****             {
1042:../firmware/n32g430_std_periph_driver/src/n32g430_flash.c ****                 /*No process*/
1043:../firmware/n32g430_std_periph_driver/src/n32g430_flash.c ****             }
1044:../firmware/n32g430_std_periph_driver/src/n32g430_flash.c ****         }
1045:../firmware/n32g430_std_periph_driver/src/n32g430_flash.c ****         else
1046:../firmware/n32g430_std_periph_driver/src/n32g430_flash.c ****         {
1047:../firmware/n32g430_std_periph_driver/src/n32g430_flash.c ****             if (status_value != FLASH_TIMEOUT)
 2107              		.loc 1 1047 16
 2108 00b2 FB79     		ldrb	r3, [r7, #7]	@ zero_extendqisi2
 2109 00b4 072B     		cmp	r3, #7
 2110 00b6 05D0     		beq	.L118
1048:../firmware/n32g430_std_periph_driver/src/n32g430_flash.c ****             {
1049:../firmware/n32g430_std_periph_driver/src/n32g430_flash.c ****                 /* Disable the OPTER Bit */
1050:../firmware/n32g430_std_periph_driver/src/n32g430_flash.c ****                 FLASH->CTRL &= FLASH_CTRL_RESET_OPTER;
 2111              		.loc 1 1050 22
 2112 00b8 054B     		ldr	r3, .L120
 2113 00ba 1B69     		ldr	r3, [r3, #16]
 2114 00bc 044A     		ldr	r2, .L120
 2115              		.loc 1 1050 29
 2116 00be 23F02003 		bic	r3, r3, #32
 2117 00c2 1361     		str	r3, [r2, #16]
 2118              	.L118:
1051:../firmware/n32g430_std_periph_driver/src/n32g430_flash.c ****             }
1052:../firmware/n32g430_std_periph_driver/src/n32g430_flash.c ****             else
1053:../firmware/n32g430_std_periph_driver/src/n32g430_flash.c ****             {
1054:../firmware/n32g430_std_periph_driver/src/n32g430_flash.c ****                 /*No process*/
1055:../firmware/n32g430_std_periph_driver/src/n32g430_flash.c ****             }
1056:../firmware/n32g430_std_periph_driver/src/n32g430_flash.c ****         }
1057:../firmware/n32g430_std_periph_driver/src/n32g430_flash.c ****     }
1058:../firmware/n32g430_std_periph_driver/src/n32g430_flash.c ****     else
1059:../firmware/n32g430_std_periph_driver/src/n32g430_flash.c ****     {
1060:../firmware/n32g430_std_periph_driver/src/n32g430_flash.c ****         /*No process*/
1061:../firmware/n32g430_std_periph_driver/src/n32g430_flash.c ****     }
1062:../firmware/n32g430_std_periph_driver/src/n32g430_flash.c ****     /* Return the protection operation status_value */
ARM GAS  C:\Users\ZShuai\AppData\Local\Temp\cc3cdILj.s 			page 56


1063:../firmware/n32g430_std_periph_driver/src/n32g430_flash.c ****     return status_value;
 2119              		.loc 1 1063 12
 2120 00c4 FB79     		ldrb	r3, [r7, #7]	@ zero_extendqisi2
 2121              	.L117:
1064:../firmware/n32g430_std_periph_driver/src/n32g430_flash.c **** }
 2122              		.loc 1 1064 1
 2123 00c6 1846     		mov	r0, r3
 2124 00c8 0837     		adds	r7, r7, #8
 2125              	.LCFI126:
 2126              		.cfi_def_cfa_offset 8
 2127 00ca BD46     		mov	sp, r7
 2128              	.LCFI127:
 2129              		.cfi_def_cfa_register 13
 2130              		@ sp needed
 2131 00cc 80BD     		pop	{r7, pc}
 2132              	.L121:
 2133 00ce 00BF     		.align	2
 2134              	.L120:
 2135 00d0 00200240 		.word	1073881088
 2136 00d4 00F8FF1F 		.word	536868864
 2137              		.cfi_endproc
 2138              	.LFE156:
 2140              		.section	.text.FLASH_Read_Out_Protection_L2_Enable,"ax",%progbits
 2141              		.align	1
 2142              		.global	FLASH_Read_Out_Protection_L2_Enable
 2143              		.syntax unified
 2144              		.thumb
 2145              		.thumb_func
 2147              	FLASH_Read_Out_Protection_L2_Enable:
 2148              	.LFB157:
1065:../firmware/n32g430_std_periph_driver/src/n32g430_flash.c **** 
1066:../firmware/n32g430_std_periph_driver/src/n32g430_flash.c **** /**
1067:../firmware/n32g430_std_periph_driver/src/n32g430_flash.c **** *\*\name   FLASH_Read_Out_Protection_L2_Enable
1068:../firmware/n32g430_std_periph_driver/src/n32g430_flash.c **** *\*\fun    Enables or disables the read out protection L2.
1069:../firmware/n32g430_std_periph_driver/src/n32g430_flash.c **** *\*\note   If the user has already programmed the other option bytes before calling
1070:../firmware/n32g430_std_periph_driver/src/n32g430_flash.c **** *\*\       this function, he must re-program them since this function erases all option bytes.
1071:../firmware/n32g430_std_periph_driver/src/n32g430_flash.c **** *\*\       This function can be used for N32G430 devices.
1072:../firmware/n32g430_std_periph_driver/src/n32g430_flash.c **** *\*\param  none
1073:../firmware/n32g430_std_periph_driver/src/n32g430_flash.c **** *\*\return FLASH_STS : 
1074:../firmware/n32g430_std_periph_driver/src/n32g430_flash.c **** *\*\        - FLASH_BUSY
1075:../firmware/n32g430_std_periph_driver/src/n32g430_flash.c **** *\*\        - FLASH_ERR_PG 
1076:../firmware/n32g430_std_periph_driver/src/n32g430_flash.c **** *\*\        - FLASH_ERR_WRP
1077:../firmware/n32g430_std_periph_driver/src/n32g430_flash.c **** *\*\        - FLASH_EOP
1078:../firmware/n32g430_std_periph_driver/src/n32g430_flash.c **** *\*\        - FLASH_ERR_RDP2
1079:../firmware/n32g430_std_periph_driver/src/n32g430_flash.c **** *\*\        - FLASH_TIMEOUT
1080:../firmware/n32g430_std_periph_driver/src/n32g430_flash.c **** **/
1081:../firmware/n32g430_std_periph_driver/src/n32g430_flash.c **** FLASH_STS FLASH_Read_Out_Protection_L2_Enable(void)
1082:../firmware/n32g430_std_periph_driver/src/n32g430_flash.c **** {
 2149              		.loc 1 1082 1
 2150              		.cfi_startproc
 2151              		@ args = 0, pretend = 0, frame = 8
 2152              		@ frame_needed = 1, uses_anonymous_args = 0
 2153 0000 80B5     		push	{r7, lr}
 2154              	.LCFI128:
 2155              		.cfi_def_cfa_offset 8
 2156              		.cfi_offset 7, -8
 2157              		.cfi_offset 14, -4
ARM GAS  C:\Users\ZShuai\AppData\Local\Temp\cc3cdILj.s 			page 57


 2158 0002 82B0     		sub	sp, sp, #8
 2159              	.LCFI129:
 2160              		.cfi_def_cfa_offset 16
 2161 0004 00AF     		add	r7, sp, #0
 2162              	.LCFI130:
 2163              		.cfi_def_cfa_register 7
1083:../firmware/n32g430_std_periph_driver/src/n32g430_flash.c ****     uint32_t user_temp;
1084:../firmware/n32g430_std_periph_driver/src/n32g430_flash.c ****     FLASH_STS status_value = FLASH_EOP;
 2164              		.loc 1 1084 15
 2165 0006 0423     		movs	r3, #4
 2166 0008 FB70     		strb	r3, [r7, #3]
1085:../firmware/n32g430_std_periph_driver/src/n32g430_flash.c **** 
1086:../firmware/n32g430_std_periph_driver/src/n32g430_flash.c ****     user_temp = ((FLASH_OB_USER_MSK & FLASH->OB) << FLASH_OB_TO_USER_OFFSET);
 2167              		.loc 1 1086 44
 2168 000a 3C4B     		ldr	r3, .L129
 2169 000c DB69     		ldr	r3, [r3, #28]
 2170              		.loc 1 1086 50
 2171 000e 9B03     		lsls	r3, r3, #14
 2172              		.loc 1 1086 15
 2173 0010 03F4FE03 		and	r3, r3, #8323072
 2174 0014 7B60     		str	r3, [r7, #4]
1087:../firmware/n32g430_std_periph_driver/src/n32g430_flash.c ****   
1088:../firmware/n32g430_std_periph_driver/src/n32g430_flash.c ****     /* Get the actual read protection L1 Option Byte value */
1089:../firmware/n32g430_std_periph_driver/src/n32g430_flash.c ****     if (FLASH_Read_Out_Protection_Status_Get() == RESET)
 2175              		.loc 1 1089 9
 2176 0016 FFF7FEFF 		bl	FLASH_Read_Out_Protection_Status_Get
 2177 001a 0346     		mov	r3, r0
 2178              		.loc 1 1089 8
 2179 001c 002B     		cmp	r3, #0
 2180 001e 03D1     		bne	.L123
1090:../firmware/n32g430_std_periph_driver/src/n32g430_flash.c ****     {
1091:../firmware/n32g430_std_periph_driver/src/n32g430_flash.c ****         user_temp |= (FLASH_L1_RDP_KEY & FLASH_RDP1_MASK);
 2181              		.loc 1 1091 19
 2182 0020 7B68     		ldr	r3, [r7, #4]
 2183 0022 43F0A503 		orr	r3, r3, #165
 2184 0026 7B60     		str	r3, [r7, #4]
 2185              	.L123:
1092:../firmware/n32g430_std_periph_driver/src/n32g430_flash.c ****     }
1093:../firmware/n32g430_std_periph_driver/src/n32g430_flash.c ****     else
1094:../firmware/n32g430_std_periph_driver/src/n32g430_flash.c ****     {
1095:../firmware/n32g430_std_periph_driver/src/n32g430_flash.c ****         /*No process*/
1096:../firmware/n32g430_std_periph_driver/src/n32g430_flash.c ****     }
1097:../firmware/n32g430_std_periph_driver/src/n32g430_flash.c ****     /* Get the actual read protection L2 Option Byte value */
1098:../firmware/n32g430_std_periph_driver/src/n32g430_flash.c ****     if (FLASH_Read_Out_Protection_L2_Status_Get() != RESET)
 2186              		.loc 1 1098 9
 2187 0028 FFF7FEFF 		bl	FLASH_Read_Out_Protection_L2_Status_Get
 2188 002c 0346     		mov	r3, r0
 2189              		.loc 1 1098 8
 2190 002e 002B     		cmp	r3, #0
 2191 0030 01D0     		beq	.L124
1099:../firmware/n32g430_std_periph_driver/src/n32g430_flash.c ****     {
1100:../firmware/n32g430_std_periph_driver/src/n32g430_flash.c ****         return FLASH_ERR_RDP2;
 2192              		.loc 1 1100 16
 2193 0032 0523     		movs	r3, #5
 2194 0034 5DE0     		b	.L125
 2195              	.L124:
1101:../firmware/n32g430_std_periph_driver/src/n32g430_flash.c ****     }
ARM GAS  C:\Users\ZShuai\AppData\Local\Temp\cc3cdILj.s 			page 58


1102:../firmware/n32g430_std_periph_driver/src/n32g430_flash.c ****     else
1103:../firmware/n32g430_std_periph_driver/src/n32g430_flash.c ****     {
1104:../firmware/n32g430_std_periph_driver/src/n32g430_flash.c ****         /*No process*/
1105:../firmware/n32g430_std_periph_driver/src/n32g430_flash.c ****     }
1106:../firmware/n32g430_std_periph_driver/src/n32g430_flash.c **** 
1107:../firmware/n32g430_std_periph_driver/src/n32g430_flash.c ****     /* Clears the FLASH's pending flags */
1108:../firmware/n32g430_std_periph_driver/src/n32g430_flash.c ****     FLASH_Flag_Status_Clear(FLASH_STS_CLRFLAG);
 2196              		.loc 1 1108 5
 2197 0036 3420     		movs	r0, #52
 2198 0038 FFF7FEFF 		bl	FLASH_Flag_Status_Clear
1109:../firmware/n32g430_std_periph_driver/src/n32g430_flash.c ****     /* Wait for last operation to be completed */
1110:../firmware/n32g430_std_periph_driver/src/n32g430_flash.c ****     status_value = FLASH_Last_Operation_Wait(ERASE_TIMEOUT);
 2199              		.loc 1 1110 20
 2200 003c 4FF43020 		mov	r0, #720896
 2201 0040 FFF7FEFF 		bl	FLASH_Last_Operation_Wait
 2202 0044 0346     		mov	r3, r0
 2203 0046 FB70     		strb	r3, [r7, #3]
1111:../firmware/n32g430_std_periph_driver/src/n32g430_flash.c **** 
1112:../firmware/n32g430_std_periph_driver/src/n32g430_flash.c ****     if (status_value == FLASH_EOP)
 2204              		.loc 1 1112 8
 2205 0048 FB78     		ldrb	r3, [r7, #3]	@ zero_extendqisi2
 2206 004a 042B     		cmp	r3, #4
 2207 004c 50D1     		bne	.L126
1113:../firmware/n32g430_std_periph_driver/src/n32g430_flash.c ****     {
1114:../firmware/n32g430_std_periph_driver/src/n32g430_flash.c ****         Option_Bytes_Unlock();
 2208              		.loc 1 1114 9
 2209 004e FFF7FEFF 		bl	Option_Bytes_Unlock
1115:../firmware/n32g430_std_periph_driver/src/n32g430_flash.c ****         FLASH->CTRL |= FLASH_CTRL_SET_OPTER;
 2210              		.loc 1 1115 14
 2211 0052 2A4B     		ldr	r3, .L129
 2212 0054 1B69     		ldr	r3, [r3, #16]
 2213 0056 294A     		ldr	r2, .L129
 2214              		.loc 1 1115 21
 2215 0058 43F02003 		orr	r3, r3, #32
 2216 005c 1361     		str	r3, [r2, #16]
1116:../firmware/n32g430_std_periph_driver/src/n32g430_flash.c ****         FLASH->CTRL |= FLASH_CTRL_SET_START;
 2217              		.loc 1 1116 14
 2218 005e 274B     		ldr	r3, .L129
 2219 0060 1B69     		ldr	r3, [r3, #16]
 2220 0062 264A     		ldr	r2, .L129
 2221              		.loc 1 1116 21
 2222 0064 43F04003 		orr	r3, r3, #64
 2223 0068 1361     		str	r3, [r2, #16]
1117:../firmware/n32g430_std_periph_driver/src/n32g430_flash.c ****         /* Wait for last operation to be completed */
1118:../firmware/n32g430_std_periph_driver/src/n32g430_flash.c ****         status_value = FLASH_Last_Operation_Wait(ERASE_TIMEOUT);
 2224              		.loc 1 1118 24
 2225 006a 4FF43020 		mov	r0, #720896
 2226 006e FFF7FEFF 		bl	FLASH_Last_Operation_Wait
 2227 0072 0346     		mov	r3, r0
 2228 0074 FB70     		strb	r3, [r7, #3]
1119:../firmware/n32g430_std_periph_driver/src/n32g430_flash.c ****         if (status_value == FLASH_EOP)
 2229              		.loc 1 1119 12
 2230 0076 FB78     		ldrb	r3, [r7, #3]	@ zero_extendqisi2
 2231 0078 042B     		cmp	r3, #4
 2232 007a 30D1     		bne	.L127
1120:../firmware/n32g430_std_periph_driver/src/n32g430_flash.c ****         {
1121:../firmware/n32g430_std_periph_driver/src/n32g430_flash.c ****             /* Clears the FLASH's pending flags */
ARM GAS  C:\Users\ZShuai\AppData\Local\Temp\cc3cdILj.s 			page 59


1122:../firmware/n32g430_std_periph_driver/src/n32g430_flash.c ****             FLASH_Flag_Status_Clear(FLASH_STS_CLRFLAG); 
 2233              		.loc 1 1122 13
 2234 007c 3420     		movs	r0, #52
 2235 007e FFF7FEFF 		bl	FLASH_Flag_Status_Clear
1123:../firmware/n32g430_std_periph_driver/src/n32g430_flash.c **** 
1124:../firmware/n32g430_std_periph_driver/src/n32g430_flash.c ****             /* if the erase operation is completed, disable the OPTER Bit */
1125:../firmware/n32g430_std_periph_driver/src/n32g430_flash.c ****             FLASH->CTRL &= FLASH_CTRL_RESET_OPTER;
 2236              		.loc 1 1125 18
 2237 0082 1E4B     		ldr	r3, .L129
 2238 0084 1B69     		ldr	r3, [r3, #16]
 2239 0086 1D4A     		ldr	r2, .L129
 2240              		.loc 1 1125 25
 2241 0088 23F02003 		bic	r3, r3, #32
 2242 008c 1361     		str	r3, [r2, #16]
1126:../firmware/n32g430_std_periph_driver/src/n32g430_flash.c ****             /* Enable the Option Bytes Programming operation */
1127:../firmware/n32g430_std_periph_driver/src/n32g430_flash.c ****             FLASH->CTRL |= FLASH_CTRL_SET_OPTPG;
 2243              		.loc 1 1127 18
 2244 008e 1B4B     		ldr	r3, .L129
 2245 0090 1B69     		ldr	r3, [r3, #16]
 2246 0092 1A4A     		ldr	r2, .L129
 2247              		.loc 1 1127 25
 2248 0094 43F01003 		orr	r3, r3, #16
 2249 0098 1361     		str	r3, [r2, #16]
1128:../firmware/n32g430_std_periph_driver/src/n32g430_flash.c **** 
1129:../firmware/n32g430_std_periph_driver/src/n32g430_flash.c ****             OBT->USER_RDP = user_temp;
 2250              		.loc 1 1129 16
 2251 009a 194A     		ldr	r2, .L129+4
 2252              		.loc 1 1129 27
 2253 009c 7B68     		ldr	r3, [r7, #4]
 2254 009e 1360     		str	r3, [r2]
1130:../firmware/n32g430_std_periph_driver/src/n32g430_flash.c ****             /* Wait for last operation to be completed */
1131:../firmware/n32g430_std_periph_driver/src/n32g430_flash.c ****             status_value = FLASH_Last_Operation_Wait(ERASE_TIMEOUT);
 2255              		.loc 1 1131 28
 2256 00a0 4FF43020 		mov	r0, #720896
 2257 00a4 FFF7FEFF 		bl	FLASH_Last_Operation_Wait
 2258 00a8 0346     		mov	r3, r0
 2259 00aa FB70     		strb	r3, [r7, #3]
1132:../firmware/n32g430_std_periph_driver/src/n32g430_flash.c **** 
1133:../firmware/n32g430_std_periph_driver/src/n32g430_flash.c ****             if (status_value == FLASH_EOP)
 2260              		.loc 1 1133 16
 2261 00ac FB78     		ldrb	r3, [r7, #3]	@ zero_extendqisi2
 2262 00ae 042B     		cmp	r3, #4
 2263 00b0 0BD1     		bne	.L128
1134:../firmware/n32g430_std_periph_driver/src/n32g430_flash.c ****             {
1135:../firmware/n32g430_std_periph_driver/src/n32g430_flash.c ****                 /* Clears the FLASH's pending flags */
1136:../firmware/n32g430_std_periph_driver/src/n32g430_flash.c ****                 FLASH_Flag_Status_Clear(FLASH_STS_CLRFLAG);
 2264              		.loc 1 1136 17
 2265 00b2 3420     		movs	r0, #52
 2266 00b4 FFF7FEFF 		bl	FLASH_Flag_Status_Clear
1137:../firmware/n32g430_std_periph_driver/src/n32g430_flash.c **** 
1138:../firmware/n32g430_std_periph_driver/src/n32g430_flash.c ****                 /* Enables the read out protection L2 */
1139:../firmware/n32g430_std_periph_driver/src/n32g430_flash.c ****                 OBT->USER2_RDP2 = FLASH_L2_RDP_KEY;
 2267              		.loc 1 1139 20
 2268 00b8 114B     		ldr	r3, .L129+4
 2269              		.loc 1 1139 33
 2270 00ba 124A     		ldr	r2, .L129+8
 2271 00bc DA60     		str	r2, [r3, #12]
ARM GAS  C:\Users\ZShuai\AppData\Local\Temp\cc3cdILj.s 			page 60


1140:../firmware/n32g430_std_periph_driver/src/n32g430_flash.c **** 
1141:../firmware/n32g430_std_periph_driver/src/n32g430_flash.c ****                 /* Wait for last operation to be completed */
1142:../firmware/n32g430_std_periph_driver/src/n32g430_flash.c ****                 status_value = FLASH_Last_Operation_Wait(ERASE_TIMEOUT);
 2272              		.loc 1 1142 32
 2273 00be 4FF43020 		mov	r0, #720896
 2274 00c2 FFF7FEFF 		bl	FLASH_Last_Operation_Wait
 2275 00c6 0346     		mov	r3, r0
 2276 00c8 FB70     		strb	r3, [r7, #3]
 2277              	.L128:
1143:../firmware/n32g430_std_periph_driver/src/n32g430_flash.c ****             }
1144:../firmware/n32g430_std_periph_driver/src/n32g430_flash.c ****             else
1145:../firmware/n32g430_std_periph_driver/src/n32g430_flash.c ****             {
1146:../firmware/n32g430_std_periph_driver/src/n32g430_flash.c ****                 /*No process*/
1147:../firmware/n32g430_std_periph_driver/src/n32g430_flash.c ****             }
1148:../firmware/n32g430_std_periph_driver/src/n32g430_flash.c **** 
1149:../firmware/n32g430_std_periph_driver/src/n32g430_flash.c ****             if (status_value != FLASH_TIMEOUT)
 2278              		.loc 1 1149 16
 2279 00ca FB78     		ldrb	r3, [r7, #3]	@ zero_extendqisi2
 2280 00cc 072B     		cmp	r3, #7
 2281 00ce 0FD0     		beq	.L126
1150:../firmware/n32g430_std_periph_driver/src/n32g430_flash.c ****             {
1151:../firmware/n32g430_std_periph_driver/src/n32g430_flash.c ****                 /* if the program operation is completed, disable the OPTPG Bit */
1152:../firmware/n32g430_std_periph_driver/src/n32g430_flash.c ****                 FLASH->CTRL &= FLASH_CTRL_RESET_OPTPG;
 2282              		.loc 1 1152 22
 2283 00d0 0A4B     		ldr	r3, .L129
 2284 00d2 1B69     		ldr	r3, [r3, #16]
 2285 00d4 094A     		ldr	r2, .L129
 2286              		.loc 1 1152 29
 2287 00d6 23F01003 		bic	r3, r3, #16
 2288 00da 1361     		str	r3, [r2, #16]
 2289 00dc 08E0     		b	.L126
 2290              	.L127:
1153:../firmware/n32g430_std_periph_driver/src/n32g430_flash.c ****             }
1154:../firmware/n32g430_std_periph_driver/src/n32g430_flash.c ****             else
1155:../firmware/n32g430_std_periph_driver/src/n32g430_flash.c ****             {
1156:../firmware/n32g430_std_periph_driver/src/n32g430_flash.c ****                 /*No process*/
1157:../firmware/n32g430_std_periph_driver/src/n32g430_flash.c ****             }
1158:../firmware/n32g430_std_periph_driver/src/n32g430_flash.c ****         }
1159:../firmware/n32g430_std_periph_driver/src/n32g430_flash.c ****         else
1160:../firmware/n32g430_std_periph_driver/src/n32g430_flash.c ****         {
1161:../firmware/n32g430_std_periph_driver/src/n32g430_flash.c ****             if (status_value != FLASH_TIMEOUT)
 2291              		.loc 1 1161 16
 2292 00de FB78     		ldrb	r3, [r7, #3]	@ zero_extendqisi2
 2293 00e0 072B     		cmp	r3, #7
 2294 00e2 05D0     		beq	.L126
1162:../firmware/n32g430_std_periph_driver/src/n32g430_flash.c ****             {
1163:../firmware/n32g430_std_periph_driver/src/n32g430_flash.c ****                 /* Disable the OPTER Bit */
1164:../firmware/n32g430_std_periph_driver/src/n32g430_flash.c ****                 FLASH->CTRL &= FLASH_CTRL_RESET_OPTER;
 2295              		.loc 1 1164 22
 2296 00e4 054B     		ldr	r3, .L129
 2297 00e6 1B69     		ldr	r3, [r3, #16]
 2298 00e8 044A     		ldr	r2, .L129
 2299              		.loc 1 1164 29
 2300 00ea 23F02003 		bic	r3, r3, #32
 2301 00ee 1361     		str	r3, [r2, #16]
 2302              	.L126:
1165:../firmware/n32g430_std_periph_driver/src/n32g430_flash.c ****             }
ARM GAS  C:\Users\ZShuai\AppData\Local\Temp\cc3cdILj.s 			page 61


1166:../firmware/n32g430_std_periph_driver/src/n32g430_flash.c ****             else
1167:../firmware/n32g430_std_periph_driver/src/n32g430_flash.c ****             {
1168:../firmware/n32g430_std_periph_driver/src/n32g430_flash.c ****                 /*No process*/
1169:../firmware/n32g430_std_periph_driver/src/n32g430_flash.c ****             }
1170:../firmware/n32g430_std_periph_driver/src/n32g430_flash.c ****         }
1171:../firmware/n32g430_std_periph_driver/src/n32g430_flash.c ****     }
1172:../firmware/n32g430_std_periph_driver/src/n32g430_flash.c ****     else
1173:../firmware/n32g430_std_periph_driver/src/n32g430_flash.c ****     {
1174:../firmware/n32g430_std_periph_driver/src/n32g430_flash.c ****         /*No process*/
1175:../firmware/n32g430_std_periph_driver/src/n32g430_flash.c ****     }
1176:../firmware/n32g430_std_periph_driver/src/n32g430_flash.c ****     /* Return the protection operation status_value */
1177:../firmware/n32g430_std_periph_driver/src/n32g430_flash.c ****     return status_value;
 2303              		.loc 1 1177 12
 2304 00f0 FB78     		ldrb	r3, [r7, #3]	@ zero_extendqisi2
 2305              	.L125:
1178:../firmware/n32g430_std_periph_driver/src/n32g430_flash.c **** }
 2306              		.loc 1 1178 1
 2307 00f2 1846     		mov	r0, r3
 2308 00f4 0837     		adds	r7, r7, #8
 2309              	.LCFI131:
 2310              		.cfi_def_cfa_offset 8
 2311 00f6 BD46     		mov	sp, r7
 2312              	.LCFI132:
 2313              		.cfi_def_cfa_register 13
 2314              		@ sp needed
 2315 00f8 80BD     		pop	{r7, pc}
 2316              	.L130:
 2317 00fa 00BF     		.align	2
 2318              	.L129:
 2319 00fc 00200240 		.word	1073881088
 2320 0100 00F8FF1F 		.word	536868864
 2321 0104 CC33FFFF 		.word	-52276
 2322              		.cfi_endproc
 2323              	.LFE157:
 2325              		.section	.text.FLASH_Option_Bytes_User_Get,"ax",%progbits
 2326              		.align	1
 2327              		.global	FLASH_Option_Bytes_User_Get
 2328              		.syntax unified
 2329              		.thumb
 2330              		.thumb_func
 2332              	FLASH_Option_Bytes_User_Get:
 2333              	.LFB158:
1179:../firmware/n32g430_std_periph_driver/src/n32g430_flash.c **** 
1180:../firmware/n32g430_std_periph_driver/src/n32g430_flash.c **** /**
1181:../firmware/n32g430_std_periph_driver/src/n32g430_flash.c **** *\*\name   FLASH_Option_Bytes_User_Get
1182:../firmware/n32g430_std_periph_driver/src/n32g430_flash.c **** *\*\fun    Returns the FLASH User Option Bytes values.
1183:../firmware/n32g430_std_periph_driver/src/n32g430_flash.c **** *\*\note   This function can be used for N32G430 devices.
1184:../firmware/n32g430_std_periph_driver/src/n32g430_flash.c **** *\*\param  option_byte_bit
1185:../firmware/n32g430_std_periph_driver/src/n32g430_flash.c **** *\*\            - FLASH_OB_IWDG_SW
1186:../firmware/n32g430_std_periph_driver/src/n32g430_flash.c **** *\*\            - FLASH_OB_STOP_NORST
1187:../firmware/n32g430_std_periph_driver/src/n32g430_flash.c **** *\*\            - FLASH_OB_STDBY_NORST
1188:../firmware/n32g430_std_periph_driver/src/n32g430_flash.c **** *\*\            - FLASH_OB_IWDG_STOP0_NOFRZ
1189:../firmware/n32g430_std_periph_driver/src/n32g430_flash.c **** *\*\            - FLASH_OB_IWDG_STOP2_NOFRZ
1190:../firmware/n32g430_std_periph_driver/src/n32g430_flash.c **** *\*\            - FLASH_OB_IWDG_STDBY_NOFRZ
1191:../firmware/n32g430_std_periph_driver/src/n32g430_flash.c **** *\*\            - FLASH_OB_IWDG_SLEEP_NOFRZ
1192:../firmware/n32g430_std_periph_driver/src/n32g430_flash.c **** *\*\return FlagStatus :
1193:../firmware/n32g430_std_periph_driver/src/n32g430_flash.c **** *\*\            - SET
ARM GAS  C:\Users\ZShuai\AppData\Local\Temp\cc3cdILj.s 			page 62


1194:../firmware/n32g430_std_periph_driver/src/n32g430_flash.c **** *\*\            - RESET
1195:../firmware/n32g430_std_periph_driver/src/n32g430_flash.c **** **/
1196:../firmware/n32g430_std_periph_driver/src/n32g430_flash.c **** FlagStatus FLASH_Option_Bytes_User_Get(uint32_t option_byte_bit)
1197:../firmware/n32g430_std_periph_driver/src/n32g430_flash.c **** {
 2334              		.loc 1 1197 1
 2335              		.cfi_startproc
 2336              		@ args = 0, pretend = 0, frame = 8
 2337              		@ frame_needed = 1, uses_anonymous_args = 0
 2338              		@ link register save eliminated.
 2339 0000 80B4     		push	{r7}
 2340              	.LCFI133:
 2341              		.cfi_def_cfa_offset 4
 2342              		.cfi_offset 7, -4
 2343 0002 83B0     		sub	sp, sp, #12
 2344              	.LCFI134:
 2345              		.cfi_def_cfa_offset 16
 2346 0004 00AF     		add	r7, sp, #0
 2347              	.LCFI135:
 2348              		.cfi_def_cfa_register 7
 2349 0006 7860     		str	r0, [r7, #4]
1198:../firmware/n32g430_std_periph_driver/src/n32g430_flash.c ****     if(((FLASH->OB >> FLASH_OB_OFFSET) & option_byte_bit) != (uint32_t)RESET)
 2350              		.loc 1 1198 15
 2351 0008 074B     		ldr	r3, .L134
 2352 000a DB69     		ldr	r3, [r3, #28]
 2353              		.loc 1 1198 20
 2354 000c 9A08     		lsrs	r2, r3, #2
 2355              		.loc 1 1198 40
 2356 000e 7B68     		ldr	r3, [r7, #4]
 2357 0010 1340     		ands	r3, r3, r2
 2358              		.loc 1 1198 7
 2359 0012 002B     		cmp	r3, #0
 2360 0014 01D0     		beq	.L132
1199:../firmware/n32g430_std_periph_driver/src/n32g430_flash.c ****     {
1200:../firmware/n32g430_std_periph_driver/src/n32g430_flash.c ****         return SET;
 2361              		.loc 1 1200 16
 2362 0016 0123     		movs	r3, #1
 2363 0018 00E0     		b	.L133
 2364              	.L132:
1201:../firmware/n32g430_std_periph_driver/src/n32g430_flash.c ****     }
1202:../firmware/n32g430_std_periph_driver/src/n32g430_flash.c ****     else
1203:../firmware/n32g430_std_periph_driver/src/n32g430_flash.c ****     {
1204:../firmware/n32g430_std_periph_driver/src/n32g430_flash.c ****         return RESET;
 2365              		.loc 1 1204 16
 2366 001a 0023     		movs	r3, #0
 2367              	.L133:
1205:../firmware/n32g430_std_periph_driver/src/n32g430_flash.c ****     }
1206:../firmware/n32g430_std_periph_driver/src/n32g430_flash.c **** }
 2368              		.loc 1 1206 1
 2369 001c 1846     		mov	r0, r3
 2370 001e 0C37     		adds	r7, r7, #12
 2371              	.LCFI136:
 2372              		.cfi_def_cfa_offset 4
 2373 0020 BD46     		mov	sp, r7
 2374              	.LCFI137:
 2375              		.cfi_def_cfa_register 13
 2376              		@ sp needed
 2377 0022 5DF8047B 		ldr	r7, [sp], #4
ARM GAS  C:\Users\ZShuai\AppData\Local\Temp\cc3cdILj.s 			page 63


 2378              	.LCFI138:
 2379              		.cfi_restore 7
 2380              		.cfi_def_cfa_offset 0
 2381 0026 7047     		bx	lr
 2382              	.L135:
 2383              		.align	2
 2384              	.L134:
 2385 0028 00200240 		.word	1073881088
 2386              		.cfi_endproc
 2387              	.LFE158:
 2389              		.section	.text.FLASH_Option_Bytes2_User_Get,"ax",%progbits
 2390              		.align	1
 2391              		.global	FLASH_Option_Bytes2_User_Get
 2392              		.syntax unified
 2393              		.thumb
 2394              		.thumb_func
 2396              	FLASH_Option_Bytes2_User_Get:
 2397              	.LFB159:
1207:../firmware/n32g430_std_periph_driver/src/n32g430_flash.c **** 
1208:../firmware/n32g430_std_periph_driver/src/n32g430_flash.c **** 
1209:../firmware/n32g430_std_periph_driver/src/n32g430_flash.c **** /**
1210:../firmware/n32g430_std_periph_driver/src/n32g430_flash.c **** *\*\name   FLASH_Option_Bytes2_User_Get
1211:../firmware/n32g430_std_periph_driver/src/n32g430_flash.c **** *\*\fun    Returns the FLASH User Option Bytes2 values.
1212:../firmware/n32g430_std_periph_driver/src/n32g430_flash.c **** *\*\note   This function can be used for N32G430 devices.
1213:../firmware/n32g430_std_periph_driver/src/n32g430_flash.c **** *\*\param  boot_bit :
1214:../firmware/n32g430_std_periph_driver/src/n32g430_flash.c **** *\*\            - FLASH_OB2_nBOOT1_MASK
1215:../firmware/n32g430_std_periph_driver/src/n32g430_flash.c **** *\*\            - FLASH_OB2_nSWBOOT0_MASK
1216:../firmware/n32g430_std_periph_driver/src/n32g430_flash.c **** *\*\            - FLASH_OB2_nBOOT0_MASK
1217:../firmware/n32g430_std_periph_driver/src/n32g430_flash.c **** *\*\return FlagStatus :
1218:../firmware/n32g430_std_periph_driver/src/n32g430_flash.c **** *\*\            - SET
1219:../firmware/n32g430_std_periph_driver/src/n32g430_flash.c **** *\*\            - RESET
1220:../firmware/n32g430_std_periph_driver/src/n32g430_flash.c **** **/
1221:../firmware/n32g430_std_periph_driver/src/n32g430_flash.c **** FlagStatus FLASH_Option_Bytes2_User_Get(uint32_t boot_bit)
1222:../firmware/n32g430_std_periph_driver/src/n32g430_flash.c **** {
 2398              		.loc 1 1222 1
 2399              		.cfi_startproc
 2400              		@ args = 0, pretend = 0, frame = 8
 2401              		@ frame_needed = 1, uses_anonymous_args = 0
 2402              		@ link register save eliminated.
 2403 0000 80B4     		push	{r7}
 2404              	.LCFI139:
 2405              		.cfi_def_cfa_offset 4
 2406              		.cfi_offset 7, -4
 2407 0002 83B0     		sub	sp, sp, #12
 2408              	.LCFI140:
 2409              		.cfi_def_cfa_offset 16
 2410 0004 00AF     		add	r7, sp, #0
 2411              	.LCFI141:
 2412              		.cfi_def_cfa_register 7
 2413 0006 7860     		str	r0, [r7, #4]
1223:../firmware/n32g430_std_periph_driver/src/n32g430_flash.c ****     if ((FLASH->OB2 & boot_bit) != (uint32_t)RESET)
 2414              		.loc 1 1223 15
 2415 0008 074B     		ldr	r3, .L139
 2416 000a 9A69     		ldr	r2, [r3, #24]
 2417              		.loc 1 1223 21
 2418 000c 7B68     		ldr	r3, [r7, #4]
 2419 000e 1340     		ands	r3, r3, r2
ARM GAS  C:\Users\ZShuai\AppData\Local\Temp\cc3cdILj.s 			page 64


 2420              		.loc 1 1223 8
 2421 0010 002B     		cmp	r3, #0
 2422 0012 01D0     		beq	.L137
1224:../firmware/n32g430_std_periph_driver/src/n32g430_flash.c ****     {
1225:../firmware/n32g430_std_periph_driver/src/n32g430_flash.c ****         return SET;
 2423              		.loc 1 1225 16
 2424 0014 0123     		movs	r3, #1
 2425 0016 00E0     		b	.L138
 2426              	.L137:
1226:../firmware/n32g430_std_periph_driver/src/n32g430_flash.c ****     }
1227:../firmware/n32g430_std_periph_driver/src/n32g430_flash.c ****     else
1228:../firmware/n32g430_std_periph_driver/src/n32g430_flash.c ****     {
1229:../firmware/n32g430_std_periph_driver/src/n32g430_flash.c ****         return RESET;
 2427              		.loc 1 1229 16
 2428 0018 0023     		movs	r3, #0
 2429              	.L138:
1230:../firmware/n32g430_std_periph_driver/src/n32g430_flash.c ****     }
1231:../firmware/n32g430_std_periph_driver/src/n32g430_flash.c **** }
 2430              		.loc 1 1231 1
 2431 001a 1846     		mov	r0, r3
 2432 001c 0C37     		adds	r7, r7, #12
 2433              	.LCFI142:
 2434              		.cfi_def_cfa_offset 4
 2435 001e BD46     		mov	sp, r7
 2436              	.LCFI143:
 2437              		.cfi_def_cfa_register 13
 2438              		@ sp needed
 2439 0020 5DF8047B 		ldr	r7, [sp], #4
 2440              	.LCFI144:
 2441              		.cfi_restore 7
 2442              		.cfi_def_cfa_offset 0
 2443 0024 7047     		bx	lr
 2444              	.L140:
 2445 0026 00BF     		.align	2
 2446              	.L139:
 2447 0028 00200240 		.word	1073881088
 2448              		.cfi_endproc
 2449              	.LFE159:
 2451              		.section	.text.FLASH_Option_Bytes_Data0_Get,"ax",%progbits
 2452              		.align	1
 2453              		.global	FLASH_Option_Bytes_Data0_Get
 2454              		.syntax unified
 2455              		.thumb
 2456              		.thumb_func
 2458              	FLASH_Option_Bytes_Data0_Get:
 2459              	.LFB160:
1232:../firmware/n32g430_std_periph_driver/src/n32g430_flash.c **** 
1233:../firmware/n32g430_std_periph_driver/src/n32g430_flash.c **** /**
1234:../firmware/n32g430_std_periph_driver/src/n32g430_flash.c **** *\*\name   FLASH_Option_Bytes_Data0_Get
1235:../firmware/n32g430_std_periph_driver/src/n32g430_flash.c **** *\*\fun    Returns the FLASH User Option Bytes values.
1236:../firmware/n32g430_std_periph_driver/src/n32g430_flash.c **** *\*\note   This function can be used for N32G430 devices.
1237:../firmware/n32g430_std_periph_driver/src/n32g430_flash.c **** *\*\param  none
1238:../firmware/n32g430_std_periph_driver/src/n32g430_flash.c **** *\*\return data0:
1239:../firmware/n32g430_std_periph_driver/src/n32g430_flash.c **** *\*\            - 0x00 to 0xFF.
1240:../firmware/n32g430_std_periph_driver/src/n32g430_flash.c **** **/
1241:../firmware/n32g430_std_periph_driver/src/n32g430_flash.c **** uint32_t FLASH_Option_Bytes_Data0_Get(void)
1242:../firmware/n32g430_std_periph_driver/src/n32g430_flash.c **** {
ARM GAS  C:\Users\ZShuai\AppData\Local\Temp\cc3cdILj.s 			page 65


 2460              		.loc 1 1242 1
 2461              		.cfi_startproc
 2462              		@ args = 0, pretend = 0, frame = 0
 2463              		@ frame_needed = 1, uses_anonymous_args = 0
 2464              		@ link register save eliminated.
 2465 0000 80B4     		push	{r7}
 2466              	.LCFI145:
 2467              		.cfi_def_cfa_offset 4
 2468              		.cfi_offset 7, -4
 2469 0002 00AF     		add	r7, sp, #0
 2470              	.LCFI146:
 2471              		.cfi_def_cfa_register 7
1243:../firmware/n32g430_std_periph_driver/src/n32g430_flash.c ****     /* Return the User Option Byte2 */
1244:../firmware/n32g430_std_periph_driver/src/n32g430_flash.c ****     return (uint32_t)((FLASH->OB & FLASH_OB_DATA0_MASK) >> FLASH_OB_DATA0_OFFSET);
 2472              		.loc 1 1244 29
 2473 0004 044B     		ldr	r3, .L143
 2474 0006 DB69     		ldr	r3, [r3, #28]
 2475              		.loc 1 1244 12
 2476 0008 9B0A     		lsrs	r3, r3, #10
 2477 000a DBB2     		uxtb	r3, r3
1245:../firmware/n32g430_std_periph_driver/src/n32g430_flash.c **** }
 2478              		.loc 1 1245 1
 2479 000c 1846     		mov	r0, r3
 2480 000e BD46     		mov	sp, r7
 2481              	.LCFI147:
 2482              		.cfi_def_cfa_register 13
 2483              		@ sp needed
 2484 0010 5DF8047B 		ldr	r7, [sp], #4
 2485              	.LCFI148:
 2486              		.cfi_restore 7
 2487              		.cfi_def_cfa_offset 0
 2488 0014 7047     		bx	lr
 2489              	.L144:
 2490 0016 00BF     		.align	2
 2491              	.L143:
 2492 0018 00200240 		.word	1073881088
 2493              		.cfi_endproc
 2494              	.LFE160:
 2496              		.section	.text.FLASH_Option_Bytes_Data1_Get,"ax",%progbits
 2497              		.align	1
 2498              		.global	FLASH_Option_Bytes_Data1_Get
 2499              		.syntax unified
 2500              		.thumb
 2501              		.thumb_func
 2503              	FLASH_Option_Bytes_Data1_Get:
 2504              	.LFB161:
1246:../firmware/n32g430_std_periph_driver/src/n32g430_flash.c **** 
1247:../firmware/n32g430_std_periph_driver/src/n32g430_flash.c **** /**
1248:../firmware/n32g430_std_periph_driver/src/n32g430_flash.c **** *\*\name   FLASH_Option_Bytes_Data1_Get
1249:../firmware/n32g430_std_periph_driver/src/n32g430_flash.c **** *\*\fun    Returns the FLASH User Option Bytes values.
1250:../firmware/n32g430_std_periph_driver/src/n32g430_flash.c **** *\*\note   This function can be used for N32G430 devices.
1251:../firmware/n32g430_std_periph_driver/src/n32g430_flash.c **** *\*\param  none
1252:../firmware/n32g430_std_periph_driver/src/n32g430_flash.c **** *\*\return data1:
1253:../firmware/n32g430_std_periph_driver/src/n32g430_flash.c **** *\*\            - 0x00 to 0xFF.
1254:../firmware/n32g430_std_periph_driver/src/n32g430_flash.c **** **/
1255:../firmware/n32g430_std_periph_driver/src/n32g430_flash.c **** uint32_t FLASH_Option_Bytes_Data1_Get(void)
1256:../firmware/n32g430_std_periph_driver/src/n32g430_flash.c **** {
ARM GAS  C:\Users\ZShuai\AppData\Local\Temp\cc3cdILj.s 			page 66


 2505              		.loc 1 1256 1
 2506              		.cfi_startproc
 2507              		@ args = 0, pretend = 0, frame = 0
 2508              		@ frame_needed = 1, uses_anonymous_args = 0
 2509              		@ link register save eliminated.
 2510 0000 80B4     		push	{r7}
 2511              	.LCFI149:
 2512              		.cfi_def_cfa_offset 4
 2513              		.cfi_offset 7, -4
 2514 0002 00AF     		add	r7, sp, #0
 2515              	.LCFI150:
 2516              		.cfi_def_cfa_register 7
1257:../firmware/n32g430_std_periph_driver/src/n32g430_flash.c ****     /* Return the User Option Byte2 */
1258:../firmware/n32g430_std_periph_driver/src/n32g430_flash.c ****     return (uint32_t)((FLASH->OB & FLASH_OB_DATA1_MASK) >> FLASH_OB_DATA1_OFFSET);
 2517              		.loc 1 1258 29
 2518 0004 044B     		ldr	r3, .L147
 2519 0006 DB69     		ldr	r3, [r3, #28]
 2520              		.loc 1 1258 12
 2521 0008 9B0C     		lsrs	r3, r3, #18
 2522 000a DBB2     		uxtb	r3, r3
1259:../firmware/n32g430_std_periph_driver/src/n32g430_flash.c **** }
 2523              		.loc 1 1259 1
 2524 000c 1846     		mov	r0, r3
 2525 000e BD46     		mov	sp, r7
 2526              	.LCFI151:
 2527              		.cfi_def_cfa_register 13
 2528              		@ sp needed
 2529 0010 5DF8047B 		ldr	r7, [sp], #4
 2530              	.LCFI152:
 2531              		.cfi_restore 7
 2532              		.cfi_def_cfa_offset 0
 2533 0014 7047     		bx	lr
 2534              	.L148:
 2535 0016 00BF     		.align	2
 2536              	.L147:
 2537 0018 00200240 		.word	1073881088
 2538              		.cfi_endproc
 2539              	.LFE161:
 2541              		.section	.text.FLASH_Option_Bytes_Write_Protection_Get,"ax",%progbits
 2542              		.align	1
 2543              		.global	FLASH_Option_Bytes_Write_Protection_Get
 2544              		.syntax unified
 2545              		.thumb
 2546              		.thumb_func
 2548              	FLASH_Option_Bytes_Write_Protection_Get:
 2549              	.LFB162:
1260:../firmware/n32g430_std_periph_driver/src/n32g430_flash.c **** 
1261:../firmware/n32g430_std_periph_driver/src/n32g430_flash.c **** /**
1262:../firmware/n32g430_std_periph_driver/src/n32g430_flash.c **** *\*\name   FLASH_Option_Bytes_Write_Protection_Get
1263:../firmware/n32g430_std_periph_driver/src/n32g430_flash.c **** *\*\fun    Returns the FLASH Write Protection Option Bytes Register value.
1264:../firmware/n32g430_std_periph_driver/src/n32g430_flash.c **** *\*\note   This function can be used for N32G430 devices.
1265:../firmware/n32g430_std_periph_driver/src/n32g430_flash.c **** *\*\param  none
1266:../firmware/n32g430_std_periph_driver/src/n32g430_flash.c **** *\*\return The FLASH Write Protection  Option Bytes Register value :
1267:../firmware/n32g430_std_periph_driver/src/n32g430_flash.c **** *\*\            - Bit15 - Bit0 write-protects pages (31,30) - page (0,1) 
1268:../firmware/n32g430_std_periph_driver/src/n32g430_flash.c **** **/
1269:../firmware/n32g430_std_periph_driver/src/n32g430_flash.c **** uint32_t FLASH_Option_Bytes_Write_Protection_Get(void)
1270:../firmware/n32g430_std_periph_driver/src/n32g430_flash.c **** {
ARM GAS  C:\Users\ZShuai\AppData\Local\Temp\cc3cdILj.s 			page 67


 2550              		.loc 1 1270 1
 2551              		.cfi_startproc
 2552              		@ args = 0, pretend = 0, frame = 0
 2553              		@ frame_needed = 1, uses_anonymous_args = 0
 2554              		@ link register save eliminated.
 2555 0000 80B4     		push	{r7}
 2556              	.LCFI153:
 2557              		.cfi_def_cfa_offset 4
 2558              		.cfi_offset 7, -4
 2559 0002 00AF     		add	r7, sp, #0
 2560              	.LCFI154:
 2561              		.cfi_def_cfa_register 7
1271:../firmware/n32g430_std_periph_driver/src/n32g430_flash.c ****     /* Return the Flash write protection Register value */
1272:../firmware/n32g430_std_periph_driver/src/n32g430_flash.c ****     return (uint32_t)(FLASH->WRP);
 2562              		.loc 1 1272 28
 2563 0004 034B     		ldr	r3, .L151
 2564              		.loc 1 1272 12
 2565 0006 1B6A     		ldr	r3, [r3, #32]
1273:../firmware/n32g430_std_periph_driver/src/n32g430_flash.c **** }
 2566              		.loc 1 1273 1
 2567 0008 1846     		mov	r0, r3
 2568 000a BD46     		mov	sp, r7
 2569              	.LCFI155:
 2570              		.cfi_def_cfa_register 13
 2571              		@ sp needed
 2572 000c 5DF8047B 		ldr	r7, [sp], #4
 2573              	.LCFI156:
 2574              		.cfi_restore 7
 2575              		.cfi_def_cfa_offset 0
 2576 0010 7047     		bx	lr
 2577              	.L152:
 2578 0012 00BF     		.align	2
 2579              	.L151:
 2580 0014 00200240 		.word	1073881088
 2581              		.cfi_endproc
 2582              	.LFE162:
 2584              		.section	.text.FLASH_Read_Out_Protection_Status_Get,"ax",%progbits
 2585              		.align	1
 2586              		.global	FLASH_Read_Out_Protection_Status_Get
 2587              		.syntax unified
 2588              		.thumb
 2589              		.thumb_func
 2591              	FLASH_Read_Out_Protection_Status_Get:
 2592              	.LFB163:
1274:../firmware/n32g430_std_periph_driver/src/n32g430_flash.c **** 
1275:../firmware/n32g430_std_periph_driver/src/n32g430_flash.c **** /**
1276:../firmware/n32g430_std_periph_driver/src/n32g430_flash.c **** *\*\name   FLASH_Read_Out_Protection_Status_Get
1277:../firmware/n32g430_std_periph_driver/src/n32g430_flash.c **** *\*\fun    Checks whether the FLASH Read Out Protection status_value is set or not.
1278:../firmware/n32g430_std_periph_driver/src/n32g430_flash.c **** *\*\note   This function can be used for N32G430 devices.
1279:../firmware/n32g430_std_periph_driver/src/n32g430_flash.c **** *\*\param  none
1280:../firmware/n32g430_std_periph_driver/src/n32g430_flash.c **** *\*\return FlagStatus :
1281:../firmware/n32g430_std_periph_driver/src/n32g430_flash.c **** *\*\        - SET
1282:../firmware/n32g430_std_periph_driver/src/n32g430_flash.c **** *\*\        - RESET
1283:../firmware/n32g430_std_periph_driver/src/n32g430_flash.c **** **/
1284:../firmware/n32g430_std_periph_driver/src/n32g430_flash.c **** FlagStatus FLASH_Read_Out_Protection_Status_Get(void)
1285:../firmware/n32g430_std_periph_driver/src/n32g430_flash.c **** {
 2593              		.loc 1 1285 1
ARM GAS  C:\Users\ZShuai\AppData\Local\Temp\cc3cdILj.s 			page 68


 2594              		.cfi_startproc
 2595              		@ args = 0, pretend = 0, frame = 0
 2596              		@ frame_needed = 1, uses_anonymous_args = 0
 2597              		@ link register save eliminated.
 2598 0000 80B4     		push	{r7}
 2599              	.LCFI157:
 2600              		.cfi_def_cfa_offset 4
 2601              		.cfi_offset 7, -4
 2602 0002 00AF     		add	r7, sp, #0
 2603              	.LCFI158:
 2604              		.cfi_def_cfa_register 7
1286:../firmware/n32g430_std_periph_driver/src/n32g430_flash.c ****     if ((FLASH->OB & FLASH_RDPRTL1_MSK) != (uint32_t)RESET)
 2605              		.loc 1 1286 15
 2606 0004 064B     		ldr	r3, .L156
 2607 0006 DB69     		ldr	r3, [r3, #28]
 2608              		.loc 1 1286 20
 2609 0008 03F00203 		and	r3, r3, #2
 2610              		.loc 1 1286 8
 2611 000c 002B     		cmp	r3, #0
 2612 000e 01D0     		beq	.L154
1287:../firmware/n32g430_std_periph_driver/src/n32g430_flash.c ****     {
1288:../firmware/n32g430_std_periph_driver/src/n32g430_flash.c ****         return SET;
 2613              		.loc 1 1288 16
 2614 0010 0123     		movs	r3, #1
 2615 0012 00E0     		b	.L155
 2616              	.L154:
1289:../firmware/n32g430_std_periph_driver/src/n32g430_flash.c ****     }
1290:../firmware/n32g430_std_periph_driver/src/n32g430_flash.c ****     else
1291:../firmware/n32g430_std_periph_driver/src/n32g430_flash.c ****     {
1292:../firmware/n32g430_std_periph_driver/src/n32g430_flash.c ****         return RESET;
 2617              		.loc 1 1292 16
 2618 0014 0023     		movs	r3, #0
 2619              	.L155:
1293:../firmware/n32g430_std_periph_driver/src/n32g430_flash.c ****     }
1294:../firmware/n32g430_std_periph_driver/src/n32g430_flash.c **** }
 2620              		.loc 1 1294 1
 2621 0016 1846     		mov	r0, r3
 2622 0018 BD46     		mov	sp, r7
 2623              	.LCFI159:
 2624              		.cfi_def_cfa_register 13
 2625              		@ sp needed
 2626 001a 5DF8047B 		ldr	r7, [sp], #4
 2627              	.LCFI160:
 2628              		.cfi_restore 7
 2629              		.cfi_def_cfa_offset 0
 2630 001e 7047     		bx	lr
 2631              	.L157:
 2632              		.align	2
 2633              	.L156:
 2634 0020 00200240 		.word	1073881088
 2635              		.cfi_endproc
 2636              	.LFE163:
 2638              		.section	.text.FLASH_Read_Out_Protection_L2_Status_Get,"ax",%progbits
 2639              		.align	1
 2640              		.global	FLASH_Read_Out_Protection_L2_Status_Get
 2641              		.syntax unified
 2642              		.thumb
ARM GAS  C:\Users\ZShuai\AppData\Local\Temp\cc3cdILj.s 			page 69


 2643              		.thumb_func
 2645              	FLASH_Read_Out_Protection_L2_Status_Get:
 2646              	.LFB164:
1295:../firmware/n32g430_std_periph_driver/src/n32g430_flash.c **** 
1296:../firmware/n32g430_std_periph_driver/src/n32g430_flash.c **** /**
1297:../firmware/n32g430_std_periph_driver/src/n32g430_flash.c **** *\*\name   FLASH_Read_Out_Protection_L2_Status_Get
1298:../firmware/n32g430_std_periph_driver/src/n32g430_flash.c **** *\*\fun    Checks whether the FLASH Read Out Protection L2 status_value is set or not.
1299:../firmware/n32g430_std_periph_driver/src/n32g430_flash.c **** *\*\note   This function can be used for N32G430 devices.
1300:../firmware/n32g430_std_periph_driver/src/n32g430_flash.c **** *\*\param  none
1301:../firmware/n32g430_std_periph_driver/src/n32g430_flash.c **** *\*\return FlagStatus :
1302:../firmware/n32g430_std_periph_driver/src/n32g430_flash.c **** *\*\        - SET
1303:../firmware/n32g430_std_periph_driver/src/n32g430_flash.c **** *\*\        - RESET
1304:../firmware/n32g430_std_periph_driver/src/n32g430_flash.c **** **/
1305:../firmware/n32g430_std_periph_driver/src/n32g430_flash.c **** FlagStatus FLASH_Read_Out_Protection_L2_Status_Get(void)
1306:../firmware/n32g430_std_periph_driver/src/n32g430_flash.c **** {
 2647              		.loc 1 1306 1
 2648              		.cfi_startproc
 2649              		@ args = 0, pretend = 0, frame = 0
 2650              		@ frame_needed = 1, uses_anonymous_args = 0
 2651              		@ link register save eliminated.
 2652 0000 80B4     		push	{r7}
 2653              	.LCFI161:
 2654              		.cfi_def_cfa_offset 4
 2655              		.cfi_offset 7, -4
 2656 0002 00AF     		add	r7, sp, #0
 2657              	.LCFI162:
 2658              		.cfi_def_cfa_register 7
1307:../firmware/n32g430_std_periph_driver/src/n32g430_flash.c ****     if ((FLASH->OB & FLASH_RDPRTL2_MSK) != (uint32_t)RESET)
 2659              		.loc 1 1307 15
 2660 0004 054B     		ldr	r3, .L161
 2661 0006 DB69     		ldr	r3, [r3, #28]
 2662              		.loc 1 1307 8
 2663 0008 002B     		cmp	r3, #0
 2664 000a 01DA     		bge	.L159
1308:../firmware/n32g430_std_periph_driver/src/n32g430_flash.c ****     {
1309:../firmware/n32g430_std_periph_driver/src/n32g430_flash.c ****         return SET;
 2665              		.loc 1 1309 16
 2666 000c 0123     		movs	r3, #1
 2667 000e 00E0     		b	.L160
 2668              	.L159:
1310:../firmware/n32g430_std_periph_driver/src/n32g430_flash.c ****     }
1311:../firmware/n32g430_std_periph_driver/src/n32g430_flash.c ****     else
1312:../firmware/n32g430_std_periph_driver/src/n32g430_flash.c ****     {
1313:../firmware/n32g430_std_periph_driver/src/n32g430_flash.c ****         return RESET;
 2669              		.loc 1 1313 16
 2670 0010 0023     		movs	r3, #0
 2671              	.L160:
1314:../firmware/n32g430_std_periph_driver/src/n32g430_flash.c ****     }
1315:../firmware/n32g430_std_periph_driver/src/n32g430_flash.c **** }
 2672              		.loc 1 1315 1
 2673 0012 1846     		mov	r0, r3
 2674 0014 BD46     		mov	sp, r7
 2675              	.LCFI163:
 2676              		.cfi_def_cfa_register 13
 2677              		@ sp needed
 2678 0016 5DF8047B 		ldr	r7, [sp], #4
 2679              	.LCFI164:
ARM GAS  C:\Users\ZShuai\AppData\Local\Temp\cc3cdILj.s 			page 70


 2680              		.cfi_restore 7
 2681              		.cfi_def_cfa_offset 0
 2682 001a 7047     		bx	lr
 2683              	.L162:
 2684              		.align	2
 2685              	.L161:
 2686 001c 00200240 		.word	1073881088
 2687              		.cfi_endproc
 2688              	.LFE164:
 2690              		.section	.text.FLASH_Prefetch_Buffer_Status_Get,"ax",%progbits
 2691              		.align	1
 2692              		.global	FLASH_Prefetch_Buffer_Status_Get
 2693              		.syntax unified
 2694              		.thumb
 2695              		.thumb_func
 2697              	FLASH_Prefetch_Buffer_Status_Get:
 2698              	.LFB165:
1316:../firmware/n32g430_std_periph_driver/src/n32g430_flash.c **** 
1317:../firmware/n32g430_std_periph_driver/src/n32g430_flash.c **** /**
1318:../firmware/n32g430_std_periph_driver/src/n32g430_flash.c **** *\*\name   FLASH_Prefetch_Buffer_Status_Get
1319:../firmware/n32g430_std_periph_driver/src/n32g430_flash.c **** *\*\fun    Checks whether the FLASH Prefetch Buffer status_value is set or not.
1320:../firmware/n32g430_std_periph_driver/src/n32g430_flash.c **** *\*\note   This function can be used for N32G430 devices.
1321:../firmware/n32g430_std_periph_driver/src/n32g430_flash.c **** *\*\param  none
1322:../firmware/n32g430_std_periph_driver/src/n32g430_flash.c **** *\*\return FlagStatus :
1323:../firmware/n32g430_std_periph_driver/src/n32g430_flash.c **** *\*\        - SET
1324:../firmware/n32g430_std_periph_driver/src/n32g430_flash.c **** *\*\        - RESET
1325:../firmware/n32g430_std_periph_driver/src/n32g430_flash.c **** **/
1326:../firmware/n32g430_std_periph_driver/src/n32g430_flash.c **** FlagStatus FLASH_Prefetch_Buffer_Status_Get(void)
1327:../firmware/n32g430_std_periph_driver/src/n32g430_flash.c **** {
 2699              		.loc 1 1327 1
 2700              		.cfi_startproc
 2701              		@ args = 0, pretend = 0, frame = 0
 2702              		@ frame_needed = 1, uses_anonymous_args = 0
 2703              		@ link register save eliminated.
 2704 0000 80B4     		push	{r7}
 2705              	.LCFI165:
 2706              		.cfi_def_cfa_offset 4
 2707              		.cfi_offset 7, -4
 2708 0002 00AF     		add	r7, sp, #0
 2709              	.LCFI166:
 2710              		.cfi_def_cfa_register 7
1328:../firmware/n32g430_std_periph_driver/src/n32g430_flash.c ****     if ((FLASH->AC & FLASH_PRFTBS_MSK) != (uint32_t)RESET)
 2711              		.loc 1 1328 15
 2712 0004 064B     		ldr	r3, .L166
 2713 0006 1B68     		ldr	r3, [r3]
 2714              		.loc 1 1328 20
 2715 0008 03F02003 		and	r3, r3, #32
 2716              		.loc 1 1328 8
 2717 000c 002B     		cmp	r3, #0
 2718 000e 01D0     		beq	.L164
1329:../firmware/n32g430_std_periph_driver/src/n32g430_flash.c ****     {
1330:../firmware/n32g430_std_periph_driver/src/n32g430_flash.c ****         return SET;
 2719              		.loc 1 1330 16
 2720 0010 0123     		movs	r3, #1
 2721 0012 00E0     		b	.L165
 2722              	.L164:
1331:../firmware/n32g430_std_periph_driver/src/n32g430_flash.c ****     }
ARM GAS  C:\Users\ZShuai\AppData\Local\Temp\cc3cdILj.s 			page 71


1332:../firmware/n32g430_std_periph_driver/src/n32g430_flash.c ****     else
1333:../firmware/n32g430_std_periph_driver/src/n32g430_flash.c ****     {
1334:../firmware/n32g430_std_periph_driver/src/n32g430_flash.c ****         return RESET;
 2723              		.loc 1 1334 16
 2724 0014 0023     		movs	r3, #0
 2725              	.L165:
1335:../firmware/n32g430_std_periph_driver/src/n32g430_flash.c ****     }
1336:../firmware/n32g430_std_periph_driver/src/n32g430_flash.c **** }
 2726              		.loc 1 1336 1
 2727 0016 1846     		mov	r0, r3
 2728 0018 BD46     		mov	sp, r7
 2729              	.LCFI167:
 2730              		.cfi_def_cfa_register 13
 2731              		@ sp needed
 2732 001a 5DF8047B 		ldr	r7, [sp], #4
 2733              	.LCFI168:
 2734              		.cfi_restore 7
 2735              		.cfi_def_cfa_offset 0
 2736 001e 7047     		bx	lr
 2737              	.L167:
 2738              		.align	2
 2739              	.L166:
 2740 0020 00200240 		.word	1073881088
 2741              		.cfi_endproc
 2742              	.LFE165:
 2744              		.section	.text.FLASH_Interrupt_Enable,"ax",%progbits
 2745              		.align	1
 2746              		.global	FLASH_Interrupt_Enable
 2747              		.syntax unified
 2748              		.thumb
 2749              		.thumb_func
 2751              	FLASH_Interrupt_Enable:
 2752              	.LFB166:
1337:../firmware/n32g430_std_periph_driver/src/n32g430_flash.c **** 
1338:../firmware/n32g430_std_periph_driver/src/n32g430_flash.c **** /**
1339:../firmware/n32g430_std_periph_driver/src/n32g430_flash.c **** *\*\name   FLASH_Interrupt_Enable
1340:../firmware/n32g430_std_periph_driver/src/n32g430_flash.c **** *\*\fun    Enables the specified FLASH interrupts.
1341:../firmware/n32g430_std_periph_driver/src/n32g430_flash.c **** *\*\note   This function can be used for N32G430 devices.
1342:../firmware/n32g430_std_periph_driver/src/n32g430_flash.c **** *\*\param  flash_interrupts :
1343:../firmware/n32g430_std_periph_driver/src/n32g430_flash.c **** *\*\        - FLASH_INT_ERROR    FLASH Error Interrupt
1344:../firmware/n32g430_std_periph_driver/src/n32g430_flash.c **** *\*\        - FLASH_INT_EOP      FLASH end of operation Interrupt
1345:../firmware/n32g430_std_periph_driver/src/n32g430_flash.c **** *\*\return none
1346:../firmware/n32g430_std_periph_driver/src/n32g430_flash.c **** **/
1347:../firmware/n32g430_std_periph_driver/src/n32g430_flash.c **** void FLASH_Interrupt_Enable(uint32_t flash_interrupts)
1348:../firmware/n32g430_std_periph_driver/src/n32g430_flash.c **** {
 2753              		.loc 1 1348 1
 2754              		.cfi_startproc
 2755              		@ args = 0, pretend = 0, frame = 8
 2756              		@ frame_needed = 1, uses_anonymous_args = 0
 2757              		@ link register save eliminated.
 2758 0000 80B4     		push	{r7}
 2759              	.LCFI169:
 2760              		.cfi_def_cfa_offset 4
 2761              		.cfi_offset 7, -4
 2762 0002 83B0     		sub	sp, sp, #12
 2763              	.LCFI170:
 2764              		.cfi_def_cfa_offset 16
ARM GAS  C:\Users\ZShuai\AppData\Local\Temp\cc3cdILj.s 			page 72


 2765 0004 00AF     		add	r7, sp, #0
 2766              	.LCFI171:
 2767              		.cfi_def_cfa_register 7
 2768 0006 7860     		str	r0, [r7, #4]
1349:../firmware/n32g430_std_periph_driver/src/n32g430_flash.c ****     /* Enable the interrupt sources */
1350:../firmware/n32g430_std_periph_driver/src/n32g430_flash.c ****     FLASH->CTRL |= flash_interrupts;
 2769              		.loc 1 1350 10
 2770 0008 054B     		ldr	r3, .L169
 2771 000a 1A69     		ldr	r2, [r3, #16]
 2772 000c 0449     		ldr	r1, .L169
 2773              		.loc 1 1350 17
 2774 000e 7B68     		ldr	r3, [r7, #4]
 2775 0010 1343     		orrs	r3, r3, r2
 2776 0012 0B61     		str	r3, [r1, #16]
1351:../firmware/n32g430_std_periph_driver/src/n32g430_flash.c **** }
 2777              		.loc 1 1351 1
 2778 0014 00BF     		nop
 2779 0016 0C37     		adds	r7, r7, #12
 2780              	.LCFI172:
 2781              		.cfi_def_cfa_offset 4
 2782 0018 BD46     		mov	sp, r7
 2783              	.LCFI173:
 2784              		.cfi_def_cfa_register 13
 2785              		@ sp needed
 2786 001a 5DF8047B 		ldr	r7, [sp], #4
 2787              	.LCFI174:
 2788              		.cfi_restore 7
 2789              		.cfi_def_cfa_offset 0
 2790 001e 7047     		bx	lr
 2791              	.L170:
 2792              		.align	2
 2793              	.L169:
 2794 0020 00200240 		.word	1073881088
 2795              		.cfi_endproc
 2796              	.LFE166:
 2798              		.section	.text.FLASH_Interrupt_Disable,"ax",%progbits
 2799              		.align	1
 2800              		.global	FLASH_Interrupt_Disable
 2801              		.syntax unified
 2802              		.thumb
 2803              		.thumb_func
 2805              	FLASH_Interrupt_Disable:
 2806              	.LFB167:
1352:../firmware/n32g430_std_periph_driver/src/n32g430_flash.c **** 
1353:../firmware/n32g430_std_periph_driver/src/n32g430_flash.c **** /**
1354:../firmware/n32g430_std_periph_driver/src/n32g430_flash.c **** *\*\name   FLASH_Interrupt_Disable
1355:../firmware/n32g430_std_periph_driver/src/n32g430_flash.c **** *\*\fun    Disables the specified FLASH interrupts.
1356:../firmware/n32g430_std_periph_driver/src/n32g430_flash.c **** *\*\note   This function can be used for N32G430 devices.
1357:../firmware/n32g430_std_periph_driver/src/n32g430_flash.c **** *\*\param  flash_interrupts :
1358:../firmware/n32g430_std_periph_driver/src/n32g430_flash.c **** *\*\        - FLASH_INT_ERROR    FLASH Error Interrupt
1359:../firmware/n32g430_std_periph_driver/src/n32g430_flash.c **** *\*\        - FLASH_INT_EOP      FLASH end of operation Interrupt
1360:../firmware/n32g430_std_periph_driver/src/n32g430_flash.c **** *\*\return none
1361:../firmware/n32g430_std_periph_driver/src/n32g430_flash.c **** **/
1362:../firmware/n32g430_std_periph_driver/src/n32g430_flash.c **** void FLASH_Interrupt_Disable(uint32_t flash_interrupts)
1363:../firmware/n32g430_std_periph_driver/src/n32g430_flash.c **** {
 2807              		.loc 1 1363 1
 2808              		.cfi_startproc
ARM GAS  C:\Users\ZShuai\AppData\Local\Temp\cc3cdILj.s 			page 73


 2809              		@ args = 0, pretend = 0, frame = 8
 2810              		@ frame_needed = 1, uses_anonymous_args = 0
 2811              		@ link register save eliminated.
 2812 0000 80B4     		push	{r7}
 2813              	.LCFI175:
 2814              		.cfi_def_cfa_offset 4
 2815              		.cfi_offset 7, -4
 2816 0002 83B0     		sub	sp, sp, #12
 2817              	.LCFI176:
 2818              		.cfi_def_cfa_offset 16
 2819 0004 00AF     		add	r7, sp, #0
 2820              	.LCFI177:
 2821              		.cfi_def_cfa_register 7
 2822 0006 7860     		str	r0, [r7, #4]
1364:../firmware/n32g430_std_periph_driver/src/n32g430_flash.c ****     /* Disable the interrupt sources */
1365:../firmware/n32g430_std_periph_driver/src/n32g430_flash.c ****     FLASH->CTRL &= ~(uint32_t)flash_interrupts;
 2823              		.loc 1 1365 10
 2824 0008 064B     		ldr	r3, .L172
 2825 000a 1A69     		ldr	r2, [r3, #16]
 2826              		.loc 1 1365 20
 2827 000c 7B68     		ldr	r3, [r7, #4]
 2828 000e DB43     		mvns	r3, r3
 2829              		.loc 1 1365 10
 2830 0010 0449     		ldr	r1, .L172
 2831              		.loc 1 1365 17
 2832 0012 1340     		ands	r3, r3, r2
 2833 0014 0B61     		str	r3, [r1, #16]
1366:../firmware/n32g430_std_periph_driver/src/n32g430_flash.c **** }
 2834              		.loc 1 1366 1
 2835 0016 00BF     		nop
 2836 0018 0C37     		adds	r7, r7, #12
 2837              	.LCFI178:
 2838              		.cfi_def_cfa_offset 4
 2839 001a BD46     		mov	sp, r7
 2840              	.LCFI179:
 2841              		.cfi_def_cfa_register 13
 2842              		@ sp needed
 2843 001c 5DF8047B 		ldr	r7, [sp], #4
 2844              	.LCFI180:
 2845              		.cfi_restore 7
 2846              		.cfi_def_cfa_offset 0
 2847 0020 7047     		bx	lr
 2848              	.L173:
 2849 0022 00BF     		.align	2
 2850              	.L172:
 2851 0024 00200240 		.word	1073881088
 2852              		.cfi_endproc
 2853              	.LFE167:
 2855              		.section	.text.FLASH_Flag_Status_Get,"ax",%progbits
 2856              		.align	1
 2857              		.global	FLASH_Flag_Status_Get
 2858              		.syntax unified
 2859              		.thumb
 2860              		.thumb_func
 2862              	FLASH_Flag_Status_Get:
 2863              	.LFB168:
1367:../firmware/n32g430_std_periph_driver/src/n32g430_flash.c **** 
ARM GAS  C:\Users\ZShuai\AppData\Local\Temp\cc3cdILj.s 			page 74


1368:../firmware/n32g430_std_periph_driver/src/n32g430_flash.c **** /**
1369:../firmware/n32g430_std_periph_driver/src/n32g430_flash.c **** *\*\name   FLASH_Flag_Status_Get
1370:../firmware/n32g430_std_periph_driver/src/n32g430_flash.c **** *\*\fun    Checks whether the specified FLASH flag is set or not.
1371:../firmware/n32g430_std_periph_driver/src/n32g430_flash.c **** *\*\note   This function can be used for N32G430 devices.
1372:../firmware/n32g430_std_periph_driver/src/n32g430_flash.c **** *\*\param  flash_flag :
1373:../firmware/n32g430_std_periph_driver/src/n32g430_flash.c **** *\*\        - FLASH_FLAG_BUSY      FLASH Busy flag
1374:../firmware/n32g430_std_periph_driver/src/n32g430_flash.c **** *\*\        - FLASH_FLAG_PGERR     FLASH Program error flag
1375:../firmware/n32g430_std_periph_driver/src/n32g430_flash.c **** *\*\        - FLASH_FLAG_WRPERR    FLASH Write protected error flag
1376:../firmware/n32g430_std_periph_driver/src/n32g430_flash.c **** *\*\        - FLASH_FLAG_EOP       FLASH End of Operation flag
1377:../firmware/n32g430_std_periph_driver/src/n32g430_flash.c **** *\*\return FlagStatus :
1378:../firmware/n32g430_std_periph_driver/src/n32g430_flash.c **** *\*\        - SET
1379:../firmware/n32g430_std_periph_driver/src/n32g430_flash.c **** *\*\        - RESET
1380:../firmware/n32g430_std_periph_driver/src/n32g430_flash.c **** **/
1381:../firmware/n32g430_std_periph_driver/src/n32g430_flash.c **** FlagStatus FLASH_Flag_Status_Get(uint32_t flash_flag)
1382:../firmware/n32g430_std_periph_driver/src/n32g430_flash.c **** {
 2864              		.loc 1 1382 1
 2865              		.cfi_startproc
 2866              		@ args = 0, pretend = 0, frame = 8
 2867              		@ frame_needed = 1, uses_anonymous_args = 0
 2868              		@ link register save eliminated.
 2869 0000 80B4     		push	{r7}
 2870              	.LCFI181:
 2871              		.cfi_def_cfa_offset 4
 2872              		.cfi_offset 7, -4
 2873 0002 83B0     		sub	sp, sp, #12
 2874              	.LCFI182:
 2875              		.cfi_def_cfa_offset 16
 2876 0004 00AF     		add	r7, sp, #0
 2877              	.LCFI183:
 2878              		.cfi_def_cfa_register 7
 2879 0006 7860     		str	r0, [r7, #4]
1383:../firmware/n32g430_std_periph_driver/src/n32g430_flash.c ****     if ((FLASH->STS & flash_flag) != (uint32_t)RESET)
 2880              		.loc 1 1383 15
 2881 0008 074B     		ldr	r3, .L177
 2882 000a DA68     		ldr	r2, [r3, #12]
 2883              		.loc 1 1383 21
 2884 000c 7B68     		ldr	r3, [r7, #4]
 2885 000e 1340     		ands	r3, r3, r2
 2886              		.loc 1 1383 8
 2887 0010 002B     		cmp	r3, #0
 2888 0012 01D0     		beq	.L175
1384:../firmware/n32g430_std_periph_driver/src/n32g430_flash.c ****     {
1385:../firmware/n32g430_std_periph_driver/src/n32g430_flash.c ****         return SET;
 2889              		.loc 1 1385 16
 2890 0014 0123     		movs	r3, #1
 2891 0016 00E0     		b	.L176
 2892              	.L175:
1386:../firmware/n32g430_std_periph_driver/src/n32g430_flash.c ****     }
1387:../firmware/n32g430_std_periph_driver/src/n32g430_flash.c ****     else
1388:../firmware/n32g430_std_periph_driver/src/n32g430_flash.c ****     {
1389:../firmware/n32g430_std_periph_driver/src/n32g430_flash.c ****         return RESET;
 2893              		.loc 1 1389 16
 2894 0018 0023     		movs	r3, #0
 2895              	.L176:
1390:../firmware/n32g430_std_periph_driver/src/n32g430_flash.c ****     }
1391:../firmware/n32g430_std_periph_driver/src/n32g430_flash.c **** }
 2896              		.loc 1 1391 1
ARM GAS  C:\Users\ZShuai\AppData\Local\Temp\cc3cdILj.s 			page 75


 2897 001a 1846     		mov	r0, r3
 2898 001c 0C37     		adds	r7, r7, #12
 2899              	.LCFI184:
 2900              		.cfi_def_cfa_offset 4
 2901 001e BD46     		mov	sp, r7
 2902              	.LCFI185:
 2903              		.cfi_def_cfa_register 13
 2904              		@ sp needed
 2905 0020 5DF8047B 		ldr	r7, [sp], #4
 2906              	.LCFI186:
 2907              		.cfi_restore 7
 2908              		.cfi_def_cfa_offset 0
 2909 0024 7047     		bx	lr
 2910              	.L178:
 2911 0026 00BF     		.align	2
 2912              	.L177:
 2913 0028 00200240 		.word	1073881088
 2914              		.cfi_endproc
 2915              	.LFE168:
 2917              		.section	.text.FLASH_Option_Bytes_Flag_Get,"ax",%progbits
 2918              		.align	1
 2919              		.global	FLASH_Option_Bytes_Flag_Get
 2920              		.syntax unified
 2921              		.thumb
 2922              		.thumb_func
 2924              	FLASH_Option_Bytes_Flag_Get:
 2925              	.LFB169:
1392:../firmware/n32g430_std_periph_driver/src/n32g430_flash.c **** 
1393:../firmware/n32g430_std_periph_driver/src/n32g430_flash.c **** /**
1394:../firmware/n32g430_std_periph_driver/src/n32g430_flash.c **** *\*\name   FLASH_Option_Bytes_Flag_Get
1395:../firmware/n32g430_std_periph_driver/src/n32g430_flash.c **** *\*\fun    Checks whether the specified FLASH flag is set or not.
1396:../firmware/n32g430_std_periph_driver/src/n32g430_flash.c **** *\*\note   This function can be used for N32G430 devices.
1397:../firmware/n32g430_std_periph_driver/src/n32g430_flash.c **** *\*\param  flash_flag :
1398:../firmware/n32g430_std_periph_driver/src/n32g430_flash.c **** *\*\        - FLASH_FLAG_OBERR FLASH Option Byte error flag
1399:../firmware/n32g430_std_periph_driver/src/n32g430_flash.c **** *\*\return FlagStatus :
1400:../firmware/n32g430_std_periph_driver/src/n32g430_flash.c **** *\*\        - SET
1401:../firmware/n32g430_std_periph_driver/src/n32g430_flash.c **** *\*\        - RESET
1402:../firmware/n32g430_std_periph_driver/src/n32g430_flash.c **** **/
1403:../firmware/n32g430_std_periph_driver/src/n32g430_flash.c **** FlagStatus FLASH_Option_Bytes_Flag_Get(uint32_t flash_flag)
1404:../firmware/n32g430_std_periph_driver/src/n32g430_flash.c **** {
 2926              		.loc 1 1404 1
 2927              		.cfi_startproc
 2928              		@ args = 0, pretend = 0, frame = 8
 2929              		@ frame_needed = 1, uses_anonymous_args = 0
 2930              		@ link register save eliminated.
