ARM GAS  C:\Users\ZShuai\AppData\Local\Temp\cc5WYDZP.s 			page 1


   1              		.cpu cortex-m4
   2              		.arch armv7e-m
   3              		.fpu fpv4-sp-d16
   4              		.eabi_attribute 27, 1
   5              		.eabi_attribute 28, 1
   6              		.eabi_attribute 20, 1
   7              		.eabi_attribute 21, 1
   8              		.eabi_attribute 23, 3
   9              		.eabi_attribute 24, 1
  10              		.eabi_attribute 25, 1
  11              		.eabi_attribute 26, 1
  12              		.eabi_attribute 30, 6
  13              		.eabi_attribute 34, 1
  14              		.eabi_attribute 18, 4
  15              		.file	"n32g430_dma.c"
  16              		.text
  17              	.Ltext0:
  18              		.cfi_sections	.debug_frame
  19              		.file 1 "../firmware/n32g430_std_periph_driver/src/n32g430_dma.c"
  20              		.section	.text.DMA_Reset,"ax",%progbits
  21              		.align	1
  22              		.global	DMA_Reset
  23              		.syntax unified
  24              		.thumb
  25              		.thumb_func
  27              	DMA_Reset:
  28              	.LFB130:
   1:../firmware/n32g430_std_periph_driver/src/n32g430_dma.c **** /**
   2:../firmware/n32g430_std_periph_driver/src/n32g430_dma.c **** *     Copyright (c) 2022, Nations Technologies Inc.
   3:../firmware/n32g430_std_periph_driver/src/n32g430_dma.c **** * 
   4:../firmware/n32g430_std_periph_driver/src/n32g430_dma.c **** *     All rights reserved.
   5:../firmware/n32g430_std_periph_driver/src/n32g430_dma.c **** *
   6:../firmware/n32g430_std_periph_driver/src/n32g430_dma.c **** *     This software is the exclusive property of Nations Technologies Inc. (Hereinafter 
   7:../firmware/n32g430_std_periph_driver/src/n32g430_dma.c **** * referred to as NATIONS). This software, and the product of NATIONS described herein 
   8:../firmware/n32g430_std_periph_driver/src/n32g430_dma.c **** * (Hereinafter referred to as the Product) are owned by NATIONS under the laws and treaties
   9:../firmware/n32g430_std_periph_driver/src/n32g430_dma.c **** * of the People's Republic of China and other applicable jurisdictions worldwide.
  10:../firmware/n32g430_std_periph_driver/src/n32g430_dma.c **** *
  11:../firmware/n32g430_std_periph_driver/src/n32g430_dma.c **** *     NATIONS does not grant any license under its patents, copyrights, trademarks, or other 
  12:../firmware/n32g430_std_periph_driver/src/n32g430_dma.c **** * intellectual property rights. Names and brands of third party may be mentioned or referred 
  13:../firmware/n32g430_std_periph_driver/src/n32g430_dma.c **** * thereto (if any) for identification purposes only.
  14:../firmware/n32g430_std_periph_driver/src/n32g430_dma.c **** *
  15:../firmware/n32g430_std_periph_driver/src/n32g430_dma.c **** *     NATIONS reserves the right to make changes, corrections, enhancements, modifications, and 
  16:../firmware/n32g430_std_periph_driver/src/n32g430_dma.c **** * improvements to this software at any time without notice. Please contact NATIONS and obtain 
  17:../firmware/n32g430_std_periph_driver/src/n32g430_dma.c **** * the latest version of this software before placing orders.
  18:../firmware/n32g430_std_periph_driver/src/n32g430_dma.c **** 
  19:../firmware/n32g430_std_periph_driver/src/n32g430_dma.c **** *     Although NATIONS has attempted to provide accurate and reliable information, NATIONS assumes 
  20:../firmware/n32g430_std_periph_driver/src/n32g430_dma.c **** * no responsibility for the accuracy and reliability of this software.
  21:../firmware/n32g430_std_periph_driver/src/n32g430_dma.c **** * 
  22:../firmware/n32g430_std_periph_driver/src/n32g430_dma.c **** *     It is the responsibility of the user of this software to properly design, program, and test 
  23:../firmware/n32g430_std_periph_driver/src/n32g430_dma.c **** * the functionality and safety of any application made of this information and any resulting produc
  24:../firmware/n32g430_std_periph_driver/src/n32g430_dma.c **** * In no event shall NATIONS be liable for any direct, indirect, incidental, special,exemplary, or 
  25:../firmware/n32g430_std_periph_driver/src/n32g430_dma.c **** * consequential damages arising in any way out of the use of this software or the Product.
  26:../firmware/n32g430_std_periph_driver/src/n32g430_dma.c **** *
  27:../firmware/n32g430_std_periph_driver/src/n32g430_dma.c **** *     NATIONS Products are neither intended nor warranted for usage in systems or equipment, any
  28:../firmware/n32g430_std_periph_driver/src/n32g430_dma.c **** * malfunction or failure of which may cause loss of human life, bodily injury or severe property 
  29:../firmware/n32g430_std_periph_driver/src/n32g430_dma.c **** * damage. Such applications are deemed, "Insecure Usage".
  30:../firmware/n32g430_std_periph_driver/src/n32g430_dma.c **** *
ARM GAS  C:\Users\ZShuai\AppData\Local\Temp\cc5WYDZP.s 			page 2


  31:../firmware/n32g430_std_periph_driver/src/n32g430_dma.c **** *     All Insecure Usage shall be made at user's risk. User shall indemnify NATIONS and hold NATION
  32:../firmware/n32g430_std_periph_driver/src/n32g430_dma.c **** * harmless from and against all claims, costs, damages, and other liabilities, arising from or rela
  33:../firmware/n32g430_std_periph_driver/src/n32g430_dma.c **** * to any customer's Insecure Usage.
  34:../firmware/n32g430_std_periph_driver/src/n32g430_dma.c **** 
  35:../firmware/n32g430_std_periph_driver/src/n32g430_dma.c **** *     Any express or implied warranty with regard to this software or the Product, including,but no
  36:../firmware/n32g430_std_periph_driver/src/n32g430_dma.c **** * limited to, the warranties of merchantability, fitness for a particular purpose and non-infringem
  37:../firmware/n32g430_std_periph_driver/src/n32g430_dma.c **** * are disclaimed to the fullest extent permitted by law.
  38:../firmware/n32g430_std_periph_driver/src/n32g430_dma.c **** 
  39:../firmware/n32g430_std_periph_driver/src/n32g430_dma.c **** *     Unless otherwise explicitly permitted by NATIONS, anyone may not duplicate, modify, transcrib
  40:../firmware/n32g430_std_periph_driver/src/n32g430_dma.c **** * or otherwise distribute this software for any purposes, in whole or in part.
  41:../firmware/n32g430_std_periph_driver/src/n32g430_dma.c **** *
  42:../firmware/n32g430_std_periph_driver/src/n32g430_dma.c **** *     NATIONS products and technologies shall not be used for or incorporated into any products or 
  43:../firmware/n32g430_std_periph_driver/src/n32g430_dma.c **** * whose manufacture, use, or sale is prohibited under any applicable domestic or foreign laws or re
  44:../firmware/n32g430_std_periph_driver/src/n32g430_dma.c **** * User shall comply with any applicable export control laws and regulations promulgated and adminis
  45:../firmware/n32g430_std_periph_driver/src/n32g430_dma.c **** * the governments of any countries asserting jurisdiction over the parties or transactions.
  46:../firmware/n32g430_std_periph_driver/src/n32g430_dma.c **** **/
  47:../firmware/n32g430_std_periph_driver/src/n32g430_dma.c **** 
  48:../firmware/n32g430_std_periph_driver/src/n32g430_dma.c **** /**
  49:../firmware/n32g430_std_periph_driver/src/n32g430_dma.c **** *\*\file n32g430_dma.c
  50:../firmware/n32g430_std_periph_driver/src/n32g430_dma.c **** *\*\author Nations
  51:../firmware/n32g430_std_periph_driver/src/n32g430_dma.c **** *\*\version v1.0.0
  52:../firmware/n32g430_std_periph_driver/src/n32g430_dma.c **** *\*\copyright Copyright (c) 2022, Nations Technologies Inc. All rights reserved.
  53:../firmware/n32g430_std_periph_driver/src/n32g430_dma.c **** **/
  54:../firmware/n32g430_std_periph_driver/src/n32g430_dma.c **** 
  55:../firmware/n32g430_std_periph_driver/src/n32g430_dma.c **** #include "n32g430_dma.h"
  56:../firmware/n32g430_std_periph_driver/src/n32g430_dma.c **** #include "n32g430_rcc.h"
  57:../firmware/n32g430_std_periph_driver/src/n32g430_dma.c **** 
  58:../firmware/n32g430_std_periph_driver/src/n32g430_dma.c **** /** DMA Private Defines **/
  59:../firmware/n32g430_std_periph_driver/src/n32g430_dma.c **** 
  60:../firmware/n32g430_std_periph_driver/src/n32g430_dma.c **** 
  61:../firmware/n32g430_std_periph_driver/src/n32g430_dma.c **** /** DMA Driving Functions Declaration **/
  62:../firmware/n32g430_std_periph_driver/src/n32g430_dma.c **** 
  63:../firmware/n32g430_std_periph_driver/src/n32g430_dma.c **** /**
  64:../firmware/n32g430_std_periph_driver/src/n32g430_dma.c **** *\*\name    DMA_Deinitializes.
  65:../firmware/n32g430_std_periph_driver/src/n32g430_dma.c **** *\*\fun     Reset DMA Channelx registers.
  66:../firmware/n32g430_std_periph_driver/src/n32g430_dma.c **** *\*\param   DMAChx :
  67:../firmware/n32g430_std_periph_driver/src/n32g430_dma.c **** *\*\          - DMA_CH1
  68:../firmware/n32g430_std_periph_driver/src/n32g430_dma.c **** *\*\          - DMA_CH2
  69:../firmware/n32g430_std_periph_driver/src/n32g430_dma.c **** *\*\          - DMA_CH3
  70:../firmware/n32g430_std_periph_driver/src/n32g430_dma.c **** *\*\          - DMA_CH4
  71:../firmware/n32g430_std_periph_driver/src/n32g430_dma.c **** *\*\          - DMA_CH5
  72:../firmware/n32g430_std_periph_driver/src/n32g430_dma.c **** *\*\          - DMA_CH6
  73:../firmware/n32g430_std_periph_driver/src/n32g430_dma.c **** *\*\          - DMA_CH7
  74:../firmware/n32g430_std_periph_driver/src/n32g430_dma.c **** *\*\          - DMA_CH8
  75:../firmware/n32g430_std_periph_driver/src/n32g430_dma.c **** *\*\return  none
  76:../firmware/n32g430_std_periph_driver/src/n32g430_dma.c **** **/
  77:../firmware/n32g430_std_periph_driver/src/n32g430_dma.c **** void DMA_Reset(DMA_ChannelType* DMAChx)
  78:../firmware/n32g430_std_periph_driver/src/n32g430_dma.c **** {
  29              		.loc 1 78 1
  30              		.cfi_startproc
  31              		@ args = 0, pretend = 0, frame = 8
  32              		@ frame_needed = 1, uses_anonymous_args = 0
  33              		@ link register save eliminated.
  34 0000 80B4     		push	{r7}
  35              	.LCFI0:
  36              		.cfi_def_cfa_offset 4
  37              		.cfi_offset 7, -4
ARM GAS  C:\Users\ZShuai\AppData\Local\Temp\cc5WYDZP.s 			page 3


  38 0002 83B0     		sub	sp, sp, #12
  39              	.LCFI1:
  40              		.cfi_def_cfa_offset 16
  41 0004 00AF     		add	r7, sp, #0
  42              	.LCFI2:
  43              		.cfi_def_cfa_register 7
  44 0006 7860     		str	r0, [r7, #4]
  79:../firmware/n32g430_std_periph_driver/src/n32g430_dma.c ****     /* Disable the selected DMA Channelx */
  80:../firmware/n32g430_std_periph_driver/src/n32g430_dma.c ****     DMAChx->CHCFG &= ~DMA_CHANNEL_ENABLE;
  45              		.loc 1 80 11
  46 0008 7B68     		ldr	r3, [r7, #4]
  47 000a 1B68     		ldr	r3, [r3]
  48              		.loc 1 80 19
  49 000c 23F00102 		bic	r2, r3, #1
  50 0010 7B68     		ldr	r3, [r7, #4]
  51 0012 1A60     		str	r2, [r3]
  81:../firmware/n32g430_std_periph_driver/src/n32g430_dma.c **** 
  82:../firmware/n32g430_std_periph_driver/src/n32g430_dma.c ****     /* Reset DMA Channelx control register */
  83:../firmware/n32g430_std_periph_driver/src/n32g430_dma.c ****     DMAChx->CHCFG = 0;
  52              		.loc 1 83 19
  53 0014 7B68     		ldr	r3, [r7, #4]
  54 0016 0022     		movs	r2, #0
  55 0018 1A60     		str	r2, [r3]
  84:../firmware/n32g430_std_periph_driver/src/n32g430_dma.c **** 
  85:../firmware/n32g430_std_periph_driver/src/n32g430_dma.c ****     /* Reset DMA Channelx remaining bytes register */
  86:../firmware/n32g430_std_periph_driver/src/n32g430_dma.c ****     DMAChx->TXNUM = 0;
  56              		.loc 1 86 19
  57 001a 7B68     		ldr	r3, [r7, #4]
  58 001c 0022     		movs	r2, #0
  59 001e 5A60     		str	r2, [r3, #4]
  87:../firmware/n32g430_std_periph_driver/src/n32g430_dma.c **** 
  88:../firmware/n32g430_std_periph_driver/src/n32g430_dma.c ****     /* Reset DMA Channelx peripheral address register */
  89:../firmware/n32g430_std_periph_driver/src/n32g430_dma.c ****     DMAChx->PADDR = 0;
  60              		.loc 1 89 19
  61 0020 7B68     		ldr	r3, [r7, #4]
  62 0022 0022     		movs	r2, #0
  63 0024 9A60     		str	r2, [r3, #8]
  90:../firmware/n32g430_std_periph_driver/src/n32g430_dma.c **** 
  91:../firmware/n32g430_std_periph_driver/src/n32g430_dma.c ****     /* Reset DMA Channelx memory address register */
  92:../firmware/n32g430_std_periph_driver/src/n32g430_dma.c ****     DMAChx->MADDR = 0;
  64              		.loc 1 92 19
  65 0026 7B68     		ldr	r3, [r7, #4]
  66 0028 0022     		movs	r2, #0
  67 002a DA60     		str	r2, [r3, #12]
  93:../firmware/n32g430_std_periph_driver/src/n32g430_dma.c ****     
  94:../firmware/n32g430_std_periph_driver/src/n32g430_dma.c ****     if (DMAChx == DMA_CH1)
  68              		.loc 1 94 8
  69 002c 7B68     		ldr	r3, [r7, #4]
  70 002e 2E4A     		ldr	r2, .L11
  71 0030 9342     		cmp	r3, r2
  72 0032 06D1     		bne	.L2
  95:../firmware/n32g430_std_periph_driver/src/n32g430_dma.c ****     {
  96:../firmware/n32g430_std_periph_driver/src/n32g430_dma.c ****         /* Reset interrupt pending bits for DMA Channel1 */
  97:../firmware/n32g430_std_periph_driver/src/n32g430_dma.c ****         DMA->INTCLR |= DMA_CH1_INT_MASK;
  73              		.loc 1 97 12
  74 0034 2D4B     		ldr	r3, .L11+4
  75 0036 5B68     		ldr	r3, [r3, #4]
ARM GAS  C:\Users\ZShuai\AppData\Local\Temp\cc5WYDZP.s 			page 4


  76 0038 2C4A     		ldr	r2, .L11+4
  77              		.loc 1 97 21
  78 003a 43F00F03 		orr	r3, r3, #15
  79 003e 5360     		str	r3, [r2, #4]
  98:../firmware/n32g430_std_periph_driver/src/n32g430_dma.c ****     }
  99:../firmware/n32g430_std_periph_driver/src/n32g430_dma.c ****     else if (DMAChx == DMA_CH2)
 100:../firmware/n32g430_std_periph_driver/src/n32g430_dma.c ****     {
 101:../firmware/n32g430_std_periph_driver/src/n32g430_dma.c ****         /* Reset interrupt pending bits for DMA Channel2 */
 102:../firmware/n32g430_std_periph_driver/src/n32g430_dma.c ****         DMA->INTCLR |= DMA_CH2_INT_MASK;
 103:../firmware/n32g430_std_periph_driver/src/n32g430_dma.c ****     }
 104:../firmware/n32g430_std_periph_driver/src/n32g430_dma.c ****     else if (DMAChx == DMA_CH3)
 105:../firmware/n32g430_std_periph_driver/src/n32g430_dma.c ****     {
 106:../firmware/n32g430_std_periph_driver/src/n32g430_dma.c ****         /* Reset interrupt pending bits for DMA Channel3 */
 107:../firmware/n32g430_std_periph_driver/src/n32g430_dma.c ****         DMA->INTCLR |= DMA_CH3_INT_MASK;
 108:../firmware/n32g430_std_periph_driver/src/n32g430_dma.c ****     }
 109:../firmware/n32g430_std_periph_driver/src/n32g430_dma.c ****     else if (DMAChx == DMA_CH4)
 110:../firmware/n32g430_std_periph_driver/src/n32g430_dma.c ****     {
 111:../firmware/n32g430_std_periph_driver/src/n32g430_dma.c ****         /* Reset interrupt pending bits for DMA Channel4 */
 112:../firmware/n32g430_std_periph_driver/src/n32g430_dma.c ****         DMA->INTCLR |= DMA_CH4_INT_MASK;
 113:../firmware/n32g430_std_periph_driver/src/n32g430_dma.c ****     }
 114:../firmware/n32g430_std_periph_driver/src/n32g430_dma.c ****     else if (DMAChx == DMA_CH5)
 115:../firmware/n32g430_std_periph_driver/src/n32g430_dma.c ****     {
 116:../firmware/n32g430_std_periph_driver/src/n32g430_dma.c ****         /* Reset interrupt pending bits for DMA Channel5 */
 117:../firmware/n32g430_std_periph_driver/src/n32g430_dma.c ****         DMA->INTCLR |= DMA_CH5_INT_MASK;
 118:../firmware/n32g430_std_periph_driver/src/n32g430_dma.c ****     }
 119:../firmware/n32g430_std_periph_driver/src/n32g430_dma.c ****     else if (DMAChx == DMA_CH6)
 120:../firmware/n32g430_std_periph_driver/src/n32g430_dma.c ****     {
 121:../firmware/n32g430_std_periph_driver/src/n32g430_dma.c ****         /* Reset interrupt pending bits for DMA Channel6 */
 122:../firmware/n32g430_std_periph_driver/src/n32g430_dma.c ****         DMA->INTCLR |= DMA_CH6_INT_MASK;
 123:../firmware/n32g430_std_periph_driver/src/n32g430_dma.c ****     }
 124:../firmware/n32g430_std_periph_driver/src/n32g430_dma.c ****     else if (DMAChx == DMA_CH7)
 125:../firmware/n32g430_std_periph_driver/src/n32g430_dma.c ****     {
 126:../firmware/n32g430_std_periph_driver/src/n32g430_dma.c ****         /* Reset interrupt pending bits for DMA Channel7 */
 127:../firmware/n32g430_std_periph_driver/src/n32g430_dma.c ****         DMA->INTCLR |= DMA_CH7_INT_MASK;
 128:../firmware/n32g430_std_periph_driver/src/n32g430_dma.c ****     }
 129:../firmware/n32g430_std_periph_driver/src/n32g430_dma.c ****     else if (DMAChx == DMA_CH8)
 130:../firmware/n32g430_std_periph_driver/src/n32g430_dma.c ****     {
 131:../firmware/n32g430_std_periph_driver/src/n32g430_dma.c ****         /* Reset interrupt pending bits for DMA Channel8 */
 132:../firmware/n32g430_std_periph_driver/src/n32g430_dma.c ****         DMA->INTCLR |= DMA_CH8_INT_MASK;
 133:../firmware/n32g430_std_periph_driver/src/n32g430_dma.c ****     }
 134:../firmware/n32g430_std_periph_driver/src/n32g430_dma.c **** }
  80              		.loc 1 134 1
  81 0040 4BE0     		b	.L10
  82              	.L2:
  99:../firmware/n32g430_std_periph_driver/src/n32g430_dma.c ****     {
  83              		.loc 1 99 13
  84 0042 7B68     		ldr	r3, [r7, #4]
  85 0044 2A4A     		ldr	r2, .L11+8
  86 0046 9342     		cmp	r3, r2
  87 0048 06D1     		bne	.L4
 102:../firmware/n32g430_std_periph_driver/src/n32g430_dma.c ****     }
  88              		.loc 1 102 12
  89 004a 284B     		ldr	r3, .L11+4
  90 004c 5B68     		ldr	r3, [r3, #4]
  91 004e 274A     		ldr	r2, .L11+4
 102:../firmware/n32g430_std_periph_driver/src/n32g430_dma.c ****     }
  92              		.loc 1 102 21
ARM GAS  C:\Users\ZShuai\AppData\Local\Temp\cc5WYDZP.s 			page 5


  93 0050 43F0F003 		orr	r3, r3, #240
  94 0054 5360     		str	r3, [r2, #4]
  95              		.loc 1 134 1
  96 0056 40E0     		b	.L10
  97              	.L4:
 104:../firmware/n32g430_std_periph_driver/src/n32g430_dma.c ****     {
  98              		.loc 1 104 13
  99 0058 7B68     		ldr	r3, [r7, #4]
 100 005a 264A     		ldr	r2, .L11+12
 101 005c 9342     		cmp	r3, r2
 102 005e 06D1     		bne	.L5
 107:../firmware/n32g430_std_periph_driver/src/n32g430_dma.c ****     }
 103              		.loc 1 107 12
 104 0060 224B     		ldr	r3, .L11+4
 105 0062 5B68     		ldr	r3, [r3, #4]
 106 0064 214A     		ldr	r2, .L11+4
 107:../firmware/n32g430_std_periph_driver/src/n32g430_dma.c ****     }
 107              		.loc 1 107 21
 108 0066 43F47063 		orr	r3, r3, #3840
 109 006a 5360     		str	r3, [r2, #4]
 110              		.loc 1 134 1
 111 006c 35E0     		b	.L10
 112              	.L5:
 109:../firmware/n32g430_std_periph_driver/src/n32g430_dma.c ****     {
 113              		.loc 1 109 13
 114 006e 7B68     		ldr	r3, [r7, #4]
 115 0070 214A     		ldr	r2, .L11+16
 116 0072 9342     		cmp	r3, r2
 117 0074 06D1     		bne	.L6
 112:../firmware/n32g430_std_periph_driver/src/n32g430_dma.c ****     }
 118              		.loc 1 112 12
 119 0076 1D4B     		ldr	r3, .L11+4
 120 0078 5B68     		ldr	r3, [r3, #4]
 121 007a 1C4A     		ldr	r2, .L11+4
 112:../firmware/n32g430_std_periph_driver/src/n32g430_dma.c ****     }
 122              		.loc 1 112 21
 123 007c 43F47043 		orr	r3, r3, #61440
 124 0080 5360     		str	r3, [r2, #4]
 125              		.loc 1 134 1
 126 0082 2AE0     		b	.L10
 127              	.L6:
 114:../firmware/n32g430_std_periph_driver/src/n32g430_dma.c ****     {
 128              		.loc 1 114 13
 129 0084 7B68     		ldr	r3, [r7, #4]
 130 0086 1D4A     		ldr	r2, .L11+20
 131 0088 9342     		cmp	r3, r2
 132 008a 06D1     		bne	.L7
 117:../firmware/n32g430_std_periph_driver/src/n32g430_dma.c ****     }
 133              		.loc 1 117 12
 134 008c 174B     		ldr	r3, .L11+4
 135 008e 5B68     		ldr	r3, [r3, #4]
 136 0090 164A     		ldr	r2, .L11+4
 117:../firmware/n32g430_std_periph_driver/src/n32g430_dma.c ****     }
 137              		.loc 1 117 21
 138 0092 43F47023 		orr	r3, r3, #983040
 139 0096 5360     		str	r3, [r2, #4]
 140              		.loc 1 134 1
ARM GAS  C:\Users\ZShuai\AppData\Local\Temp\cc5WYDZP.s 			page 6


 141 0098 1FE0     		b	.L10
 142              	.L7:
 119:../firmware/n32g430_std_periph_driver/src/n32g430_dma.c ****     {
 143              		.loc 1 119 13
 144 009a 7B68     		ldr	r3, [r7, #4]
 145 009c 184A     		ldr	r2, .L11+24
 146 009e 9342     		cmp	r3, r2
 147 00a0 06D1     		bne	.L8
 122:../firmware/n32g430_std_periph_driver/src/n32g430_dma.c ****     }
 148              		.loc 1 122 12
 149 00a2 124B     		ldr	r3, .L11+4
 150 00a4 5B68     		ldr	r3, [r3, #4]
 151 00a6 114A     		ldr	r2, .L11+4
 122:../firmware/n32g430_std_periph_driver/src/n32g430_dma.c ****     }
 152              		.loc 1 122 21
 153 00a8 43F47003 		orr	r3, r3, #15728640
 154 00ac 5360     		str	r3, [r2, #4]
 155              		.loc 1 134 1
 156 00ae 14E0     		b	.L10
 157              	.L8:
 124:../firmware/n32g430_std_periph_driver/src/n32g430_dma.c ****     {
 158              		.loc 1 124 13
 159 00b0 7B68     		ldr	r3, [r7, #4]
 160 00b2 144A     		ldr	r2, .L11+28
 161 00b4 9342     		cmp	r3, r2
 162 00b6 06D1     		bne	.L9
 127:../firmware/n32g430_std_periph_driver/src/n32g430_dma.c ****     }
 163              		.loc 1 127 12
 164 00b8 0C4B     		ldr	r3, .L11+4
 165 00ba 5B68     		ldr	r3, [r3, #4]
 166 00bc 0B4A     		ldr	r2, .L11+4
 127:../firmware/n32g430_std_periph_driver/src/n32g430_dma.c ****     }
 167              		.loc 1 127 21
 168 00be 43F07063 		orr	r3, r3, #251658240
 169 00c2 5360     		str	r3, [r2, #4]
 170              		.loc 1 134 1
 171 00c4 09E0     		b	.L10
 172              	.L9:
 129:../firmware/n32g430_std_periph_driver/src/n32g430_dma.c ****     {
 173              		.loc 1 129 13
 174 00c6 7B68     		ldr	r3, [r7, #4]
 175 00c8 0F4A     		ldr	r2, .L11+32
 176 00ca 9342     		cmp	r3, r2
 177 00cc 05D1     		bne	.L10
 132:../firmware/n32g430_std_periph_driver/src/n32g430_dma.c ****     }
 178              		.loc 1 132 12
 179 00ce 074B     		ldr	r3, .L11+4
 180 00d0 5B68     		ldr	r3, [r3, #4]
 181 00d2 064A     		ldr	r2, .L11+4
 132:../firmware/n32g430_std_periph_driver/src/n32g430_dma.c ****     }
 182              		.loc 1 132 21
 183 00d4 43F07043 		orr	r3, r3, #-268435456
 184 00d8 5360     		str	r3, [r2, #4]
 185              	.L10:
 186              		.loc 1 134 1
 187 00da 00BF     		nop
 188 00dc 0C37     		adds	r7, r7, #12
ARM GAS  C:\Users\ZShuai\AppData\Local\Temp\cc5WYDZP.s 			page 7


 189              	.LCFI3:
 190              		.cfi_def_cfa_offset 4
 191 00de BD46     		mov	sp, r7
 192              	.LCFI4:
 193              		.cfi_def_cfa_register 13
 194              		@ sp needed
 195 00e0 5DF8047B 		ldr	r7, [sp], #4
 196              	.LCFI5:
 197              		.cfi_restore 7
 198              		.cfi_def_cfa_offset 0
 199 00e4 7047     		bx	lr
 200              	.L12:
 201 00e6 00BF     		.align	2
 202              	.L11:
 203 00e8 08000240 		.word	1073872904
 204 00ec 00000240 		.word	1073872896
 205 00f0 1C000240 		.word	1073872924
 206 00f4 30000240 		.word	1073872944
 207 00f8 44000240 		.word	1073872964
 208 00fc 58000240 		.word	1073872984
 209 0100 6C000240 		.word	1073873004
 210 0104 80000240 		.word	1073873024
 211 0108 94000240 		.word	1073873044
 212              		.cfi_endproc
 213              	.LFE130:
 215              		.section	.text.DMA_Initializes,"ax",%progbits
 216              		.align	1
 217              		.global	DMA_Initializes
 218              		.syntax unified
 219              		.thumb
 220              		.thumb_func
 222              	DMA_Initializes:
 223              	.LFB131:
 135:../firmware/n32g430_std_periph_driver/src/n32g430_dma.c **** 
 136:../firmware/n32g430_std_periph_driver/src/n32g430_dma.c **** /**
 137:../firmware/n32g430_std_periph_driver/src/n32g430_dma.c **** *\*\name    DMA_Initializes.
 138:../firmware/n32g430_std_periph_driver/src/n32g430_dma.c **** *\*\fun     Initializes the DMA Channelx according to DMA_InitParam.
 139:../firmware/n32g430_std_periph_driver/src/n32g430_dma.c **** *\*\param   DMAChx :
 140:../firmware/n32g430_std_periph_driver/src/n32g430_dma.c **** *\*\          - DMA_CH1
 141:../firmware/n32g430_std_periph_driver/src/n32g430_dma.c **** *\*\          - DMA_CH2
 142:../firmware/n32g430_std_periph_driver/src/n32g430_dma.c **** *\*\          - DMA_CH3
 143:../firmware/n32g430_std_periph_driver/src/n32g430_dma.c **** *\*\          - DMA_CH4
 144:../firmware/n32g430_std_periph_driver/src/n32g430_dma.c **** *\*\          - DMA_CH5
 145:../firmware/n32g430_std_periph_driver/src/n32g430_dma.c **** *\*\          - DMA_CH6
 146:../firmware/n32g430_std_periph_driver/src/n32g430_dma.c **** *\*\          - DMA_CH7
 147:../firmware/n32g430_std_periph_driver/src/n32g430_dma.c **** *\*\          - DMA_CH8
 148:../firmware/n32g430_std_periph_driver/src/n32g430_dma.c **** *\*\param   DMA_InitParam :
 149:../firmware/n32g430_std_periph_driver/src/n32g430_dma.c **** *\*\          - PeriphAddr
 150:../firmware/n32g430_std_periph_driver/src/n32g430_dma.c **** *\*\          - MemAddr
 151:../firmware/n32g430_std_periph_driver/src/n32g430_dma.c **** *\*\          - Direction
 152:../firmware/n32g430_std_periph_driver/src/n32g430_dma.c **** *\*\            - DMA_DIR_PERIPH_DST
 153:../firmware/n32g430_std_periph_driver/src/n32g430_dma.c **** *\*\            - DMA_DIR_PERIPH_SRC
 154:../firmware/n32g430_std_periph_driver/src/n32g430_dma.c **** *\*\          - BufSize
 155:../firmware/n32g430_std_periph_driver/src/n32g430_dma.c **** *\*\          - PeriphInc
 156:../firmware/n32g430_std_periph_driver/src/n32g430_dma.c **** *\*\            - DMA_PERIPH_INC_MODE_ENABLE
 157:../firmware/n32g430_std_periph_driver/src/n32g430_dma.c **** *\*\            - DMA_PERIPH_INC_MODE_DISABLE
 158:../firmware/n32g430_std_periph_driver/src/n32g430_dma.c **** *\*\          - MemoryInc
ARM GAS  C:\Users\ZShuai\AppData\Local\Temp\cc5WYDZP.s 			page 8


 159:../firmware/n32g430_std_periph_driver/src/n32g430_dma.c **** *\*\            - DMA_MEM_INC_MODE_ENABLE
 160:../firmware/n32g430_std_periph_driver/src/n32g430_dma.c **** *\*\            - DMA_MEM_INC_MODE_DISABLE
 161:../firmware/n32g430_std_periph_driver/src/n32g430_dma.c **** *\*\          - PeriphDataSize
 162:../firmware/n32g430_std_periph_driver/src/n32g430_dma.c **** *\*\            - DMA_PERIPH_DATA_WIDTH_BYTE
 163:../firmware/n32g430_std_periph_driver/src/n32g430_dma.c **** *\*\            - DMA_PERIPH_DATA_WIDTH_HALFWORD
 164:../firmware/n32g430_std_periph_driver/src/n32g430_dma.c **** *\*\            - DMA_PERIPH_DATA_WIDTH_WORD
 165:../firmware/n32g430_std_periph_driver/src/n32g430_dma.c **** *\*\          - MemDataSize
 166:../firmware/n32g430_std_periph_driver/src/n32g430_dma.c **** *\*\            - DMA_MEM_DATA_WIDTH_BYTE
 167:../firmware/n32g430_std_periph_driver/src/n32g430_dma.c **** *\*\            - DMA_MEM_DATA_WIDTH_HALFWORD
 168:../firmware/n32g430_std_periph_driver/src/n32g430_dma.c **** *\*\            - DMA_MEM_DATA_WIDTH_WORD
 169:../firmware/n32g430_std_periph_driver/src/n32g430_dma.c **** *\*\          - CircularMode
 170:../firmware/n32g430_std_periph_driver/src/n32g430_dma.c **** *\*\            - DMA_CIRCULAR_MODE_ENABLE
 171:../firmware/n32g430_std_periph_driver/src/n32g430_dma.c **** *\*\            - DMA_CIRCULAR_MODE_DISABLE
 172:../firmware/n32g430_std_periph_driver/src/n32g430_dma.c **** *\*\          - Priority
 173:../firmware/n32g430_std_periph_driver/src/n32g430_dma.c **** *\*\            - DMA_CH_PRIORITY_HIGHEST
 174:../firmware/n32g430_std_periph_driver/src/n32g430_dma.c **** *\*\            - DMA_CH_PRIORITY_HIGH
 175:../firmware/n32g430_std_periph_driver/src/n32g430_dma.c **** *\*\            - DMA_CH_PRIORITY_MEDIUM
 176:../firmware/n32g430_std_periph_driver/src/n32g430_dma.c **** *\*\            - DMA_CH_PRIORITY_LOW
 177:../firmware/n32g430_std_periph_driver/src/n32g430_dma.c **** *\*\          - Mem2Mem
 178:../firmware/n32g430_std_periph_driver/src/n32g430_dma.c **** *\*\            - DMA_MEM2MEM_ENABLE
 179:../firmware/n32g430_std_periph_driver/src/n32g430_dma.c **** *\*\            - DMA_MEM2MEM_DISABLE
 180:../firmware/n32g430_std_periph_driver/src/n32g430_dma.c **** *\*\return  none
 181:../firmware/n32g430_std_periph_driver/src/n32g430_dma.c **** **/
 182:../firmware/n32g430_std_periph_driver/src/n32g430_dma.c **** void DMA_Initializes(DMA_ChannelType* DMAChx, DMA_InitType* DMA_InitParam)
 183:../firmware/n32g430_std_periph_driver/src/n32g430_dma.c **** {
 224              		.loc 1 183 1
 225              		.cfi_startproc
 226              		@ args = 0, pretend = 0, frame = 8
 227              		@ frame_needed = 1, uses_anonymous_args = 0
 228 0000 80B5     		push	{r7, lr}
 229              	.LCFI6:
 230              		.cfi_def_cfa_offset 8
 231              		.cfi_offset 7, -8
 232              		.cfi_offset 14, -4
 233 0002 82B0     		sub	sp, sp, #8
 234              	.LCFI7:
 235              		.cfi_def_cfa_offset 16
 236 0004 00AF     		add	r7, sp, #0
 237              	.LCFI8:
 238              		.cfi_def_cfa_register 7
 239 0006 7860     		str	r0, [r7, #4]
 240 0008 3960     		str	r1, [r7]
 184:../firmware/n32g430_std_periph_driver/src/n32g430_dma.c ****     DMA_Peripheral_Address_Config(DMAChx, DMA_InitParam->PeriphAddr);
 241              		.loc 1 184 5
 242 000a 3B68     		ldr	r3, [r7]
 243 000c 1B68     		ldr	r3, [r3]
 244 000e 1946     		mov	r1, r3
 245 0010 7868     		ldr	r0, [r7, #4]
 246 0012 FFF7FEFF 		bl	DMA_Peripheral_Address_Config
 185:../firmware/n32g430_std_periph_driver/src/n32g430_dma.c ****     DMA_Memory_Address_Config(DMAChx, DMA_InitParam->MemAddr);
 247              		.loc 1 185 5
 248 0016 3B68     		ldr	r3, [r7]
 249 0018 5B68     		ldr	r3, [r3, #4]
 250 001a 1946     		mov	r1, r3
 251 001c 7868     		ldr	r0, [r7, #4]
 252 001e FFF7FEFF 		bl	DMA_Memory_Address_Config
 186:../firmware/n32g430_std_periph_driver/src/n32g430_dma.c ****     DMA_Destination_Config(DMAChx, DMA_InitParam->Direction);
ARM GAS  C:\Users\ZShuai\AppData\Local\Temp\cc5WYDZP.s 			page 9


 253              		.loc 1 186 5
 254 0022 3B68     		ldr	r3, [r7]
 255 0024 9B68     		ldr	r3, [r3, #8]
 256 0026 1946     		mov	r1, r3
 257 0028 7868     		ldr	r0, [r7, #4]
 258 002a FFF7FEFF 		bl	DMA_Destination_Config
 187:../firmware/n32g430_std_periph_driver/src/n32g430_dma.c ****     DMA_Buffer_Size_Config(DMAChx, DMA_InitParam->BufSize);
 259              		.loc 1 187 5
 260 002e 3B68     		ldr	r3, [r7]
 261 0030 DB68     		ldr	r3, [r3, #12]
 262 0032 1946     		mov	r1, r3
 263 0034 7868     		ldr	r0, [r7, #4]
 264 0036 FFF7FEFF 		bl	DMA_Buffer_Size_Config
 188:../firmware/n32g430_std_periph_driver/src/n32g430_dma.c ****     DMA_Peripheral_Addr_Increment_Config(DMAChx, DMA_InitParam->PeriphInc);
 265              		.loc 1 188 5
 266 003a 3B68     		ldr	r3, [r7]
 267 003c 1B69     		ldr	r3, [r3, #16]
 268 003e 1946     		mov	r1, r3
 269 0040 7868     		ldr	r0, [r7, #4]
 270 0042 FFF7FEFF 		bl	DMA_Peripheral_Addr_Increment_Config
 189:../firmware/n32g430_std_periph_driver/src/n32g430_dma.c ****     DMA_Memory_Addr_Increment_Config(DMAChx, DMA_InitParam->MemoryInc);
 271              		.loc 1 189 5
 272 0046 3B68     		ldr	r3, [r7]
 273 0048 5B69     		ldr	r3, [r3, #20]
 274 004a 1946     		mov	r1, r3
 275 004c 7868     		ldr	r0, [r7, #4]
 276 004e FFF7FEFF 		bl	DMA_Memory_Addr_Increment_Config
 190:../firmware/n32g430_std_periph_driver/src/n32g430_dma.c ****     DMA_Peripheral_Data_Width_Config(DMAChx, DMA_InitParam->PeriphDataSize);
 277              		.loc 1 190 5
 278 0052 3B68     		ldr	r3, [r7]
 279 0054 9B69     		ldr	r3, [r3, #24]
 280 0056 1946     		mov	r1, r3
 281 0058 7868     		ldr	r0, [r7, #4]
 282 005a FFF7FEFF 		bl	DMA_Peripheral_Data_Width_Config
 191:../firmware/n32g430_std_periph_driver/src/n32g430_dma.c ****     DMA_Memory_Data_Width_Config(DMAChx, DMA_InitParam->MemDataSize);
 283              		.loc 1 191 5
 284 005e 3B68     		ldr	r3, [r7]
 285 0060 DB69     		ldr	r3, [r3, #28]
 286 0062 1946     		mov	r1, r3
 287 0064 7868     		ldr	r0, [r7, #4]
 288 0066 FFF7FEFF 		bl	DMA_Memory_Data_Width_Config
 192:../firmware/n32g430_std_periph_driver/src/n32g430_dma.c ****     DMA_Circular_Mode_Config(DMAChx, DMA_InitParam->CircularMode);
 289              		.loc 1 192 5
 290 006a 3B68     		ldr	r3, [r7]
 291 006c 1B6A     		ldr	r3, [r3, #32]
 292 006e 1946     		mov	r1, r3
 293 0070 7868     		ldr	r0, [r7, #4]
 294 0072 FFF7FEFF 		bl	DMA_Circular_Mode_Config
 193:../firmware/n32g430_std_periph_driver/src/n32g430_dma.c ****     DMA_Priority_Config(DMAChx, DMA_InitParam->Priority);
 295              		.loc 1 193 5
 296 0076 3B68     		ldr	r3, [r7]
 297 0078 5B6A     		ldr	r3, [r3, #36]
 298 007a 1946     		mov	r1, r3
 299 007c 7868     		ldr	r0, [r7, #4]
 300 007e FFF7FEFF 		bl	DMA_Priority_Config
 194:../firmware/n32g430_std_periph_driver/src/n32g430_dma.c ****     DMA_Memory_2_Memory_Config(DMAChx, DMA_InitParam->Mem2Mem);
 301              		.loc 1 194 5
ARM GAS  C:\Users\ZShuai\AppData\Local\Temp\cc5WYDZP.s 			page 10


 302 0082 3B68     		ldr	r3, [r7]
 303 0084 9B6A     		ldr	r3, [r3, #40]
 304 0086 1946     		mov	r1, r3
 305 0088 7868     		ldr	r0, [r7, #4]
 306 008a FFF7FEFF 		bl	DMA_Memory_2_Memory_Config
 195:../firmware/n32g430_std_periph_driver/src/n32g430_dma.c **** }
 307              		.loc 1 195 1
 308 008e 00BF     		nop
 309 0090 0837     		adds	r7, r7, #8
 310              	.LCFI9:
 311              		.cfi_def_cfa_offset 8
 312 0092 BD46     		mov	sp, r7
 313              	.LCFI10:
 314              		.cfi_def_cfa_register 13
 315              		@ sp needed
 316 0094 80BD     		pop	{r7, pc}
 317              		.cfi_endproc
 318              	.LFE131:
 320              		.section	.text.DMA_Peripheral_Address_Config,"ax",%progbits
 321              		.align	1
 322              		.global	DMA_Peripheral_Address_Config
 323              		.syntax unified
 324              		.thumb
 325              		.thumb_func
 327              	DMA_Peripheral_Address_Config:
 328              	.LFB132:
 196:../firmware/n32g430_std_periph_driver/src/n32g430_dma.c **** 
 197:../firmware/n32g430_std_periph_driver/src/n32g430_dma.c **** /**
 198:../firmware/n32g430_std_periph_driver/src/n32g430_dma.c **** *\*\name    DMA_Peripheral_Address_Config.
 199:../firmware/n32g430_std_periph_driver/src/n32g430_dma.c **** *\*\fun     Initializes the DMA Channelx peripheral address.
 200:../firmware/n32g430_std_periph_driver/src/n32g430_dma.c **** *\*\param   DMAChx :
 201:../firmware/n32g430_std_periph_driver/src/n32g430_dma.c **** *\*\          - DMA_CH1
 202:../firmware/n32g430_std_periph_driver/src/n32g430_dma.c **** *\*\          - DMA_CH2
 203:../firmware/n32g430_std_periph_driver/src/n32g430_dma.c **** *\*\          - DMA_CH3
 204:../firmware/n32g430_std_periph_driver/src/n32g430_dma.c **** *\*\          - DMA_CH4
 205:../firmware/n32g430_std_periph_driver/src/n32g430_dma.c **** *\*\          - DMA_CH5
 206:../firmware/n32g430_std_periph_driver/src/n32g430_dma.c **** *\*\          - DMA_CH6
 207:../firmware/n32g430_std_periph_driver/src/n32g430_dma.c **** *\*\          - DMA_CH7
 208:../firmware/n32g430_std_periph_driver/src/n32g430_dma.c **** *\*\          - DMA_CH8
 209:../firmware/n32g430_std_periph_driver/src/n32g430_dma.c **** *\*\param   addr :
 210:../firmware/n32g430_std_periph_driver/src/n32g430_dma.c **** *\*\return  none
 211:../firmware/n32g430_std_periph_driver/src/n32g430_dma.c **** **/
 212:../firmware/n32g430_std_periph_driver/src/n32g430_dma.c **** void DMA_Peripheral_Address_Config(DMA_ChannelType* DMAChx, uint32_t addr)
 213:../firmware/n32g430_std_periph_driver/src/n32g430_dma.c **** {
 329              		.loc 1 213 1
 330              		.cfi_startproc
 331              		@ args = 0, pretend = 0, frame = 8
 332              		@ frame_needed = 1, uses_anonymous_args = 0
 333              		@ link register save eliminated.
 334 0000 80B4     		push	{r7}
 335              	.LCFI11:
 336              		.cfi_def_cfa_offset 4
 337              		.cfi_offset 7, -4
 338 0002 83B0     		sub	sp, sp, #12
 339              	.LCFI12:
 340              		.cfi_def_cfa_offset 16
 341 0004 00AF     		add	r7, sp, #0
ARM GAS  C:\Users\ZShuai\AppData\Local\Temp\cc5WYDZP.s 			page 11


 342              	.LCFI13:
 343              		.cfi_def_cfa_register 7
 344 0006 7860     		str	r0, [r7, #4]
 345 0008 3960     		str	r1, [r7]
 214:../firmware/n32g430_std_periph_driver/src/n32g430_dma.c ****     /* Write to DMA Channelx PADDR */
 215:../firmware/n32g430_std_periph_driver/src/n32g430_dma.c ****     DMAChx->PADDR = addr;
 346              		.loc 1 215 19
 347 000a 7B68     		ldr	r3, [r7, #4]
 348 000c 3A68     		ldr	r2, [r7]
 349 000e 9A60     		str	r2, [r3, #8]
 216:../firmware/n32g430_std_periph_driver/src/n32g430_dma.c **** }
 350              		.loc 1 216 1
 351 0010 00BF     		nop
 352 0012 0C37     		adds	r7, r7, #12
 353              	.LCFI14:
 354              		.cfi_def_cfa_offset 4
 355 0014 BD46     		mov	sp, r7
 356              	.LCFI15:
 357              		.cfi_def_cfa_register 13
 358              		@ sp needed
 359 0016 5DF8047B 		ldr	r7, [sp], #4
 360              	.LCFI16:
 361              		.cfi_restore 7
 362              		.cfi_def_cfa_offset 0
 363 001a 7047     		bx	lr
 364              		.cfi_endproc
 365              	.LFE132:
 367              		.section	.text.DMA_Memory_Address_Config,"ax",%progbits
 368              		.align	1
 369              		.global	DMA_Memory_Address_Config
 370              		.syntax unified
 371              		.thumb
 372              		.thumb_func
 374              	DMA_Memory_Address_Config:
 375              	.LFB133:
 217:../firmware/n32g430_std_periph_driver/src/n32g430_dma.c **** 
 218:../firmware/n32g430_std_periph_driver/src/n32g430_dma.c **** /**
 219:../firmware/n32g430_std_periph_driver/src/n32g430_dma.c **** *\*\name    DMA_Memory_Address_Config.
 220:../firmware/n32g430_std_periph_driver/src/n32g430_dma.c **** *\*\fun     Initializes the DMA Channelx memory address.
 221:../firmware/n32g430_std_periph_driver/src/n32g430_dma.c **** *\*\param   DMAChx :
 222:../firmware/n32g430_std_periph_driver/src/n32g430_dma.c **** *\*\          - DMA_CH1
 223:../firmware/n32g430_std_periph_driver/src/n32g430_dma.c **** *\*\          - DMA_CH2
 224:../firmware/n32g430_std_periph_driver/src/n32g430_dma.c **** *\*\          - DMA_CH3
 225:../firmware/n32g430_std_periph_driver/src/n32g430_dma.c **** *\*\          - DMA_CH4
 226:../firmware/n32g430_std_periph_driver/src/n32g430_dma.c **** *\*\          - DMA_CH5
 227:../firmware/n32g430_std_periph_driver/src/n32g430_dma.c **** *\*\          - DMA_CH6
 228:../firmware/n32g430_std_periph_driver/src/n32g430_dma.c **** *\*\          - DMA_CH7
 229:../firmware/n32g430_std_periph_driver/src/n32g430_dma.c **** *\*\          - DMA_CH8
 230:../firmware/n32g430_std_periph_driver/src/n32g430_dma.c **** *\*\param   addr :
 231:../firmware/n32g430_std_periph_driver/src/n32g430_dma.c **** *\*\return  none
 232:../firmware/n32g430_std_periph_driver/src/n32g430_dma.c **** **/
 233:../firmware/n32g430_std_periph_driver/src/n32g430_dma.c **** void DMA_Memory_Address_Config(DMA_ChannelType* DMAChx, uint32_t addr)
 234:../firmware/n32g430_std_periph_driver/src/n32g430_dma.c **** {
 376              		.loc 1 234 1
 377              		.cfi_startproc
 378              		@ args = 0, pretend = 0, frame = 8
 379              		@ frame_needed = 1, uses_anonymous_args = 0
ARM GAS  C:\Users\ZShuai\AppData\Local\Temp\cc5WYDZP.s 			page 12


 380              		@ link register save eliminated.
 381 0000 80B4     		push	{r7}
 382              	.LCFI17:
 383              		.cfi_def_cfa_offset 4
 384              		.cfi_offset 7, -4
 385 0002 83B0     		sub	sp, sp, #12
 386              	.LCFI18:
 387              		.cfi_def_cfa_offset 16
 388 0004 00AF     		add	r7, sp, #0
 389              	.LCFI19:
 390              		.cfi_def_cfa_register 7
 391 0006 7860     		str	r0, [r7, #4]
 392 0008 3960     		str	r1, [r7]
 235:../firmware/n32g430_std_periph_driver/src/n32g430_dma.c ****     /* Write to DMA Channelx MADDR */
 236:../firmware/n32g430_std_periph_driver/src/n32g430_dma.c ****     DMAChx->MADDR = addr;
 393              		.loc 1 236 19
 394 000a 7B68     		ldr	r3, [r7, #4]
 395 000c 3A68     		ldr	r2, [r7]
 396 000e DA60     		str	r2, [r3, #12]
 237:../firmware/n32g430_std_periph_driver/src/n32g430_dma.c **** }
 397              		.loc 1 237 1
 398 0010 00BF     		nop
 399 0012 0C37     		adds	r7, r7, #12
 400              	.LCFI20:
 401              		.cfi_def_cfa_offset 4
 402 0014 BD46     		mov	sp, r7
 403              	.LCFI21:
 404              		.cfi_def_cfa_register 13
 405              		@ sp needed
 406 0016 5DF8047B 		ldr	r7, [sp], #4
 407              	.LCFI22:
 408              		.cfi_restore 7
 409              		.cfi_def_cfa_offset 0
 410 001a 7047     		bx	lr
 411              		.cfi_endproc
 412              	.LFE133:
 414              		.section	.text.DMA_Destination_Config,"ax",%progbits
 415              		.align	1
 416              		.global	DMA_Destination_Config
 417              		.syntax unified
 418              		.thumb
 419              		.thumb_func
 421              	DMA_Destination_Config:
 422              	.LFB134:
 238:../firmware/n32g430_std_periph_driver/src/n32g430_dma.c **** 
 239:../firmware/n32g430_std_periph_driver/src/n32g430_dma.c **** /**
 240:../firmware/n32g430_std_periph_driver/src/n32g430_dma.c **** *\*\name    DMA_Destination_Config.
 241:../firmware/n32g430_std_periph_driver/src/n32g430_dma.c **** *\*\fun     Initializes the DMA Channelx Direction value.
 242:../firmware/n32g430_std_periph_driver/src/n32g430_dma.c **** *\*\param   DMAChx :
 243:../firmware/n32g430_std_periph_driver/src/n32g430_dma.c **** *\*\          - DMA_CH1
 244:../firmware/n32g430_std_periph_driver/src/n32g430_dma.c **** *\*\          - DMA_CH2
 245:../firmware/n32g430_std_periph_driver/src/n32g430_dma.c **** *\*\          - DMA_CH3
 246:../firmware/n32g430_std_periph_driver/src/n32g430_dma.c **** *\*\          - DMA_CH4
 247:../firmware/n32g430_std_periph_driver/src/n32g430_dma.c **** *\*\          - DMA_CH5
 248:../firmware/n32g430_std_periph_driver/src/n32g430_dma.c **** *\*\          - DMA_CH6
 249:../firmware/n32g430_std_periph_driver/src/n32g430_dma.c **** *\*\          - DMA_CH7
 250:../firmware/n32g430_std_periph_driver/src/n32g430_dma.c **** *\*\          - DMA_CH8
ARM GAS  C:\Users\ZShuai\AppData\Local\Temp\cc5WYDZP.s 			page 13


 251:../firmware/n32g430_std_periph_driver/src/n32g430_dma.c **** *\*\param   direction :
 252:../firmware/n32g430_std_periph_driver/src/n32g430_dma.c **** *\*\          - DMA_DIR_PERIPH_DST
 253:../firmware/n32g430_std_periph_driver/src/n32g430_dma.c **** *\*\          - DMA_DIR_PERIPH_SRC
 254:../firmware/n32g430_std_periph_driver/src/n32g430_dma.c **** *\*\return  none
 255:../firmware/n32g430_std_periph_driver/src/n32g430_dma.c **** **/
 256:../firmware/n32g430_std_periph_driver/src/n32g430_dma.c **** void DMA_Destination_Config(DMA_ChannelType* DMAChx, uint32_t direction)
 257:../firmware/n32g430_std_periph_driver/src/n32g430_dma.c **** {
 423              		.loc 1 257 1
 424              		.cfi_startproc
 425              		@ args = 0, pretend = 0, frame = 8
 426              		@ frame_needed = 1, uses_anonymous_args = 0
 427              		@ link register save eliminated.
 428 0000 80B4     		push	{r7}
 429              	.LCFI23:
 430              		.cfi_def_cfa_offset 4
 431              		.cfi_offset 7, -4
 432 0002 83B0     		sub	sp, sp, #12
 433              	.LCFI24:
 434              		.cfi_def_cfa_offset 16
 435 0004 00AF     		add	r7, sp, #0
 436              	.LCFI25:
 437              		.cfi_def_cfa_register 7
 438 0006 7860     		str	r0, [r7, #4]
 439 0008 3960     		str	r1, [r7]
 258:../firmware/n32g430_std_periph_driver/src/n32g430_dma.c ****     /* Clear DMAChx_CHCFG DIR bits */
 259:../firmware/n32g430_std_periph_driver/src/n32g430_dma.c ****     DMAChx->CHCFG &= DMA_DIR_PERIPH_MASK;
 440              		.loc 1 259 11
 441 000a 7B68     		ldr	r3, [r7, #4]
 442 000c 1B68     		ldr	r3, [r3]
 443              		.loc 1 259 19
 444 000e 23F01002 		bic	r2, r3, #16
 445 0012 7B68     		ldr	r3, [r7, #4]
 446 0014 1A60     		str	r2, [r3]
 260:../firmware/n32g430_std_periph_driver/src/n32g430_dma.c ****     /* Set DMAChx_CHCFG DIR bits */
 261:../firmware/n32g430_std_periph_driver/src/n32g430_dma.c ****     DMAChx->CHCFG |= direction;
 447              		.loc 1 261 11
 448 0016 7B68     		ldr	r3, [r7, #4]
 449 0018 1A68     		ldr	r2, [r3]
 450              		.loc 1 261 19
 451 001a 3B68     		ldr	r3, [r7]
 452 001c 1A43     		orrs	r2, r2, r3
 453 001e 7B68     		ldr	r3, [r7, #4]
 454 0020 1A60     		str	r2, [r3]
 262:../firmware/n32g430_std_periph_driver/src/n32g430_dma.c **** }
 455              		.loc 1 262 1
 456 0022 00BF     		nop
 457 0024 0C37     		adds	r7, r7, #12
 458              	.LCFI26:
 459              		.cfi_def_cfa_offset 4
 460 0026 BD46     		mov	sp, r7
 461              	.LCFI27:
 462              		.cfi_def_cfa_register 13
 463              		@ sp needed
 464 0028 5DF8047B 		ldr	r7, [sp], #4
 465              	.LCFI28:
 466              		.cfi_restore 7
 467              		.cfi_def_cfa_offset 0
ARM GAS  C:\Users\ZShuai\AppData\Local\Temp\cc5WYDZP.s 			page 14


 468 002c 7047     		bx	lr
 469              		.cfi_endproc
 470              	.LFE134:
 472              		.section	.text.DMA_Buffer_Size_Config,"ax",%progbits
 473              		.align	1
 474              		.global	DMA_Buffer_Size_Config
 475              		.syntax unified
 476              		.thumb
 477              		.thumb_func
 479              	DMA_Buffer_Size_Config:
 480              	.LFB135:
 263:../firmware/n32g430_std_periph_driver/src/n32g430_dma.c **** 
 264:../firmware/n32g430_std_periph_driver/src/n32g430_dma.c **** /**
 265:../firmware/n32g430_std_periph_driver/src/n32g430_dma.c **** *\*\name    DMA_Buffer_Size_Config.
 266:../firmware/n32g430_std_periph_driver/src/n32g430_dma.c **** *\*\fun     Initializes the DMA Channelx buffer size.
 267:../firmware/n32g430_std_periph_driver/src/n32g430_dma.c **** *\*\param   DMAChx :
 268:../firmware/n32g430_std_periph_driver/src/n32g430_dma.c **** *\*\          - DMA_CH1
 269:../firmware/n32g430_std_periph_driver/src/n32g430_dma.c **** *\*\          - DMA_CH2
 270:../firmware/n32g430_std_periph_driver/src/n32g430_dma.c **** *\*\          - DMA_CH3
 271:../firmware/n32g430_std_periph_driver/src/n32g430_dma.c **** *\*\          - DMA_CH4
 272:../firmware/n32g430_std_periph_driver/src/n32g430_dma.c **** *\*\          - DMA_CH5
 273:../firmware/n32g430_std_periph_driver/src/n32g430_dma.c **** *\*\          - DMA_CH6
 274:../firmware/n32g430_std_periph_driver/src/n32g430_dma.c **** *\*\          - DMA_CH7
 275:../firmware/n32g430_std_periph_driver/src/n32g430_dma.c **** *\*\          - DMA_CH8
 276:../firmware/n32g430_std_periph_driver/src/n32g430_dma.c **** *\*\param   buf_size :
 277:../firmware/n32g430_std_periph_driver/src/n32g430_dma.c **** *\*\return  none
 278:../firmware/n32g430_std_periph_driver/src/n32g430_dma.c **** **/
 279:../firmware/n32g430_std_periph_driver/src/n32g430_dma.c **** void DMA_Buffer_Size_Config(DMA_ChannelType* DMAChx, uint32_t buf_size)
 280:../firmware/n32g430_std_periph_driver/src/n32g430_dma.c **** {
 481              		.loc 1 280 1
 482              		.cfi_startproc
 483              		@ args = 0, pretend = 0, frame = 8
 484              		@ frame_needed = 1, uses_anonymous_args = 0
 485              		@ link register save eliminated.
 486 0000 80B4     		push	{r7}
 487              	.LCFI29:
 488              		.cfi_def_cfa_offset 4
 489              		.cfi_offset 7, -4
 490 0002 83B0     		sub	sp, sp, #12
 491              	.LCFI30:
 492              		.cfi_def_cfa_offset 16
 493 0004 00AF     		add	r7, sp, #0
 494              	.LCFI31:
 495              		.cfi_def_cfa_register 7
 496 0006 7860     		str	r0, [r7, #4]
 497 0008 3960     		str	r1, [r7]
 281:../firmware/n32g430_std_periph_driver/src/n32g430_dma.c ****     /* Write to DMA Channelx TXNUM */
 282:../firmware/n32g430_std_periph_driver/src/n32g430_dma.c ****     DMAChx->TXNUM = buf_size;
 498              		.loc 1 282 19
 499 000a 7B68     		ldr	r3, [r7, #4]
 500 000c 3A68     		ldr	r2, [r7]
 501 000e 5A60     		str	r2, [r3, #4]
 283:../firmware/n32g430_std_periph_driver/src/n32g430_dma.c **** }
 502              		.loc 1 283 1
 503 0010 00BF     		nop
 504 0012 0C37     		adds	r7, r7, #12
 505              	.LCFI32:
ARM GAS  C:\Users\ZShuai\AppData\Local\Temp\cc5WYDZP.s 			page 15


 506              		.cfi_def_cfa_offset 4
 507 0014 BD46     		mov	sp, r7
 508              	.LCFI33:
 509              		.cfi_def_cfa_register 13
 510              		@ sp needed
 511 0016 5DF8047B 		ldr	r7, [sp], #4
 512              	.LCFI34:
 513              		.cfi_restore 7
 514              		.cfi_def_cfa_offset 0
 515 001a 7047     		bx	lr
 516              		.cfi_endproc
 517              	.LFE135:
 519              		.section	.text.DMA_Peripheral_Addr_Increment_Config,"ax",%progbits
 520              		.align	1
 521              		.global	DMA_Peripheral_Addr_Increment_Config
 522              		.syntax unified
 523              		.thumb
 524              		.thumb_func
 526              	DMA_Peripheral_Addr_Increment_Config:
 527              	.LFB136:
 284:../firmware/n32g430_std_periph_driver/src/n32g430_dma.c **** 
 285:../firmware/n32g430_std_periph_driver/src/n32g430_dma.c **** /**
 286:../firmware/n32g430_std_periph_driver/src/n32g430_dma.c **** *\*\name    DMA_Peripheral_Addr_Increment_Config.
 287:../firmware/n32g430_std_periph_driver/src/n32g430_dma.c **** *\*\fun     Initializes the DMA Channelx PeriphInc value.
 288:../firmware/n32g430_std_periph_driver/src/n32g430_dma.c **** *\*\param   DMAChx :
 289:../firmware/n32g430_std_periph_driver/src/n32g430_dma.c **** *\*\          - DMA_CH1
 290:../firmware/n32g430_std_periph_driver/src/n32g430_dma.c **** *\*\          - DMA_CH2
 291:../firmware/n32g430_std_periph_driver/src/n32g430_dma.c **** *\*\          - DMA_CH3
 292:../firmware/n32g430_std_periph_driver/src/n32g430_dma.c **** *\*\          - DMA_CH4
 293:../firmware/n32g430_std_periph_driver/src/n32g430_dma.c **** *\*\          - DMA_CH5
 294:../firmware/n32g430_std_periph_driver/src/n32g430_dma.c **** *\*\          - DMA_CH6
 295:../firmware/n32g430_std_periph_driver/src/n32g430_dma.c **** *\*\          - DMA_CH7
 296:../firmware/n32g430_std_periph_driver/src/n32g430_dma.c **** *\*\          - DMA_CH8
 297:../firmware/n32g430_std_periph_driver/src/n32g430_dma.c **** *\*\param   periph_inc :
 298:../firmware/n32g430_std_periph_driver/src/n32g430_dma.c **** *\*\          - DMA_PERIPH_INC_MODE_ENABLE
 299:../firmware/n32g430_std_periph_driver/src/n32g430_dma.c **** *\*\          - DMA_PERIPH_INC_MODE_DISABLE
 300:../firmware/n32g430_std_periph_driver/src/n32g430_dma.c **** *\*\return  none
 301:../firmware/n32g430_std_periph_driver/src/n32g430_dma.c **** **/
 302:../firmware/n32g430_std_periph_driver/src/n32g430_dma.c **** void DMA_Peripheral_Addr_Increment_Config(DMA_ChannelType* DMAChx, uint32_t periph_inc)
 303:../firmware/n32g430_std_periph_driver/src/n32g430_dma.c **** {
 528              		.loc 1 303 1
 529              		.cfi_startproc
 530              		@ args = 0, pretend = 0, frame = 8
 531              		@ frame_needed = 1, uses_anonymous_args = 0
 532              		@ link register save eliminated.
 533 0000 80B4     		push	{r7}
 534              	.LCFI35:
 535              		.cfi_def_cfa_offset 4
 536              		.cfi_offset 7, -4
 537 0002 83B0     		sub	sp, sp, #12
 538              	.LCFI36:
 539              		.cfi_def_cfa_offset 16
 540 0004 00AF     		add	r7, sp, #0
 541              	.LCFI37:
 542              		.cfi_def_cfa_register 7
 543 0006 7860     		str	r0, [r7, #4]
 544 0008 3960     		str	r1, [r7]
ARM GAS  C:\Users\ZShuai\AppData\Local\Temp\cc5WYDZP.s 			page 16


 304:../firmware/n32g430_std_periph_driver/src/n32g430_dma.c ****     /* Clear DMAChx_CHCFG PINC bits */
 305:../firmware/n32g430_std_periph_driver/src/n32g430_dma.c ****     DMAChx->CHCFG &= DMA_PERIPH_INC_MODE_MASK;
 545              		.loc 1 305 11
 546 000a 7B68     		ldr	r3, [r7, #4]
 547 000c 1B68     		ldr	r3, [r3]
 548              		.loc 1 305 19
 549 000e 23F04002 		bic	r2, r3, #64
 550 0012 7B68     		ldr	r3, [r7, #4]
 551 0014 1A60     		str	r2, [r3]
 306:../firmware/n32g430_std_periph_driver/src/n32g430_dma.c ****     /* Set DMAChx_CHCFG PINC bits */
 307:../firmware/n32g430_std_periph_driver/src/n32g430_dma.c ****     DMAChx->CHCFG |= periph_inc;
 552              		.loc 1 307 11
 553 0016 7B68     		ldr	r3, [r7, #4]
 554 0018 1A68     		ldr	r2, [r3]
 555              		.loc 1 307 19
 556 001a 3B68     		ldr	r3, [r7]
 557 001c 1A43     		orrs	r2, r2, r3
 558 001e 7B68     		ldr	r3, [r7, #4]
 559 0020 1A60     		str	r2, [r3]
 308:../firmware/n32g430_std_periph_driver/src/n32g430_dma.c **** }
 560              		.loc 1 308 1
 561 0022 00BF     		nop
 562 0024 0C37     		adds	r7, r7, #12
 563              	.LCFI38:
 564              		.cfi_def_cfa_offset 4
 565 0026 BD46     		mov	sp, r7
 566              	.LCFI39:
 567              		.cfi_def_cfa_register 13
 568              		@ sp needed
 569 0028 5DF8047B 		ldr	r7, [sp], #4
 570              	.LCFI40:
 571              		.cfi_restore 7
 572              		.cfi_def_cfa_offset 0
 573 002c 7047     		bx	lr
 574              		.cfi_endproc
 575              	.LFE136:
 577              		.section	.text.DMA_Memory_Addr_Increment_Config,"ax",%progbits
 578              		.align	1
 579              		.global	DMA_Memory_Addr_Increment_Config
 580              		.syntax unified
 581              		.thumb
 582              		.thumb_func
 584              	DMA_Memory_Addr_Increment_Config:
 585              	.LFB137:
 309:../firmware/n32g430_std_periph_driver/src/n32g430_dma.c **** 
 310:../firmware/n32g430_std_periph_driver/src/n32g430_dma.c **** /**
 311:../firmware/n32g430_std_periph_driver/src/n32g430_dma.c **** *\*\name    DMA_Memory_Addr_Increment_Config.
 312:../firmware/n32g430_std_periph_driver/src/n32g430_dma.c **** *\*\fun     Initializes the DMA Channelx DMA_MemoryInc value.
 313:../firmware/n32g430_std_periph_driver/src/n32g430_dma.c **** *\*\param   DMAChx :
 314:../firmware/n32g430_std_periph_driver/src/n32g430_dma.c **** *\*\          - DMA_CH1
 315:../firmware/n32g430_std_periph_driver/src/n32g430_dma.c **** *\*\          - DMA_CH2
 316:../firmware/n32g430_std_periph_driver/src/n32g430_dma.c **** *\*\          - DMA_CH3
 317:../firmware/n32g430_std_periph_driver/src/n32g430_dma.c **** *\*\          - DMA_CH4
 318:../firmware/n32g430_std_periph_driver/src/n32g430_dma.c **** *\*\          - DMA_CH5
 319:../firmware/n32g430_std_periph_driver/src/n32g430_dma.c **** *\*\          - DMA_CH6
 320:../firmware/n32g430_std_periph_driver/src/n32g430_dma.c **** *\*\          - DMA_CH7
 321:../firmware/n32g430_std_periph_driver/src/n32g430_dma.c **** *\*\          - DMA_CH8
ARM GAS  C:\Users\ZShuai\AppData\Local\Temp\cc5WYDZP.s 			page 17


 322:../firmware/n32g430_std_periph_driver/src/n32g430_dma.c **** *\*\param   memory_inc :
 323:../firmware/n32g430_std_periph_driver/src/n32g430_dma.c **** *\*\          - DMA_MEM_INC_MODE_ENABLE
 324:../firmware/n32g430_std_periph_driver/src/n32g430_dma.c **** *\*\          - DMA_MEM_INC_MODE_DISABLE
 325:../firmware/n32g430_std_periph_driver/src/n32g430_dma.c **** *\*\return  none
 326:../firmware/n32g430_std_periph_driver/src/n32g430_dma.c **** **/
 327:../firmware/n32g430_std_periph_driver/src/n32g430_dma.c **** void DMA_Memory_Addr_Increment_Config(DMA_ChannelType* DMAChx, uint32_t memory_inc)
 328:../firmware/n32g430_std_periph_driver/src/n32g430_dma.c **** {
 586              		.loc 1 328 1
 587              		.cfi_startproc
 588              		@ args = 0, pretend = 0, frame = 8
 589              		@ frame_needed = 1, uses_anonymous_args = 0
 590              		@ link register save eliminated.
 591 0000 80B4     		push	{r7}
 592              	.LCFI41:
 593              		.cfi_def_cfa_offset 4
 594              		.cfi_offset 7, -4
 595 0002 83B0     		sub	sp, sp, #12
 596              	.LCFI42:
 597              		.cfi_def_cfa_offset 16
 598 0004 00AF     		add	r7, sp, #0
 599              	.LCFI43:
 600              		.cfi_def_cfa_register 7
 601 0006 7860     		str	r0, [r7, #4]
 602 0008 3960     		str	r1, [r7]
 329:../firmware/n32g430_std_periph_driver/src/n32g430_dma.c ****     /* Clear DMAChx_CHCFG MINC bits */
 330:../firmware/n32g430_std_periph_driver/src/n32g430_dma.c ****     DMAChx->CHCFG &= DMA_MEM_INC_MODE_MASK;
 603              		.loc 1 330 11
 604 000a 7B68     		ldr	r3, [r7, #4]
 605 000c 1B68     		ldr	r3, [r3]
 606              		.loc 1 330 19
 607 000e 23F08002 		bic	r2, r3, #128
 608 0012 7B68     		ldr	r3, [r7, #4]
 609 0014 1A60     		str	r2, [r3]
 331:../firmware/n32g430_std_periph_driver/src/n32g430_dma.c ****     /* Set DMAChx_CHCFG MINC bits */
 332:../firmware/n32g430_std_periph_driver/src/n32g430_dma.c ****     DMAChx->CHCFG |= memory_inc;
 610              		.loc 1 332 11
 611 0016 7B68     		ldr	r3, [r7, #4]
 612 0018 1A68     		ldr	r2, [r3]
 613              		.loc 1 332 19
 614 001a 3B68     		ldr	r3, [r7]
 615 001c 1A43     		orrs	r2, r2, r3
 616 001e 7B68     		ldr	r3, [r7, #4]
 617 0020 1A60     		str	r2, [r3]
 333:../firmware/n32g430_std_periph_driver/src/n32g430_dma.c **** }
 618              		.loc 1 333 1
 619 0022 00BF     		nop
 620 0024 0C37     		adds	r7, r7, #12
 621              	.LCFI44:
 622              		.cfi_def_cfa_offset 4
 623 0026 BD46     		mov	sp, r7
 624              	.LCFI45:
 625              		.cfi_def_cfa_register 13
 626              		@ sp needed
 627 0028 5DF8047B 		ldr	r7, [sp], #4
 628              	.LCFI46:
 629              		.cfi_restore 7
 630              		.cfi_def_cfa_offset 0
ARM GAS  C:\Users\ZShuai\AppData\Local\Temp\cc5WYDZP.s 			page 18


 631 002c 7047     		bx	lr
 632              		.cfi_endproc
 633              	.LFE137:
 635              		.section	.text.DMA_Peripheral_Data_Width_Config,"ax",%progbits
 636              		.align	1
 637              		.global	DMA_Peripheral_Data_Width_Config
 638              		.syntax unified
 639              		.thumb
 640              		.thumb_func
 642              	DMA_Peripheral_Data_Width_Config:
 643              	.LFB138:
 334:../firmware/n32g430_std_periph_driver/src/n32g430_dma.c **** 
 335:../firmware/n32g430_std_periph_driver/src/n32g430_dma.c **** /**
 336:../firmware/n32g430_std_periph_driver/src/n32g430_dma.c **** *\*\name    DMA_Peripheral_Data_Width_Config.
 337:../firmware/n32g430_std_periph_driver/src/n32g430_dma.c **** *\*\fun     Initializes the DMA Channelx PeriphDataSize value.
 338:../firmware/n32g430_std_periph_driver/src/n32g430_dma.c **** *\*\param   DMAChx :
 339:../firmware/n32g430_std_periph_driver/src/n32g430_dma.c **** *\*\          - DMA_CH1
 340:../firmware/n32g430_std_periph_driver/src/n32g430_dma.c **** *\*\          - DMA_CH2
 341:../firmware/n32g430_std_periph_driver/src/n32g430_dma.c **** *\*\          - DMA_CH3
 342:../firmware/n32g430_std_periph_driver/src/n32g430_dma.c **** *\*\          - DMA_CH4
 343:../firmware/n32g430_std_periph_driver/src/n32g430_dma.c **** *\*\          - DMA_CH5
 344:../firmware/n32g430_std_periph_driver/src/n32g430_dma.c **** *\*\          - DMA_CH6
 345:../firmware/n32g430_std_periph_driver/src/n32g430_dma.c **** *\*\          - DMA_CH7
 346:../firmware/n32g430_std_periph_driver/src/n32g430_dma.c **** *\*\          - DMA_CH8
 347:../firmware/n32g430_std_periph_driver/src/n32g430_dma.c **** *\*\param   width :
 348:../firmware/n32g430_std_periph_driver/src/n32g430_dma.c **** *\*\          - DMA_PERIPH_DATA_WIDTH_BYTE
 349:../firmware/n32g430_std_periph_driver/src/n32g430_dma.c **** *\*\          - DMA_PERIPH_DATA_WIDTH_HALFWORD
 350:../firmware/n32g430_std_periph_driver/src/n32g430_dma.c **** *\*\          - DMA_PERIPH_DATA_WIDTH_WORD
 351:../firmware/n32g430_std_periph_driver/src/n32g430_dma.c **** *\*\return  none
 352:../firmware/n32g430_std_periph_driver/src/n32g430_dma.c **** **/
 353:../firmware/n32g430_std_periph_driver/src/n32g430_dma.c **** void DMA_Peripheral_Data_Width_Config(DMA_ChannelType* DMAChx, uint32_t width)
 354:../firmware/n32g430_std_periph_driver/src/n32g430_dma.c **** {
 644              		.loc 1 354 1
 645              		.cfi_startproc
 646              		@ args = 0, pretend = 0, frame = 8
 647              		@ frame_needed = 1, uses_anonymous_args = 0
 648              		@ link register save eliminated.
 649 0000 80B4     		push	{r7}
 650              	.LCFI47:
 651              		.cfi_def_cfa_offset 4
 652              		.cfi_offset 7, -4
 653 0002 83B0     		sub	sp, sp, #12
 654              	.LCFI48:
 655              		.cfi_def_cfa_offset 16
 656 0004 00AF     		add	r7, sp, #0
 657              	.LCFI49:
 658              		.cfi_def_cfa_register 7
 659 0006 7860     		str	r0, [r7, #4]
 660 0008 3960     		str	r1, [r7]
 355:../firmware/n32g430_std_periph_driver/src/n32g430_dma.c ****     /* Clear DMAChx_CHCFG PSIZE[1:0] bits */
 356:../firmware/n32g430_std_periph_driver/src/n32g430_dma.c ****     DMAChx->CHCFG &= DMA_PERIPH_DATA_WIDTH_MASK;
 661              		.loc 1 356 11
 662 000a 7B68     		ldr	r3, [r7, #4]
 663 000c 1B68     		ldr	r3, [r3]
 664              		.loc 1 356 19
 665 000e 23F44072 		bic	r2, r3, #768
 666 0012 7B68     		ldr	r3, [r7, #4]
ARM GAS  C:\Users\ZShuai\AppData\Local\Temp\cc5WYDZP.s 			page 19


 667 0014 1A60     		str	r2, [r3]
 357:../firmware/n32g430_std_periph_driver/src/n32g430_dma.c ****     /* Set DMAChx_CHCFG PSIZE[1:0] bits */
 358:../firmware/n32g430_std_periph_driver/src/n32g430_dma.c ****     DMAChx->CHCFG |= width;
 668              		.loc 1 358 11
 669 0016 7B68     		ldr	r3, [r7, #4]
 670 0018 1A68     		ldr	r2, [r3]
 671              		.loc 1 358 19
 672 001a 3B68     		ldr	r3, [r7]
 673 001c 1A43     		orrs	r2, r2, r3
 674 001e 7B68     		ldr	r3, [r7, #4]
 675 0020 1A60     		str	r2, [r3]
 359:../firmware/n32g430_std_periph_driver/src/n32g430_dma.c **** }
 676              		.loc 1 359 1
 677 0022 00BF     		nop
 678 0024 0C37     		adds	r7, r7, #12
 679              	.LCFI50:
 680              		.cfi_def_cfa_offset 4
 681 0026 BD46     		mov	sp, r7
 682              	.LCFI51:
 683              		.cfi_def_cfa_register 13
 684              		@ sp needed
 685 0028 5DF8047B 		ldr	r7, [sp], #4
 686              	.LCFI52:
 687              		.cfi_restore 7
 688              		.cfi_def_cfa_offset 0
 689 002c 7047     		bx	lr
 690              		.cfi_endproc
 691              	.LFE138:
 693              		.section	.text.DMA_Memory_Data_Width_Config,"ax",%progbits
 694              		.align	1
 695              		.global	DMA_Memory_Data_Width_Config
 696              		.syntax unified
 697              		.thumb
 698              		.thumb_func
 700              	DMA_Memory_Data_Width_Config:
 701              	.LFB139:
 360:../firmware/n32g430_std_periph_driver/src/n32g430_dma.c **** 
 361:../firmware/n32g430_std_periph_driver/src/n32g430_dma.c **** /**
 362:../firmware/n32g430_std_periph_driver/src/n32g430_dma.c **** *\*\name    DMA_Memory_Data_Width_Config.
 363:../firmware/n32g430_std_periph_driver/src/n32g430_dma.c **** *\*\fun     Initializes the DMA Channelx MemDataSize value.
 364:../firmware/n32g430_std_periph_driver/src/n32g430_dma.c **** *\*\param   DMAChx :
 365:../firmware/n32g430_std_periph_driver/src/n32g430_dma.c **** *\*\          - DMA_CH1
 366:../firmware/n32g430_std_periph_driver/src/n32g430_dma.c **** *\*\          - DMA_CH2
 367:../firmware/n32g430_std_periph_driver/src/n32g430_dma.c **** *\*\          - DMA_CH3
 368:../firmware/n32g430_std_periph_driver/src/n32g430_dma.c **** *\*\          - DMA_CH4
 369:../firmware/n32g430_std_periph_driver/src/n32g430_dma.c **** *\*\          - DMA_CH5
 370:../firmware/n32g430_std_periph_driver/src/n32g430_dma.c **** *\*\          - DMA_CH6
 371:../firmware/n32g430_std_periph_driver/src/n32g430_dma.c **** *\*\          - DMA_CH7
 372:../firmware/n32g430_std_periph_driver/src/n32g430_dma.c **** *\*\          - DMA_CH8
 373:../firmware/n32g430_std_periph_driver/src/n32g430_dma.c **** *\*\param   width :
 374:../firmware/n32g430_std_periph_driver/src/n32g430_dma.c **** *\*\          - DMA_MEM_DATA_WIDTH_BYTE
 375:../firmware/n32g430_std_periph_driver/src/n32g430_dma.c **** *\*\          - DMA_MEM_DATA_WIDTH_HALFWORD
 376:../firmware/n32g430_std_periph_driver/src/n32g430_dma.c **** *\*\          - DMA_MEM_DATA_WIDTH_WORD
 377:../firmware/n32g430_std_periph_driver/src/n32g430_dma.c **** *\*\return  none
 378:../firmware/n32g430_std_periph_driver/src/n32g430_dma.c **** **/
 379:../firmware/n32g430_std_periph_driver/src/n32g430_dma.c **** void DMA_Memory_Data_Width_Config(DMA_ChannelType* DMAChx, uint32_t width)
 380:../firmware/n32g430_std_periph_driver/src/n32g430_dma.c **** {
ARM GAS  C:\Users\ZShuai\AppData\Local\Temp\cc5WYDZP.s 			page 20


 702              		.loc 1 380 1
 703              		.cfi_startproc
 704              		@ args = 0, pretend = 0, frame = 8
 705              		@ frame_needed = 1, uses_anonymous_args = 0
 706              		@ link register save eliminated.
 707 0000 80B4     		push	{r7}
 708              	.LCFI53:
 709              		.cfi_def_cfa_offset 4
 710              		.cfi_offset 7, -4
 711 0002 83B0     		sub	sp, sp, #12
 712              	.LCFI54:
 713              		.cfi_def_cfa_offset 16
 714 0004 00AF     		add	r7, sp, #0
 715              	.LCFI55:
 716              		.cfi_def_cfa_register 7
 717 0006 7860     		str	r0, [r7, #4]
 718 0008 3960     		str	r1, [r7]
 381:../firmware/n32g430_std_periph_driver/src/n32g430_dma.c ****     /* Clear DMAChx_CHCFG MSIZE[1:0] bits */
 382:../firmware/n32g430_std_periph_driver/src/n32g430_dma.c ****     DMAChx->CHCFG &= DMA_MEM_DATA_WIDTH_MASK;
 719              		.loc 1 382 11
 720 000a 7B68     		ldr	r3, [r7, #4]
 721 000c 1B68     		ldr	r3, [r3]
 722              		.loc 1 382 19
 723 000e 23F44062 		bic	r2, r3, #3072
 724 0012 7B68     		ldr	r3, [r7, #4]
 725 0014 1A60     		str	r2, [r3]
 383:../firmware/n32g430_std_periph_driver/src/n32g430_dma.c ****     /* Set DMAChx_CHCFG MSIZE[1:0] bits */
 384:../firmware/n32g430_std_periph_driver/src/n32g430_dma.c ****     DMAChx->CHCFG |= width;
 726              		.loc 1 384 11
 727 0016 7B68     		ldr	r3, [r7, #4]
 728 0018 1A68     		ldr	r2, [r3]
 729              		.loc 1 384 19
 730 001a 3B68     		ldr	r3, [r7]
 731 001c 1A43     		orrs	r2, r2, r3
 732 001e 7B68     		ldr	r3, [r7, #4]
 733 0020 1A60     		str	r2, [r3]
 385:../firmware/n32g430_std_periph_driver/src/n32g430_dma.c **** }
 734              		.loc 1 385 1
 735 0022 00BF     		nop
 736 0024 0C37     		adds	r7, r7, #12
 737              	.LCFI56:
 738              		.cfi_def_cfa_offset 4
 739 0026 BD46     		mov	sp, r7
 740              	.LCFI57:
 741              		.cfi_def_cfa_register 13
 742              		@ sp needed
 743 0028 5DF8047B 		ldr	r7, [sp], #4
 744              	.LCFI58:
 745              		.cfi_restore 7
 746              		.cfi_def_cfa_offset 0
 747 002c 7047     		bx	lr
 748              		.cfi_endproc
 749              	.LFE139:
 751              		.section	.text.DMA_Circular_Mode_Config,"ax",%progbits
 752              		.align	1
 753              		.global	DMA_Circular_Mode_Config
 754              		.syntax unified
ARM GAS  C:\Users\ZShuai\AppData\Local\Temp\cc5WYDZP.s 			page 21


 755              		.thumb
 756              		.thumb_func
 758              	DMA_Circular_Mode_Config:
 759              	.LFB140:
 386:../firmware/n32g430_std_periph_driver/src/n32g430_dma.c **** 
 387:../firmware/n32g430_std_periph_driver/src/n32g430_dma.c **** /**
 388:../firmware/n32g430_std_periph_driver/src/n32g430_dma.c **** *\*\name    DMA_Circular_Mode_Config.
 389:../firmware/n32g430_std_periph_driver/src/n32g430_dma.c **** *\*\fun     Initializes the DMA Channelx CircularMode value.
 390:../firmware/n32g430_std_periph_driver/src/n32g430_dma.c **** *\*\param   DMAChx :
 391:../firmware/n32g430_std_periph_driver/src/n32g430_dma.c **** *\*\          - DMA_CH1
 392:../firmware/n32g430_std_periph_driver/src/n32g430_dma.c **** *\*\          - DMA_CH2
 393:../firmware/n32g430_std_periph_driver/src/n32g430_dma.c **** *\*\          - DMA_CH3
 394:../firmware/n32g430_std_periph_driver/src/n32g430_dma.c **** *\*\          - DMA_CH4
 395:../firmware/n32g430_std_periph_driver/src/n32g430_dma.c **** *\*\          - DMA_CH5
 396:../firmware/n32g430_std_periph_driver/src/n32g430_dma.c **** *\*\          - DMA_CH6
 397:../firmware/n32g430_std_periph_driver/src/n32g430_dma.c **** *\*\          - DMA_CH7
 398:../firmware/n32g430_std_periph_driver/src/n32g430_dma.c **** *\*\          - DMA_CH8
 399:../firmware/n32g430_std_periph_driver/src/n32g430_dma.c **** *\*\param   cmd :
 400:../firmware/n32g430_std_periph_driver/src/n32g430_dma.c **** *\*\          - DMA_CIRCULAR_MODE_ENABLE
 401:../firmware/n32g430_std_periph_driver/src/n32g430_dma.c **** *\*\          - DMA_CIRCULAR_MODE_DISABLE
 402:../firmware/n32g430_std_periph_driver/src/n32g430_dma.c **** *\*\return  none
 403:../firmware/n32g430_std_periph_driver/src/n32g430_dma.c **** **/
 404:../firmware/n32g430_std_periph_driver/src/n32g430_dma.c **** void DMA_Circular_Mode_Config(DMA_ChannelType* DMAChx, uint32_t cmd)
 405:../firmware/n32g430_std_periph_driver/src/n32g430_dma.c **** {
 760              		.loc 1 405 1
 761              		.cfi_startproc
 762              		@ args = 0, pretend = 0, frame = 8
 763              		@ frame_needed = 1, uses_anonymous_args = 0
 764              		@ link register save eliminated.
 765 0000 80B4     		push	{r7}
 766              	.LCFI59:
 767              		.cfi_def_cfa_offset 4
 768              		.cfi_offset 7, -4
 769 0002 83B0     		sub	sp, sp, #12
 770              	.LCFI60:
 771              		.cfi_def_cfa_offset 16
 772 0004 00AF     		add	r7, sp, #0
 773              	.LCFI61:
 774              		.cfi_def_cfa_register 7
 775 0006 7860     		str	r0, [r7, #4]
 776 0008 3960     		str	r1, [r7]
 406:../firmware/n32g430_std_periph_driver/src/n32g430_dma.c ****    /* Clear DMAChx_CHCFG CIRC bits */
 407:../firmware/n32g430_std_periph_driver/src/n32g430_dma.c ****     DMAChx->CHCFG &= DMA_CIRCULAR_MODE_MASK;
 777              		.loc 1 407 11
 778 000a 7B68     		ldr	r3, [r7, #4]
 779 000c 1B68     		ldr	r3, [r3]
 780              		.loc 1 407 19
 781 000e 23F02002 		bic	r2, r3, #32
 782 0012 7B68     		ldr	r3, [r7, #4]
 783 0014 1A60     		str	r2, [r3]
 408:../firmware/n32g430_std_periph_driver/src/n32g430_dma.c ****     /* Set DMAChx_CHCFG CIRC bits */
 409:../firmware/n32g430_std_periph_driver/src/n32g430_dma.c ****     DMAChx->CHCFG |= cmd;
 784              		.loc 1 409 11
 785 0016 7B68     		ldr	r3, [r7, #4]
 786 0018 1A68     		ldr	r2, [r3]
 787              		.loc 1 409 19
 788 001a 3B68     		ldr	r3, [r7]
ARM GAS  C:\Users\ZShuai\AppData\Local\Temp\cc5WYDZP.s 			page 22


 789 001c 1A43     		orrs	r2, r2, r3
 790 001e 7B68     		ldr	r3, [r7, #4]
 791 0020 1A60     		str	r2, [r3]
 410:../firmware/n32g430_std_periph_driver/src/n32g430_dma.c **** }
 792              		.loc 1 410 1
 793 0022 00BF     		nop
 794 0024 0C37     		adds	r7, r7, #12
 795              	.LCFI62:
 796              		.cfi_def_cfa_offset 4
 797 0026 BD46     		mov	sp, r7
 798              	.LCFI63:
 799              		.cfi_def_cfa_register 13
 800              		@ sp needed
 801 0028 5DF8047B 		ldr	r7, [sp], #4
 802              	.LCFI64:
 803              		.cfi_restore 7
 804              		.cfi_def_cfa_offset 0
 805 002c 7047     		bx	lr
 806              		.cfi_endproc
 807              	.LFE140:
 809              		.section	.text.DMA_Priority_Config,"ax",%progbits
 810              		.align	1
 811              		.global	DMA_Priority_Config
 812              		.syntax unified
 813              		.thumb
 814              		.thumb_func
 816              	DMA_Priority_Config:
 817              	.LFB141:
 411:../firmware/n32g430_std_periph_driver/src/n32g430_dma.c **** 
 412:../firmware/n32g430_std_periph_driver/src/n32g430_dma.c **** /**
 413:../firmware/n32g430_std_periph_driver/src/n32g430_dma.c **** *\*\name    DMA_Priority_Config.
 414:../firmware/n32g430_std_periph_driver/src/n32g430_dma.c **** *\*\fun     Initializes the DMA Channelx Priority value.
 415:../firmware/n32g430_std_periph_driver/src/n32g430_dma.c **** *\*\param   DMAChx :
 416:../firmware/n32g430_std_periph_driver/src/n32g430_dma.c **** *\*\          - DMA_CH1
 417:../firmware/n32g430_std_periph_driver/src/n32g430_dma.c **** *\*\          - DMA_CH2
 418:../firmware/n32g430_std_periph_driver/src/n32g430_dma.c **** *\*\          - DMA_CH3
 419:../firmware/n32g430_std_periph_driver/src/n32g430_dma.c **** *\*\          - DMA_CH4
 420:../firmware/n32g430_std_periph_driver/src/n32g430_dma.c **** *\*\          - DMA_CH5
 421:../firmware/n32g430_std_periph_driver/src/n32g430_dma.c **** *\*\          - DMA_CH6
 422:../firmware/n32g430_std_periph_driver/src/n32g430_dma.c **** *\*\          - DMA_CH7
 423:../firmware/n32g430_std_periph_driver/src/n32g430_dma.c **** *\*\          - DMA_CH8
 424:../firmware/n32g430_std_periph_driver/src/n32g430_dma.c **** *\*\param   priority :
 425:../firmware/n32g430_std_periph_driver/src/n32g430_dma.c **** *\*\          - DMA_CH_PRIORITY_HIGHEST
 426:../firmware/n32g430_std_periph_driver/src/n32g430_dma.c **** *\*\          - DMA_CH_PRIORITY_HIGH
 427:../firmware/n32g430_std_periph_driver/src/n32g430_dma.c **** *\*\          - DMA_CH_PRIORITY_MEDIUM
 428:../firmware/n32g430_std_periph_driver/src/n32g430_dma.c **** *\*\          - DMA_CH_PRIORITY_LOW
 429:../firmware/n32g430_std_periph_driver/src/n32g430_dma.c **** *\*\return  none
 430:../firmware/n32g430_std_periph_driver/src/n32g430_dma.c **** **/
 431:../firmware/n32g430_std_periph_driver/src/n32g430_dma.c **** void DMA_Priority_Config(DMA_ChannelType* DMAChx, uint32_t priority)
 432:../firmware/n32g430_std_periph_driver/src/n32g430_dma.c **** {
 818              		.loc 1 432 1
 819              		.cfi_startproc
 820              		@ args = 0, pretend = 0, frame = 8
 821              		@ frame_needed = 1, uses_anonymous_args = 0
 822              		@ link register save eliminated.
 823 0000 80B4     		push	{r7}
 824              	.LCFI65:
ARM GAS  C:\Users\ZShuai\AppData\Local\Temp\cc5WYDZP.s 			page 23


 825              		.cfi_def_cfa_offset 4
 826              		.cfi_offset 7, -4
 827 0002 83B0     		sub	sp, sp, #12
 828              	.LCFI66:
 829              		.cfi_def_cfa_offset 16
 830 0004 00AF     		add	r7, sp, #0
 831              	.LCFI67:
 832              		.cfi_def_cfa_register 7
 833 0006 7860     		str	r0, [r7, #4]
 834 0008 3960     		str	r1, [r7]
 433:../firmware/n32g430_std_periph_driver/src/n32g430_dma.c ****     /* Clear DMAChx_CHCFG PRIOLVL[1:0] bits */
 434:../firmware/n32g430_std_periph_driver/src/n32g430_dma.c ****     DMAChx->CHCFG &= DMA_CH_PRIORITY_MASK;
 835              		.loc 1 434 11
 836 000a 7B68     		ldr	r3, [r7, #4]
 837 000c 1B68     		ldr	r3, [r3]
 838              		.loc 1 434 19
 839 000e 23F44052 		bic	r2, r3, #12288
 840 0012 7B68     		ldr	r3, [r7, #4]
 841 0014 1A60     		str	r2, [r3]
 435:../firmware/n32g430_std_periph_driver/src/n32g430_dma.c ****     /* Set DMAChx_CHCFG PRIOLVL[1:0] bits */
 436:../firmware/n32g430_std_periph_driver/src/n32g430_dma.c ****     DMAChx->CHCFG |= priority;
 842              		.loc 1 436 11
 843 0016 7B68     		ldr	r3, [r7, #4]
 844 0018 1A68     		ldr	r2, [r3]
 845              		.loc 1 436 19
 846 001a 3B68     		ldr	r3, [r7]
 847 001c 1A43     		orrs	r2, r2, r3
 848 001e 7B68     		ldr	r3, [r7, #4]
 849 0020 1A60     		str	r2, [r3]
 437:../firmware/n32g430_std_periph_driver/src/n32g430_dma.c **** }
 850              		.loc 1 437 1
 851 0022 00BF     		nop
 852 0024 0C37     		adds	r7, r7, #12
 853              	.LCFI68:
 854              		.cfi_def_cfa_offset 4
 855 0026 BD46     		mov	sp, r7
 856              	.LCFI69:
 857              		.cfi_def_cfa_register 13
 858              		@ sp needed
 859 0028 5DF8047B 		ldr	r7, [sp], #4
 860              	.LCFI70:
 861              		.cfi_restore 7
 862              		.cfi_def_cfa_offset 0
 863 002c 7047     		bx	lr
 864              		.cfi_endproc
 865              	.LFE141:
 867              		.section	.text.DMA_Memory_2_Memory_Config,"ax",%progbits
 868              		.align	1
 869              		.global	DMA_Memory_2_Memory_Config
 870              		.syntax unified
 871              		.thumb
 872              		.thumb_func
 874              	DMA_Memory_2_Memory_Config:
 875              	.LFB142:
 438:../firmware/n32g430_std_periph_driver/src/n32g430_dma.c **** 
 439:../firmware/n32g430_std_periph_driver/src/n32g430_dma.c **** /**
 440:../firmware/n32g430_std_periph_driver/src/n32g430_dma.c **** *\*\name    DMA_Memory_2_Memory_Config.
ARM GAS  C:\Users\ZShuai\AppData\Local\Temp\cc5WYDZP.s 			page 24


 441:../firmware/n32g430_std_periph_driver/src/n32g430_dma.c **** *\*\fun     Initializes the DMA Channelx Mem2Mem value.
 442:../firmware/n32g430_std_periph_driver/src/n32g430_dma.c **** *\*\param   DMAChx :
 443:../firmware/n32g430_std_periph_driver/src/n32g430_dma.c **** *\*\          - DMA_CH1
 444:../firmware/n32g430_std_periph_driver/src/n32g430_dma.c **** *\*\          - DMA_CH2
 445:../firmware/n32g430_std_periph_driver/src/n32g430_dma.c **** *\*\          - DMA_CH3
 446:../firmware/n32g430_std_periph_driver/src/n32g430_dma.c **** *\*\          - DMA_CH4
 447:../firmware/n32g430_std_periph_driver/src/n32g430_dma.c **** *\*\          - DMA_CH5
 448:../firmware/n32g430_std_periph_driver/src/n32g430_dma.c **** *\*\          - DMA_CH6
 449:../firmware/n32g430_std_periph_driver/src/n32g430_dma.c **** *\*\          - DMA_CH7
 450:../firmware/n32g430_std_periph_driver/src/n32g430_dma.c **** *\*\          - DMA_CH8
 451:../firmware/n32g430_std_periph_driver/src/n32g430_dma.c **** *\*\param   cmd :
 452:../firmware/n32g430_std_periph_driver/src/n32g430_dma.c **** *\*\          - DMA_MEM2MEM_ENABLE
 453:../firmware/n32g430_std_periph_driver/src/n32g430_dma.c **** *\*\          - DMA_MEM2MEM_DISABLE
 454:../firmware/n32g430_std_periph_driver/src/n32g430_dma.c **** *\*\return  none
 455:../firmware/n32g430_std_periph_driver/src/n32g430_dma.c **** **/
 456:../firmware/n32g430_std_periph_driver/src/n32g430_dma.c **** void DMA_Memory_2_Memory_Config(DMA_ChannelType* DMAChx, uint32_t cmd)
 457:../firmware/n32g430_std_periph_driver/src/n32g430_dma.c **** {
 876              		.loc 1 457 1
 877              		.cfi_startproc
 878              		@ args = 0, pretend = 0, frame = 8
 879              		@ frame_needed = 1, uses_anonymous_args = 0
 880              		@ link register save eliminated.
 881 0000 80B4     		push	{r7}
 882              	.LCFI71:
 883              		.cfi_def_cfa_offset 4
 884              		.cfi_offset 7, -4
 885 0002 83B0     		sub	sp, sp, #12
 886              	.LCFI72:
 887              		.cfi_def_cfa_offset 16
 888 0004 00AF     		add	r7, sp, #0
 889              	.LCFI73:
 890              		.cfi_def_cfa_register 7
 891 0006 7860     		str	r0, [r7, #4]
 892 0008 3960     		str	r1, [r7]
 458:../firmware/n32g430_std_periph_driver/src/n32g430_dma.c ****     /* Clear DMAChx_CHCFG MEM2MEM bits */
 459:../firmware/n32g430_std_periph_driver/src/n32g430_dma.c ****     DMAChx->CHCFG &= DMA_MEM2MEM_MASK;
 893              		.loc 1 459 11
 894 000a 7B68     		ldr	r3, [r7, #4]
 895 000c 1B68     		ldr	r3, [r3]
 896              		.loc 1 459 19
 897 000e 23F48042 		bic	r2, r3, #16384
 898 0012 7B68     		ldr	r3, [r7, #4]
 899 0014 1A60     		str	r2, [r3]
 460:../firmware/n32g430_std_periph_driver/src/n32g430_dma.c ****     /* Set DMAChx_CHCFG MEM2MEM bits */
 461:../firmware/n32g430_std_periph_driver/src/n32g430_dma.c ****     DMAChx->CHCFG |= cmd;
 900              		.loc 1 461 11
 901 0016 7B68     		ldr	r3, [r7, #4]
 902 0018 1A68     		ldr	r2, [r3]
 903              		.loc 1 461 19
 904 001a 3B68     		ldr	r3, [r7]
 905 001c 1A43     		orrs	r2, r2, r3
 906 001e 7B68     		ldr	r3, [r7, #4]
 907 0020 1A60     		str	r2, [r3]
 462:../firmware/n32g430_std_periph_driver/src/n32g430_dma.c **** }
 908              		.loc 1 462 1
 909 0022 00BF     		nop
 910 0024 0C37     		adds	r7, r7, #12
ARM GAS  C:\Users\ZShuai\AppData\Local\Temp\cc5WYDZP.s 			page 25


 911              	.LCFI74:
 912              		.cfi_def_cfa_offset 4
 913 0026 BD46     		mov	sp, r7
 914              	.LCFI75:
 915              		.cfi_def_cfa_register 13
 916              		@ sp needed
 917 0028 5DF8047B 		ldr	r7, [sp], #4
 918              	.LCFI76:
 919              		.cfi_restore 7
 920              		.cfi_def_cfa_offset 0
 921 002c 7047     		bx	lr
 922              		.cfi_endproc
 923              	.LFE142:
 925              		.section	.text.DMA_Structure_Initializes,"ax",%progbits
 926              		.align	1
 927              		.global	DMA_Structure_Initializes
 928              		.syntax unified
 929              		.thumb
 930              		.thumb_func
 932              	DMA_Structure_Initializes:
 933              	.LFB143:
 463:../firmware/n32g430_std_periph_driver/src/n32g430_dma.c **** 
 464:../firmware/n32g430_std_periph_driver/src/n32g430_dma.c **** /**
 465:../firmware/n32g430_std_periph_driver/src/n32g430_dma.c **** *\*\name    DMA_Structure_Initializes.
 466:../firmware/n32g430_std_periph_driver/src/n32g430_dma.c **** *\*\fun     Fills each DMA_InitParam member with its default value.
 467:../firmware/n32g430_std_periph_driver/src/n32g430_dma.c **** *\*\param   DMA_InitParam :
 468:../firmware/n32g430_std_periph_driver/src/n32g430_dma.c **** *\*\          - PeriphAddr
 469:../firmware/n32g430_std_periph_driver/src/n32g430_dma.c **** *\*\          - MemAddr
 470:../firmware/n32g430_std_periph_driver/src/n32g430_dma.c **** *\*\          - Direction
 471:../firmware/n32g430_std_periph_driver/src/n32g430_dma.c **** *\*\          - BufSize
 472:../firmware/n32g430_std_periph_driver/src/n32g430_dma.c **** *\*\          - PeriphInc
 473:../firmware/n32g430_std_periph_driver/src/n32g430_dma.c **** *\*\          - DMA_MemoryInc
 474:../firmware/n32g430_std_periph_driver/src/n32g430_dma.c **** *\*\          - PeriphDataSize
 475:../firmware/n32g430_std_periph_driver/src/n32g430_dma.c **** *\*\          - MemDataSize
 476:../firmware/n32g430_std_periph_driver/src/n32g430_dma.c **** *\*\          - CircularMode
 477:../firmware/n32g430_std_periph_driver/src/n32g430_dma.c **** *\*\          - Priority
 478:../firmware/n32g430_std_periph_driver/src/n32g430_dma.c **** *\*\          - Mem2Mem
 479:../firmware/n32g430_std_periph_driver/src/n32g430_dma.c **** *\*\return  none
 480:../firmware/n32g430_std_periph_driver/src/n32g430_dma.c **** **/
 481:../firmware/n32g430_std_periph_driver/src/n32g430_dma.c **** void DMA_Structure_Initializes(DMA_InitType* DMA_InitParam)
 482:../firmware/n32g430_std_periph_driver/src/n32g430_dma.c **** {
 934              		.loc 1 482 1
 935              		.cfi_startproc
 936              		@ args = 0, pretend = 0, frame = 8
 937              		@ frame_needed = 1, uses_anonymous_args = 0
 938              		@ link register save eliminated.
 939 0000 80B4     		push	{r7}
 940              	.LCFI77:
 941              		.cfi_def_cfa_offset 4
 942              		.cfi_offset 7, -4
 943 0002 83B0     		sub	sp, sp, #12
 944              	.LCFI78:
 945              		.cfi_def_cfa_offset 16
 946 0004 00AF     		add	r7, sp, #0
 947              	.LCFI79:
 948              		.cfi_def_cfa_register 7
 949 0006 7860     		str	r0, [r7, #4]
ARM GAS  C:\Users\ZShuai\AppData\Local\Temp\cc5WYDZP.s 			page 26


 483:../firmware/n32g430_std_periph_driver/src/n32g430_dma.c ****     /* Reset DMA init structure parameters values */
 484:../firmware/n32g430_std_periph_driver/src/n32g430_dma.c ****     /* Initialize the PeriphAddr member */
 485:../firmware/n32g430_std_periph_driver/src/n32g430_dma.c ****     DMA_InitParam->PeriphAddr = 0;
 950              		.loc 1 485 31
 951 0008 7B68     		ldr	r3, [r7, #4]
 952 000a 0022     		movs	r2, #0
 953 000c 1A60     		str	r2, [r3]
 486:../firmware/n32g430_std_periph_driver/src/n32g430_dma.c ****     /* Initialize the MemAddr member */
 487:../firmware/n32g430_std_periph_driver/src/n32g430_dma.c ****     DMA_InitParam->MemAddr = 0;
 954              		.loc 1 487 28
 955 000e 7B68     		ldr	r3, [r7, #4]
 956 0010 0022     		movs	r2, #0
 957 0012 5A60     		str	r2, [r3, #4]
 488:../firmware/n32g430_std_periph_driver/src/n32g430_dma.c ****     /* Initialize the Direction member */
 489:../firmware/n32g430_std_periph_driver/src/n32g430_dma.c ****     DMA_InitParam->Direction = DMA_DIR_PERIPH_SRC;
 958              		.loc 1 489 30
 959 0014 7B68     		ldr	r3, [r7, #4]
 960 0016 0022     		movs	r2, #0
 961 0018 9A60     		str	r2, [r3, #8]
 490:../firmware/n32g430_std_periph_driver/src/n32g430_dma.c ****     /* Initialize the BufSize member */
 491:../firmware/n32g430_std_periph_driver/src/n32g430_dma.c ****     DMA_InitParam->BufSize = 0;
 962              		.loc 1 491 28
 963 001a 7B68     		ldr	r3, [r7, #4]
 964 001c 0022     		movs	r2, #0
 965 001e DA60     		str	r2, [r3, #12]
 492:../firmware/n32g430_std_periph_driver/src/n32g430_dma.c ****     /* Initialize the PeriphInc member */
 493:../firmware/n32g430_std_periph_driver/src/n32g430_dma.c ****     DMA_InitParam->PeriphInc = DMA_PERIPH_INC_MODE_DISABLE;
 966              		.loc 1 493 30
 967 0020 7B68     		ldr	r3, [r7, #4]
 968 0022 0022     		movs	r2, #0
 969 0024 1A61     		str	r2, [r3, #16]
 494:../firmware/n32g430_std_periph_driver/src/n32g430_dma.c ****     /* Initialize the MemoryInc member */
 495:../firmware/n32g430_std_periph_driver/src/n32g430_dma.c ****     DMA_InitParam->MemoryInc = DMA_MEM_INC_MODE_DISABLE;
 970              		.loc 1 495 30
 971 0026 7B68     		ldr	r3, [r7, #4]
 972 0028 0022     		movs	r2, #0
 973 002a 5A61     		str	r2, [r3, #20]
 496:../firmware/n32g430_std_periph_driver/src/n32g430_dma.c ****     /* Initialize the PeriphDataSize member */
 497:../firmware/n32g430_std_periph_driver/src/n32g430_dma.c ****     DMA_InitParam->PeriphDataSize = DMA_PERIPH_DATA_WIDTH_BYTE;
 974              		.loc 1 497 35
 975 002c 7B68     		ldr	r3, [r7, #4]
 976 002e 0022     		movs	r2, #0
 977 0030 9A61     		str	r2, [r3, #24]
 498:../firmware/n32g430_std_periph_driver/src/n32g430_dma.c ****     /* Initialize the MemDataSize member */
 499:../firmware/n32g430_std_periph_driver/src/n32g430_dma.c ****     DMA_InitParam->MemDataSize = DMA_MEM_DATA_WIDTH_BYTE;
 978              		.loc 1 499 32
 979 0032 7B68     		ldr	r3, [r7, #4]
 980 0034 0022     		movs	r2, #0
 981 0036 DA61     		str	r2, [r3, #28]
 500:../firmware/n32g430_std_periph_driver/src/n32g430_dma.c ****     /* Initialize the CircularMode member */
 501:../firmware/n32g430_std_periph_driver/src/n32g430_dma.c ****     DMA_InitParam->CircularMode = DMA_CIRCULAR_MODE_DISABLE;
 982              		.loc 1 501 33
 983 0038 7B68     		ldr	r3, [r7, #4]
 984 003a 0022     		movs	r2, #0
 985 003c 1A62     		str	r2, [r3, #32]
 502:../firmware/n32g430_std_periph_driver/src/n32g430_dma.c ****     /* Initialize the Priority member */
 503:../firmware/n32g430_std_periph_driver/src/n32g430_dma.c ****     DMA_InitParam->Priority = DMA_CH_PRIORITY_LOW;
ARM GAS  C:\Users\ZShuai\AppData\Local\Temp\cc5WYDZP.s 			page 27


 986              		.loc 1 503 29
 987 003e 7B68     		ldr	r3, [r7, #4]
 988 0040 0022     		movs	r2, #0
 989 0042 5A62     		str	r2, [r3, #36]
 504:../firmware/n32g430_std_periph_driver/src/n32g430_dma.c ****     /* Initialize the Mem2Mem member */
 505:../firmware/n32g430_std_periph_driver/src/n32g430_dma.c ****     DMA_InitParam->Mem2Mem = DMA_MEM2MEM_DISABLE;
 990              		.loc 1 505 28
 991 0044 7B68     		ldr	r3, [r7, #4]
 992 0046 0022     		movs	r2, #0
 993 0048 9A62     		str	r2, [r3, #40]
 506:../firmware/n32g430_std_periph_driver/src/n32g430_dma.c **** }
 994              		.loc 1 506 1
 995 004a 00BF     		nop
 996 004c 0C37     		adds	r7, r7, #12
 997              	.LCFI80:
 998              		.cfi_def_cfa_offset 4
 999 004e BD46     		mov	sp, r7
 1000              	.LCFI81:
 1001              		.cfi_def_cfa_register 13
 1002              		@ sp needed
 1003 0050 5DF8047B 		ldr	r7, [sp], #4
 1004              	.LCFI82:
 1005              		.cfi_restore 7
 1006              		.cfi_def_cfa_offset 0
 1007 0054 7047     		bx	lr
 1008              		.cfi_endproc
 1009              	.LFE143:
 1011              		.section	.text.DMA_Channel_Enable,"ax",%progbits
 1012              		.align	1
 1013              		.global	DMA_Channel_Enable
 1014              		.syntax unified
 1015              		.thumb
 1016              		.thumb_func
 1018              	DMA_Channel_Enable:
 1019              	.LFB144:
 507:../firmware/n32g430_std_periph_driver/src/n32g430_dma.c **** 
 508:../firmware/n32g430_std_periph_driver/src/n32g430_dma.c **** /**
 509:../firmware/n32g430_std_periph_driver/src/n32g430_dma.c **** *\*\name    DMA_Channel_Enable.
 510:../firmware/n32g430_std_periph_driver/src/n32g430_dma.c **** *\*\fun     DMA Channelx Channel enable.
 511:../firmware/n32g430_std_periph_driver/src/n32g430_dma.c **** *\*\param   DMAChx :
 512:../firmware/n32g430_std_periph_driver/src/n32g430_dma.c **** *\*\          - DMA_CH1
 513:../firmware/n32g430_std_periph_driver/src/n32g430_dma.c **** *\*\          - DMA_CH2
 514:../firmware/n32g430_std_periph_driver/src/n32g430_dma.c **** *\*\          - DMA_CH3
 515:../firmware/n32g430_std_periph_driver/src/n32g430_dma.c **** *\*\          - DMA_CH4
 516:../firmware/n32g430_std_periph_driver/src/n32g430_dma.c **** *\*\          - DMA_CH5
 517:../firmware/n32g430_std_periph_driver/src/n32g430_dma.c **** *\*\          - DMA_CH6
 518:../firmware/n32g430_std_periph_driver/src/n32g430_dma.c **** *\*\          - DMA_CH7
 519:../firmware/n32g430_std_periph_driver/src/n32g430_dma.c **** *\*\          - DMA_CH8
 520:../firmware/n32g430_std_periph_driver/src/n32g430_dma.c **** *\*\return  none
 521:../firmware/n32g430_std_periph_driver/src/n32g430_dma.c **** **/
 522:../firmware/n32g430_std_periph_driver/src/n32g430_dma.c **** void DMA_Channel_Enable(DMA_ChannelType* DMAChx)
 523:../firmware/n32g430_std_periph_driver/src/n32g430_dma.c **** {
 1020              		.loc 1 523 1
 1021              		.cfi_startproc
 1022              		@ args = 0, pretend = 0, frame = 8
 1023              		@ frame_needed = 1, uses_anonymous_args = 0
 1024              		@ link register save eliminated.
ARM GAS  C:\Users\ZShuai\AppData\Local\Temp\cc5WYDZP.s 			page 28


 1025 0000 80B4     		push	{r7}
 1026              	.LCFI83:
 1027              		.cfi_def_cfa_offset 4
 1028              		.cfi_offset 7, -4
 1029 0002 83B0     		sub	sp, sp, #12
 1030              	.LCFI84:
 1031              		.cfi_def_cfa_offset 16
 1032 0004 00AF     		add	r7, sp, #0
 1033              	.LCFI85:
 1034              		.cfi_def_cfa_register 7
 1035 0006 7860     		str	r0, [r7, #4]
 524:../firmware/n32g430_std_periph_driver/src/n32g430_dma.c ****     /* Enable the selected DMA Channelx */
 525:../firmware/n32g430_std_periph_driver/src/n32g430_dma.c ****     DMAChx->CHCFG |= DMA_CHANNEL_ENABLE;
 1036              		.loc 1 525 11
 1037 0008 7B68     		ldr	r3, [r7, #4]
 1038 000a 1B68     		ldr	r3, [r3]
 1039              		.loc 1 525 19
 1040 000c 43F00102 		orr	r2, r3, #1
 1041 0010 7B68     		ldr	r3, [r7, #4]
 1042 0012 1A60     		str	r2, [r3]
 526:../firmware/n32g430_std_periph_driver/src/n32g430_dma.c **** }
 1043              		.loc 1 526 1
 1044 0014 00BF     		nop
 1045 0016 0C37     		adds	r7, r7, #12
 1046              	.LCFI86:
 1047              		.cfi_def_cfa_offset 4
 1048 0018 BD46     		mov	sp, r7
 1049              	.LCFI87:
 1050              		.cfi_def_cfa_register 13
 1051              		@ sp needed
 1052 001a 5DF8047B 		ldr	r7, [sp], #4
 1053              	.LCFI88:
 1054              		.cfi_restore 7
 1055              		.cfi_def_cfa_offset 0
 1056 001e 7047     		bx	lr
 1057              		.cfi_endproc
 1058              	.LFE144:
 1060              		.section	.text.DMA_Channel_Disable,"ax",%progbits
 1061              		.align	1
 1062              		.global	DMA_Channel_Disable
 1063              		.syntax unified
 1064              		.thumb
 1065              		.thumb_func
 1067              	DMA_Channel_Disable:
 1068              	.LFB145:
 527:../firmware/n32g430_std_periph_driver/src/n32g430_dma.c **** 
 528:../firmware/n32g430_std_periph_driver/src/n32g430_dma.c **** /**
 529:../firmware/n32g430_std_periph_driver/src/n32g430_dma.c **** *\*\name    DMA_Channel_Disable.
 530:../firmware/n32g430_std_periph_driver/src/n32g430_dma.c **** *\*\fun     DMA Channelx Channel disable.
 531:../firmware/n32g430_std_periph_driver/src/n32g430_dma.c **** *\*\param   DMAChx :
 532:../firmware/n32g430_std_periph_driver/src/n32g430_dma.c **** *\*\          - DMA_CH1
 533:../firmware/n32g430_std_periph_driver/src/n32g430_dma.c **** *\*\          - DMA_CH2
 534:../firmware/n32g430_std_periph_driver/src/n32g430_dma.c **** *\*\          - DMA_CH3
 535:../firmware/n32g430_std_periph_driver/src/n32g430_dma.c **** *\*\          - DMA_CH4
 536:../firmware/n32g430_std_periph_driver/src/n32g430_dma.c **** *\*\          - DMA_CH5
 537:../firmware/n32g430_std_periph_driver/src/n32g430_dma.c **** *\*\          - DMA_CH6
 538:../firmware/n32g430_std_periph_driver/src/n32g430_dma.c **** *\*\          - DMA_CH7
ARM GAS  C:\Users\ZShuai\AppData\Local\Temp\cc5WYDZP.s 			page 29


 539:../firmware/n32g430_std_periph_driver/src/n32g430_dma.c **** *\*\          - DMA_CH8
 540:../firmware/n32g430_std_periph_driver/src/n32g430_dma.c **** *\*\return  none
 541:../firmware/n32g430_std_periph_driver/src/n32g430_dma.c **** **/
 542:../firmware/n32g430_std_periph_driver/src/n32g430_dma.c **** void DMA_Channel_Disable(DMA_ChannelType* DMAChx)
 543:../firmware/n32g430_std_periph_driver/src/n32g430_dma.c **** {
 1069              		.loc 1 543 1
 1070              		.cfi_startproc
 1071              		@ args = 0, pretend = 0, frame = 8
 1072              		@ frame_needed = 1, uses_anonymous_args = 0
 1073              		@ link register save eliminated.
 1074 0000 80B4     		push	{r7}
 1075              	.LCFI89:
 1076              		.cfi_def_cfa_offset 4
 1077              		.cfi_offset 7, -4
 1078 0002 83B0     		sub	sp, sp, #12
 1079              	.LCFI90:
 1080              		.cfi_def_cfa_offset 16
 1081 0004 00AF     		add	r7, sp, #0
 1082              	.LCFI91:
 1083              		.cfi_def_cfa_register 7
 1084 0006 7860     		str	r0, [r7, #4]
 544:../firmware/n32g430_std_periph_driver/src/n32g430_dma.c ****     /* Disable the selected DMA Channelx */
 545:../firmware/n32g430_std_periph_driver/src/n32g430_dma.c ****     DMAChx->CHCFG &= DMA_CHANNEL_DISABLE;
 1085              		.loc 1 545 11
 1086 0008 7B68     		ldr	r3, [r7, #4]
 1087 000a 1B68     		ldr	r3, [r3]
 1088              		.loc 1 545 19
 1089 000c 23F00102 		bic	r2, r3, #1
 1090 0010 7B68     		ldr	r3, [r7, #4]
 1091 0012 1A60     		str	r2, [r3]
 546:../firmware/n32g430_std_periph_driver/src/n32g430_dma.c **** }
 1092              		.loc 1 546 1
 1093 0014 00BF     		nop
 1094 0016 0C37     		adds	r7, r7, #12
 1095              	.LCFI92:
 1096              		.cfi_def_cfa_offset 4
 1097 0018 BD46     		mov	sp, r7
 1098              	.LCFI93:
 1099              		.cfi_def_cfa_register 13
 1100              		@ sp needed
 1101 001a 5DF8047B 		ldr	r7, [sp], #4
 1102              	.LCFI94:
 1103              		.cfi_restore 7
 1104              		.cfi_def_cfa_offset 0
 1105 001e 7047     		bx	lr
 1106              		.cfi_endproc
 1107              	.LFE145:
 1109              		.section	.text.DMA_Interrupts_Enable,"ax",%progbits
 1110              		.align	1
 1111              		.global	DMA_Interrupts_Enable
 1112              		.syntax unified
 1113              		.thumb
 1114              		.thumb_func
 1116              	DMA_Interrupts_Enable:
 1117              	.LFB146:
 547:../firmware/n32g430_std_periph_driver/src/n32g430_dma.c **** 
 548:../firmware/n32g430_std_periph_driver/src/n32g430_dma.c **** /**
ARM GAS  C:\Users\ZShuai\AppData\Local\Temp\cc5WYDZP.s 			page 30


 549:../firmware/n32g430_std_periph_driver/src/n32g430_dma.c **** *\*\name    DMA_Interrupts_Enable.
 550:../firmware/n32g430_std_periph_driver/src/n32g430_dma.c **** *\*\fun     DMA Channelx interrupts disable.
 551:../firmware/n32g430_std_periph_driver/src/n32g430_dma.c **** *\*\param   DMAChx :
 552:../firmware/n32g430_std_periph_driver/src/n32g430_dma.c **** *\*\          - DMA_CH1
 553:../firmware/n32g430_std_periph_driver/src/n32g430_dma.c **** *\*\          - DMA_CH2
 554:../firmware/n32g430_std_periph_driver/src/n32g430_dma.c **** *\*\          - DMA_CH3
 555:../firmware/n32g430_std_periph_driver/src/n32g430_dma.c **** *\*\          - DMA_CH4
 556:../firmware/n32g430_std_periph_driver/src/n32g430_dma.c **** *\*\          - DMA_CH5
 557:../firmware/n32g430_std_periph_driver/src/n32g430_dma.c **** *\*\          - DMA_CH6
 558:../firmware/n32g430_std_periph_driver/src/n32g430_dma.c **** *\*\          - DMA_CH7
 559:../firmware/n32g430_std_periph_driver/src/n32g430_dma.c **** *\*\          - DMA_CH8
 560:../firmware/n32g430_std_periph_driver/src/n32g430_dma.c **** *\*\param   interrupt :
 561:../firmware/n32g430_std_periph_driver/src/n32g430_dma.c **** *\*\          - DMA_INT_TXC
 562:../firmware/n32g430_std_periph_driver/src/n32g430_dma.c **** *\*\          - DMA_INT_HTX
 563:../firmware/n32g430_std_periph_driver/src/n32g430_dma.c **** *\*\          - DMA_INT_ERR
 564:../firmware/n32g430_std_periph_driver/src/n32g430_dma.c **** *\*\return  none
 565:../firmware/n32g430_std_periph_driver/src/n32g430_dma.c **** **/
 566:../firmware/n32g430_std_periph_driver/src/n32g430_dma.c **** void DMA_Interrupts_Enable(DMA_ChannelType* DMAChx, uint32_t interrupt)
 567:../firmware/n32g430_std_periph_driver/src/n32g430_dma.c **** {
 1118              		.loc 1 567 1
 1119              		.cfi_startproc
 1120              		@ args = 0, pretend = 0, frame = 8
 1121              		@ frame_needed = 1, uses_anonymous_args = 0
 1122              		@ link register save eliminated.
 1123 0000 80B4     		push	{r7}
 1124              	.LCFI95:
 1125              		.cfi_def_cfa_offset 4
 1126              		.cfi_offset 7, -4
 1127 0002 83B0     		sub	sp, sp, #12
 1128              	.LCFI96:
 1129              		.cfi_def_cfa_offset 16
 1130 0004 00AF     		add	r7, sp, #0
 1131              	.LCFI97:
 1132              		.cfi_def_cfa_register 7
 1133 0006 7860     		str	r0, [r7, #4]
 1134 0008 3960     		str	r1, [r7]
 568:../firmware/n32g430_std_periph_driver/src/n32g430_dma.c ****     /* Enable the selected DMA Channelx interrupts */
 569:../firmware/n32g430_std_periph_driver/src/n32g430_dma.c ****     DMAChx->CHCFG |= interrupt;
 1135              		.loc 1 569 11
 1136 000a 7B68     		ldr	r3, [r7, #4]
 1137 000c 1A68     		ldr	r2, [r3]
 1138              		.loc 1 569 19
 1139 000e 3B68     		ldr	r3, [r7]
 1140 0010 1A43     		orrs	r2, r2, r3
 1141 0012 7B68     		ldr	r3, [r7, #4]
 1142 0014 1A60     		str	r2, [r3]
 570:../firmware/n32g430_std_periph_driver/src/n32g430_dma.c **** }
 1143              		.loc 1 570 1
 1144 0016 00BF     		nop
 1145 0018 0C37     		adds	r7, r7, #12
 1146              	.LCFI98:
 1147              		.cfi_def_cfa_offset 4
 1148 001a BD46     		mov	sp, r7
 1149              	.LCFI99:
 1150              		.cfi_def_cfa_register 13
 1151              		@ sp needed
 1152 001c 5DF8047B 		ldr	r7, [sp], #4
ARM GAS  C:\Users\ZShuai\AppData\Local\Temp\cc5WYDZP.s 			page 31


 1153              	.LCFI100:
 1154              		.cfi_restore 7
 1155              		.cfi_def_cfa_offset 0
 1156 0020 7047     		bx	lr
 1157              		.cfi_endproc
 1158              	.LFE146:
 1160              		.section	.text.DMA_Interrupts_Disable,"ax",%progbits
 1161              		.align	1
 1162              		.global	DMA_Interrupts_Disable
 1163              		.syntax unified
 1164              		.thumb
 1165              		.thumb_func
 1167              	DMA_Interrupts_Disable:
 1168              	.LFB147:
 571:../firmware/n32g430_std_periph_driver/src/n32g430_dma.c **** 
 572:../firmware/n32g430_std_periph_driver/src/n32g430_dma.c **** /**
 573:../firmware/n32g430_std_periph_driver/src/n32g430_dma.c **** *\*\name    DMA_Interrupts_Disable.
 574:../firmware/n32g430_std_periph_driver/src/n32g430_dma.c **** *\*\fun     DMA Channelx interrupts disable.
 575:../firmware/n32g430_std_periph_driver/src/n32g430_dma.c **** *\*\param   DMAChx :
 576:../firmware/n32g430_std_periph_driver/src/n32g430_dma.c **** *\*\          - DMA_CH1
 577:../firmware/n32g430_std_periph_driver/src/n32g430_dma.c **** *\*\          - DMA_CH2
 578:../firmware/n32g430_std_periph_driver/src/n32g430_dma.c **** *\*\          - DMA_CH3
 579:../firmware/n32g430_std_periph_driver/src/n32g430_dma.c **** *\*\          - DMA_CH4
 580:../firmware/n32g430_std_periph_driver/src/n32g430_dma.c **** *\*\          - DMA_CH5
 581:../firmware/n32g430_std_periph_driver/src/n32g430_dma.c **** *\*\          - DMA_CH6
 582:../firmware/n32g430_std_periph_driver/src/n32g430_dma.c **** *\*\          - DMA_CH7
 583:../firmware/n32g430_std_periph_driver/src/n32g430_dma.c **** *\*\          - DMA_CH8
 584:../firmware/n32g430_std_periph_driver/src/n32g430_dma.c **** *\*\param   interrupt :
 585:../firmware/n32g430_std_periph_driver/src/n32g430_dma.c **** *\*\          - DMA_INT_TXC
 586:../firmware/n32g430_std_periph_driver/src/n32g430_dma.c **** *\*\          - DMA_INT_HTX
 587:../firmware/n32g430_std_periph_driver/src/n32g430_dma.c **** *\*\          - DMA_INT_ERR
 588:../firmware/n32g430_std_periph_driver/src/n32g430_dma.c **** *\*\return  none
 589:../firmware/n32g430_std_periph_driver/src/n32g430_dma.c **** **/
 590:../firmware/n32g430_std_periph_driver/src/n32g430_dma.c **** void DMA_Interrupts_Disable(DMA_ChannelType* DMAChx, uint32_t interrupt)
 591:../firmware/n32g430_std_periph_driver/src/n32g430_dma.c **** {
 1169              		.loc 1 591 1
 1170              		.cfi_startproc
 1171              		@ args = 0, pretend = 0, frame = 8
 1172              		@ frame_needed = 1, uses_anonymous_args = 0
 1173              		@ link register save eliminated.
 1174 0000 80B4     		push	{r7}
 1175              	.LCFI101:
 1176              		.cfi_def_cfa_offset 4
 1177              		.cfi_offset 7, -4
 1178 0002 83B0     		sub	sp, sp, #12
 1179              	.LCFI102:
 1180              		.cfi_def_cfa_offset 16
 1181 0004 00AF     		add	r7, sp, #0
 1182              	.LCFI103:
 1183              		.cfi_def_cfa_register 7
 1184 0006 7860     		str	r0, [r7, #4]
 1185 0008 3960     		str	r1, [r7]
 592:../firmware/n32g430_std_periph_driver/src/n32g430_dma.c ****     /* Disable the selected DMA Channelx interrupts */
 593:../firmware/n32g430_std_periph_driver/src/n32g430_dma.c ****     DMAChx->CHCFG &= (~interrupt);
 1186              		.loc 1 593 11
 1187 000a 7B68     		ldr	r3, [r7, #4]
 1188 000c 1A68     		ldr	r2, [r3]
ARM GAS  C:\Users\ZShuai\AppData\Local\Temp\cc5WYDZP.s 			page 32


 1189              		.loc 1 593 23
 1190 000e 3B68     		ldr	r3, [r7]
 1191 0010 DB43     		mvns	r3, r3
 1192              		.loc 1 593 19
 1193 0012 1A40     		ands	r2, r2, r3
 1194 0014 7B68     		ldr	r3, [r7, #4]
 1195 0016 1A60     		str	r2, [r3]
 594:../firmware/n32g430_std_periph_driver/src/n32g430_dma.c **** }
 1196              		.loc 1 594 1
 1197 0018 00BF     		nop
 1198 001a 0C37     		adds	r7, r7, #12
 1199              	.LCFI104:
 1200              		.cfi_def_cfa_offset 4
 1201 001c BD46     		mov	sp, r7
 1202              	.LCFI105:
 1203              		.cfi_def_cfa_register 13
 1204              		@ sp needed
 1205 001e 5DF8047B 		ldr	r7, [sp], #4
 1206              	.LCFI106:
 1207              		.cfi_restore 7
 1208              		.cfi_def_cfa_offset 0
 1209 0022 7047     		bx	lr
 1210              		.cfi_endproc
 1211              	.LFE147:
 1213              		.section	.text.DMA_Current_Data_Transfer_Number_Set,"ax",%progbits
 1214              		.align	1
 1215              		.global	DMA_Current_Data_Transfer_Number_Set
 1216              		.syntax unified
 1217              		.thumb
 1218              		.thumb_func
 1220              	DMA_Current_Data_Transfer_Number_Set:
 1221              	.LFB148:
 595:../firmware/n32g430_std_periph_driver/src/n32g430_dma.c **** 
 596:../firmware/n32g430_std_periph_driver/src/n32g430_dma.c **** /**
 597:../firmware/n32g430_std_periph_driver/src/n32g430_dma.c **** *\*\name    DMA_Current_Data_Transfer_Number_Set.
 598:../firmware/n32g430_std_periph_driver/src/n32g430_dma.c **** *\*\fun     DMA Channelx Set the current number of data transfers.
 599:../firmware/n32g430_std_periph_driver/src/n32g430_dma.c **** *\*\param   DMAChx :
 600:../firmware/n32g430_std_periph_driver/src/n32g430_dma.c **** *\*\          - DMA_CH1
 601:../firmware/n32g430_std_periph_driver/src/n32g430_dma.c **** *\*\          - DMA_CH2
 602:../firmware/n32g430_std_periph_driver/src/n32g430_dma.c **** *\*\          - DMA_CH3
 603:../firmware/n32g430_std_periph_driver/src/n32g430_dma.c **** *\*\          - DMA_CH4
 604:../firmware/n32g430_std_periph_driver/src/n32g430_dma.c **** *\*\          - DMA_CH5
 605:../firmware/n32g430_std_periph_driver/src/n32g430_dma.c **** *\*\          - DMA_CH6
 606:../firmware/n32g430_std_periph_driver/src/n32g430_dma.c **** *\*\          - DMA_CH7
 607:../firmware/n32g430_std_periph_driver/src/n32g430_dma.c **** *\*\          - DMA_CH8
 608:../firmware/n32g430_std_periph_driver/src/n32g430_dma.c **** *\*\param   num :
 609:../firmware/n32g430_std_periph_driver/src/n32g430_dma.c **** *\*\note    This function can only be used when the DMAChx is disabled.
 610:../firmware/n32g430_std_periph_driver/src/n32g430_dma.c **** *\*\return  none
 611:../firmware/n32g430_std_periph_driver/src/n32g430_dma.c **** **/
 612:../firmware/n32g430_std_periph_driver/src/n32g430_dma.c **** void DMA_Current_Data_Transfer_Number_Set(DMA_ChannelType* DMAChx, uint16_t num)
 613:../firmware/n32g430_std_periph_driver/src/n32g430_dma.c **** {
 1222              		.loc 1 613 1
 1223              		.cfi_startproc
 1224              		@ args = 0, pretend = 0, frame = 8
 1225              		@ frame_needed = 1, uses_anonymous_args = 0
 1226              		@ link register save eliminated.
 1227 0000 80B4     		push	{r7}
ARM GAS  C:\Users\ZShuai\AppData\Local\Temp\cc5WYDZP.s 			page 33


 1228              	.LCFI107:
 1229              		.cfi_def_cfa_offset 4
 1230              		.cfi_offset 7, -4
 1231 0002 83B0     		sub	sp, sp, #12
 1232              	.LCFI108:
 1233              		.cfi_def_cfa_offset 16
 1234 0004 00AF     		add	r7, sp, #0
 1235              	.LCFI109:
 1236              		.cfi_def_cfa_register 7
 1237 0006 7860     		str	r0, [r7, #4]
 1238 0008 0B46     		mov	r3, r1
 1239 000a 7B80     		strh	r3, [r7, #2]	@ movhi
 614:../firmware/n32g430_std_periph_driver/src/n32g430_dma.c ****     /* Write to DMA Channelx TXNUM */
 615:../firmware/n32g430_std_periph_driver/src/n32g430_dma.c ****     DMAChx->TXNUM = num;
 1240              		.loc 1 615 19
 1241 000c 7A88     		ldrh	r2, [r7, #2]
 1242 000e 7B68     		ldr	r3, [r7, #4]
 1243 0010 5A60     		str	r2, [r3, #4]
 616:../firmware/n32g430_std_periph_driver/src/n32g430_dma.c **** }
 1244              		.loc 1 616 1
 1245 0012 00BF     		nop
 1246 0014 0C37     		adds	r7, r7, #12
 1247              	.LCFI110:
 1248              		.cfi_def_cfa_offset 4
 1249 0016 BD46     		mov	sp, r7
 1250              	.LCFI111:
 1251              		.cfi_def_cfa_register 13
 1252              		@ sp needed
 1253 0018 5DF8047B 		ldr	r7, [sp], #4
 1254              	.LCFI112:
 1255              		.cfi_restore 7
 1256              		.cfi_def_cfa_offset 0
 1257 001c 7047     		bx	lr
 1258              		.cfi_endproc
 1259              	.LFE148:
 1261              		.section	.text.DMA_Current_Data_Transfer_Number_Get,"ax",%progbits
 1262              		.align	1
 1263              		.global	DMA_Current_Data_Transfer_Number_Get
 1264              		.syntax unified
 1265              		.thumb
 1266              		.thumb_func
 1268              	DMA_Current_Data_Transfer_Number_Get:
 1269              	.LFB149:
 617:../firmware/n32g430_std_periph_driver/src/n32g430_dma.c **** 
 618:../firmware/n32g430_std_periph_driver/src/n32g430_dma.c **** /**
 619:../firmware/n32g430_std_periph_driver/src/n32g430_dma.c **** *\*\name    DMA_Current_Data_Transfer_Number_Get.
 620:../firmware/n32g430_std_periph_driver/src/n32g430_dma.c **** *\*\fun     DMA Channelx Gets the current number of data transfers.
 621:../firmware/n32g430_std_periph_driver/src/n32g430_dma.c **** *\*\param   DMAChx :
 622:../firmware/n32g430_std_periph_driver/src/n32g430_dma.c **** *\*\          - DMA_CH1
 623:../firmware/n32g430_std_periph_driver/src/n32g430_dma.c **** *\*\          - DMA_CH2
 624:../firmware/n32g430_std_periph_driver/src/n32g430_dma.c **** *\*\          - DMA_CH3
 625:../firmware/n32g430_std_periph_driver/src/n32g430_dma.c **** *\*\          - DMA_CH4
 626:../firmware/n32g430_std_periph_driver/src/n32g430_dma.c **** *\*\          - DMA_CH5
 627:../firmware/n32g430_std_periph_driver/src/n32g430_dma.c **** *\*\          - DMA_CH6
 628:../firmware/n32g430_std_periph_driver/src/n32g430_dma.c **** *\*\          - DMA_CH7
 629:../firmware/n32g430_std_periph_driver/src/n32g430_dma.c **** *\*\          - DMA_CH8
 630:../firmware/n32g430_std_periph_driver/src/n32g430_dma.c **** *\*\return  Returns the number of bytes remaining to be transferred.
ARM GAS  C:\Users\ZShuai\AppData\Local\Temp\cc5WYDZP.s 			page 34


 631:../firmware/n32g430_std_periph_driver/src/n32g430_dma.c **** **/
 632:../firmware/n32g430_std_periph_driver/src/n32g430_dma.c **** uint16_t DMA_Current_Data_Transfer_Number_Get(DMA_ChannelType* DMAChx)
 633:../firmware/n32g430_std_periph_driver/src/n32g430_dma.c **** {
 1270              		.loc 1 633 1
 1271              		.cfi_startproc
 1272              		@ args = 0, pretend = 0, frame = 8
 1273              		@ frame_needed = 1, uses_anonymous_args = 0
 1274              		@ link register save eliminated.
 1275 0000 80B4     		push	{r7}
 1276              	.LCFI113:
 1277              		.cfi_def_cfa_offset 4
 1278              		.cfi_offset 7, -4
 1279 0002 83B0     		sub	sp, sp, #12
 1280              	.LCFI114:
 1281              		.cfi_def_cfa_offset 16
 1282 0004 00AF     		add	r7, sp, #0
 1283              	.LCFI115:
 1284              		.cfi_def_cfa_register 7
 1285 0006 7860     		str	r0, [r7, #4]
 634:../firmware/n32g430_std_periph_driver/src/n32g430_dma.c ****     /* Returns the number of bytes remaining to be transferred for DMA Channelx */
 635:../firmware/n32g430_std_periph_driver/src/n32g430_dma.c ****     return ((uint16_t)(DMAChx->TXNUM));
 1286              		.loc 1 635 30
 1287 0008 7B68     		ldr	r3, [r7, #4]
 1288 000a 5B68     		ldr	r3, [r3, #4]
 1289              		.loc 1 635 13
 1290 000c 9BB2     		uxth	r3, r3
 636:../firmware/n32g430_std_periph_driver/src/n32g430_dma.c **** }
 1291              		.loc 1 636 1
 1292 000e 1846     		mov	r0, r3
 1293 0010 0C37     		adds	r7, r7, #12
 1294              	.LCFI116:
 1295              		.cfi_def_cfa_offset 4
 1296 0012 BD46     		mov	sp, r7
 1297              	.LCFI117:
 1298              		.cfi_def_cfa_register 13
 1299              		@ sp needed
 1300 0014 5DF8047B 		ldr	r7, [sp], #4
 1301              	.LCFI118:
 1302              		.cfi_restore 7
 1303              		.cfi_def_cfa_offset 0
 1304 0018 7047     		bx	lr
 1305              		.cfi_endproc
 1306              	.LFE149:
 1308              		.section	.text.DMA_Flag_Status_Get,"ax",%progbits
 1309              		.align	1
 1310              		.global	DMA_Flag_Status_Get
 1311              		.syntax unified
 1312              		.thumb
 1313              		.thumb_func
 1315              	DMA_Flag_Status_Get:
 1316              	.LFB150:
 637:../firmware/n32g430_std_periph_driver/src/n32g430_dma.c **** 
 638:../firmware/n32g430_std_periph_driver/src/n32g430_dma.c **** /**
 639:../firmware/n32g430_std_periph_driver/src/n32g430_dma.c **** *\*\name    DMA_Flag_Status_Get.
 640:../firmware/n32g430_std_periph_driver/src/n32g430_dma.c **** *\*\fun     Get DMA Channelx flag status.
 641:../firmware/n32g430_std_periph_driver/src/n32g430_dma.c **** *\*\param   DMAx :
 642:../firmware/n32g430_std_periph_driver/src/n32g430_dma.c **** *\*\          - DMA
ARM GAS  C:\Users\ZShuai\AppData\Local\Temp\cc5WYDZP.s 			page 35


 643:../firmware/n32g430_std_periph_driver/src/n32g430_dma.c **** *\*\param   flag :
 644:../firmware/n32g430_std_periph_driver/src/n32g430_dma.c **** *\*\          - DMA_CH1_GLBF
 645:../firmware/n32g430_std_periph_driver/src/n32g430_dma.c **** *\*\          - DMA_CH1_TXCF
 646:../firmware/n32g430_std_periph_driver/src/n32g430_dma.c **** *\*\          - DMA_CH1_HTXF
 647:../firmware/n32g430_std_periph_driver/src/n32g430_dma.c **** *\*\          - DMA_CH1_ERRF
 648:../firmware/n32g430_std_periph_driver/src/n32g430_dma.c **** *\*\          - DMA_CH2_GLBF
 649:../firmware/n32g430_std_periph_driver/src/n32g430_dma.c **** *\*\          - DMA_CH2_TXCF
 650:../firmware/n32g430_std_periph_driver/src/n32g430_dma.c **** *\*\          - DMA_CH2_HTXF
 651:../firmware/n32g430_std_periph_driver/src/n32g430_dma.c **** *\*\          - DMA_CH2_ERRF
 652:../firmware/n32g430_std_periph_driver/src/n32g430_dma.c **** *\*\          - DMA_CH3_GLBF
 653:../firmware/n32g430_std_periph_driver/src/n32g430_dma.c **** *\*\          - DMA_CH3_TXCF
 654:../firmware/n32g430_std_periph_driver/src/n32g430_dma.c **** *\*\          - DMA_CH3_HTXF
 655:../firmware/n32g430_std_periph_driver/src/n32g430_dma.c **** *\*\          - DMA_CH3_ERRF
 656:../firmware/n32g430_std_periph_driver/src/n32g430_dma.c **** *\*\          - DMA_CH4_GLBF
 657:../firmware/n32g430_std_periph_driver/src/n32g430_dma.c **** *\*\          - DMA_CH4_TXCF
 658:../firmware/n32g430_std_periph_driver/src/n32g430_dma.c **** *\*\          - DMA_CH4_HTXF
 659:../firmware/n32g430_std_periph_driver/src/n32g430_dma.c **** *\*\          - DMA_CH4_ERRF
 660:../firmware/n32g430_std_periph_driver/src/n32g430_dma.c **** *\*\          - DMA_CH5_GLBF
 661:../firmware/n32g430_std_periph_driver/src/n32g430_dma.c **** *\*\          - DMA_CH5_TXCF
 662:../firmware/n32g430_std_periph_driver/src/n32g430_dma.c **** *\*\          - DMA_CH5_HTXF
 663:../firmware/n32g430_std_periph_driver/src/n32g430_dma.c **** *\*\          - DMA_CH5_ERRF
 664:../firmware/n32g430_std_periph_driver/src/n32g430_dma.c **** *\*\          - DMA_CH6_GLBF
 665:../firmware/n32g430_std_periph_driver/src/n32g430_dma.c **** *\*\          - DMA_CH6_TXCF
 666:../firmware/n32g430_std_periph_driver/src/n32g430_dma.c **** *\*\          - DMA_CH6_HTXF
 667:../firmware/n32g430_std_periph_driver/src/n32g430_dma.c **** *\*\          - DMA_CH6_ERRF
 668:../firmware/n32g430_std_periph_driver/src/n32g430_dma.c **** *\*\          - DMA_CH7_GLBF
 669:../firmware/n32g430_std_periph_driver/src/n32g430_dma.c **** *\*\          - DMA_CH7_TXCF
 670:../firmware/n32g430_std_periph_driver/src/n32g430_dma.c **** *\*\          - DMA_CH7_HTXF
 671:../firmware/n32g430_std_periph_driver/src/n32g430_dma.c **** *\*\          - DMA_CH7_ERRF
 672:../firmware/n32g430_std_periph_driver/src/n32g430_dma.c **** *\*\          - DMA_CH8_GLBF
 673:../firmware/n32g430_std_periph_driver/src/n32g430_dma.c **** *\*\          - DMA_CH8_TXCF
 674:../firmware/n32g430_std_periph_driver/src/n32g430_dma.c **** *\*\          - DMA_CH8_HTXF
 675:../firmware/n32g430_std_periph_driver/src/n32g430_dma.c **** *\*\          - DMA_CH8_ERRF
 676:../firmware/n32g430_std_periph_driver/src/n32g430_dma.c **** *\*\return  SET or RESET.
 677:../firmware/n32g430_std_periph_driver/src/n32g430_dma.c **** **/
 678:../firmware/n32g430_std_periph_driver/src/n32g430_dma.c **** FlagStatus DMA_Flag_Status_Get(DMA_Module* DMAx, uint32_t flag)
 679:../firmware/n32g430_std_periph_driver/src/n32g430_dma.c **** {
 1317              		.loc 1 679 1
 1318              		.cfi_startproc
 1319              		@ args = 0, pretend = 0, frame = 8
 1320              		@ frame_needed = 1, uses_anonymous_args = 0
 1321              		@ link register save eliminated.
 1322 0000 80B4     		push	{r7}
 1323              	.LCFI119:
 1324              		.cfi_def_cfa_offset 4
 1325              		.cfi_offset 7, -4
 1326 0002 83B0     		sub	sp, sp, #12
 1327              	.LCFI120:
 1328              		.cfi_def_cfa_offset 16
 1329 0004 00AF     		add	r7, sp, #0
 1330              	.LCFI121:
 1331              		.cfi_def_cfa_register 7
 1332 0006 7860     		str	r0, [r7, #4]
 1333 0008 3960     		str	r1, [r7]
 680:../firmware/n32g430_std_periph_driver/src/n32g430_dma.c ****     /* Check the status of the DMA flag */
 681:../firmware/n32g430_std_periph_driver/src/n32g430_dma.c ****     if ((DMAx->INTSTS & flag) == (uint32_t)RESET)
 1334              		.loc 1 681 14
ARM GAS  C:\Users\ZShuai\AppData\Local\Temp\cc5WYDZP.s 			page 36


 1335 000a 7B68     		ldr	r3, [r7, #4]
 1336 000c 1A68     		ldr	r2, [r3]
 1337              		.loc 1 681 23
 1338 000e 3B68     		ldr	r3, [r7]
 1339 0010 1340     		ands	r3, r3, r2
 1340              		.loc 1 681 8
 1341 0012 002B     		cmp	r3, #0
 1342 0014 01D1     		bne	.L34
 682:../firmware/n32g430_std_periph_driver/src/n32g430_dma.c ****     {
 683:../firmware/n32g430_std_periph_driver/src/n32g430_dma.c ****         /* DMA_CHx_Flag is reset */
 684:../firmware/n32g430_std_periph_driver/src/n32g430_dma.c ****         return RESET;
 1343              		.loc 1 684 16
 1344 0016 0023     		movs	r3, #0
 1345 0018 00E0     		b	.L35
 1346              	.L34:
 685:../firmware/n32g430_std_periph_driver/src/n32g430_dma.c ****     }
 686:../firmware/n32g430_std_periph_driver/src/n32g430_dma.c ****     else
 687:../firmware/n32g430_std_periph_driver/src/n32g430_dma.c ****     {
 688:../firmware/n32g430_std_periph_driver/src/n32g430_dma.c ****         /* DMA_CHx_Flag is set */
 689:../firmware/n32g430_std_periph_driver/src/n32g430_dma.c ****         return SET;
 1347              		.loc 1 689 16
 1348 001a 0123     		movs	r3, #1
 1349              	.L35:
 690:../firmware/n32g430_std_periph_driver/src/n32g430_dma.c ****     }
 691:../firmware/n32g430_std_periph_driver/src/n32g430_dma.c **** }
 1350              		.loc 1 691 1
 1351 001c 1846     		mov	r0, r3
 1352 001e 0C37     		adds	r7, r7, #12
 1353              	.LCFI122:
 1354              		.cfi_def_cfa_offset 4
 1355 0020 BD46     		mov	sp, r7
 1356              	.LCFI123:
 1357              		.cfi_def_cfa_register 13
 1358              		@ sp needed
 1359 0022 5DF8047B 		ldr	r7, [sp], #4
 1360              	.LCFI124:
 1361              		.cfi_restore 7
 1362              		.cfi_def_cfa_offset 0
 1363 0026 7047     		bx	lr
 1364              		.cfi_endproc
 1365              	.LFE150:
 1367              		.section	.text.DMA_Flag_Status_Clear,"ax",%progbits
 1368              		.align	1
 1369              		.global	DMA_Flag_Status_Clear
 1370              		.syntax unified
 1371              		.thumb
 1372              		.thumb_func
 1374              	DMA_Flag_Status_Clear:
 1375              	.LFB151:
 692:../firmware/n32g430_std_periph_driver/src/n32g430_dma.c **** 
 693:../firmware/n32g430_std_periph_driver/src/n32g430_dma.c **** /**
 694:../firmware/n32g430_std_periph_driver/src/n32g430_dma.c **** *\*\name    DMA_Flag_Status_Clear.
 695:../firmware/n32g430_std_periph_driver/src/n32g430_dma.c **** *\*\fun     Clear DMA Channelx flag status.
 696:../firmware/n32g430_std_periph_driver/src/n32g430_dma.c **** *\*\param   DMAx :
 697:../firmware/n32g430_std_periph_driver/src/n32g430_dma.c **** *\*\          - DMA
 698:../firmware/n32g430_std_periph_driver/src/n32g430_dma.c **** *\*\param   flag :
 699:../firmware/n32g430_std_periph_driver/src/n32g430_dma.c **** *\*\          - DMA_CH1_GLBF
ARM GAS  C:\Users\ZShuai\AppData\Local\Temp\cc5WYDZP.s 			page 37


 700:../firmware/n32g430_std_periph_driver/src/n32g430_dma.c **** *\*\          - DMA_CH1_TXCF
 701:../firmware/n32g430_std_periph_driver/src/n32g430_dma.c **** *\*\          - DMA_CH1_HTXF
 702:../firmware/n32g430_std_periph_driver/src/n32g430_dma.c **** *\*\          - DMA_CH1_ERRF
 703:../firmware/n32g430_std_periph_driver/src/n32g430_dma.c **** *\*\          - DMA_CH2_GLBF
 704:../firmware/n32g430_std_periph_driver/src/n32g430_dma.c **** *\*\          - DMA_CH2_TXCF
 705:../firmware/n32g430_std_periph_driver/src/n32g430_dma.c **** *\*\          - DMA_CH2_HTXF
 706:../firmware/n32g430_std_periph_driver/src/n32g430_dma.c **** *\*\          - DMA_CH2_ERRF
 707:../firmware/n32g430_std_periph_driver/src/n32g430_dma.c **** *\*\          - DMA_CH3_GLBF
 708:../firmware/n32g430_std_periph_driver/src/n32g430_dma.c **** *\*\          - DMA_CH3_TXCF
 709:../firmware/n32g430_std_periph_driver/src/n32g430_dma.c **** *\*\          - DMA_CH3_HTXF
 710:../firmware/n32g430_std_periph_driver/src/n32g430_dma.c **** *\*\          - DMA_CH3_ERRF
 711:../firmware/n32g430_std_periph_driver/src/n32g430_dma.c **** *\*\          - DMA_CH4_GLBF
 712:../firmware/n32g430_std_periph_driver/src/n32g430_dma.c **** *\*\          - DMA_CH4_TXCF
 713:../firmware/n32g430_std_periph_driver/src/n32g430_dma.c **** *\*\          - DMA_CH4_HTXF
 714:../firmware/n32g430_std_periph_driver/src/n32g430_dma.c **** *\*\          - DMA_CH4_ERRF
 715:../firmware/n32g430_std_periph_driver/src/n32g430_dma.c **** *\*\          - DMA_CH5_GLBF
 716:../firmware/n32g430_std_periph_driver/src/n32g430_dma.c **** *\*\          - DMA_CH5_TXCF
 717:../firmware/n32g430_std_periph_driver/src/n32g430_dma.c **** *\*\          - DMA_CH5_HTXF
 718:../firmware/n32g430_std_periph_driver/src/n32g430_dma.c **** *\*\          - DMA_CH5_ERRF
 719:../firmware/n32g430_std_periph_driver/src/n32g430_dma.c **** *\*\          - DMA_CH6_GLBF
 720:../firmware/n32g430_std_periph_driver/src/n32g430_dma.c **** *\*\          - DMA_CH6_TXCF
 721:../firmware/n32g430_std_periph_driver/src/n32g430_dma.c **** *\*\          - DMA_CH6_HTXF
 722:../firmware/n32g430_std_periph_driver/src/n32g430_dma.c **** *\*\          - DMA_CH6_ERRF
 723:../firmware/n32g430_std_periph_driver/src/n32g430_dma.c **** *\*\          - DMA_CH7_GLBF
 724:../firmware/n32g430_std_periph_driver/src/n32g430_dma.c **** *\*\          - DMA_CH7_TXCF
 725:../firmware/n32g430_std_periph_driver/src/n32g430_dma.c **** *\*\          - DMA_CH7_HTXF
 726:../firmware/n32g430_std_periph_driver/src/n32g430_dma.c **** *\*\          - DMA_CH7_ERRF
 727:../firmware/n32g430_std_periph_driver/src/n32g430_dma.c **** *\*\          - DMA_CH8_GLBF
 728:../firmware/n32g430_std_periph_driver/src/n32g430_dma.c **** *\*\          - DMA_CH8_TXCF
 729:../firmware/n32g430_std_periph_driver/src/n32g430_dma.c **** *\*\          - DMA_CH8_HTXF
 730:../firmware/n32g430_std_periph_driver/src/n32g430_dma.c **** *\*\          - DMA_CH8_ERRF
 731:../firmware/n32g430_std_periph_driver/src/n32g430_dma.c **** *\*\return  none.
 732:../firmware/n32g430_std_periph_driver/src/n32g430_dma.c **** **/
 733:../firmware/n32g430_std_periph_driver/src/n32g430_dma.c **** void DMA_Flag_Status_Clear(DMA_Module* DMAx, uint32_t flag)
 734:../firmware/n32g430_std_periph_driver/src/n32g430_dma.c **** {
 1376              		.loc 1 734 1
 1377              		.cfi_startproc
 1378              		@ args = 0, pretend = 0, frame = 8
 1379              		@ frame_needed = 1, uses_anonymous_args = 0
 1380              		@ link register save eliminated.
 1381 0000 80B4     		push	{r7}
 1382              	.LCFI125:
 1383              		.cfi_def_cfa_offset 4
 1384              		.cfi_offset 7, -4
 1385 0002 83B0     		sub	sp, sp, #12
 1386              	.LCFI126:
 1387              		.cfi_def_cfa_offset 16
 1388 0004 00AF     		add	r7, sp, #0
 1389              	.LCFI127:
 1390              		.cfi_def_cfa_register 7
 1391 0006 7860     		str	r0, [r7, #4]
 1392 0008 3960     		str	r1, [r7]
 735:../firmware/n32g430_std_periph_driver/src/n32g430_dma.c ****     /* Clear DMA flags */
 736:../firmware/n32g430_std_periph_driver/src/n32g430_dma.c ****     DMAx->INTCLR = flag;
 1393              		.loc 1 736 18
 1394 000a 7B68     		ldr	r3, [r7, #4]
 1395 000c 3A68     		ldr	r2, [r7]
ARM GAS  C:\Users\ZShuai\AppData\Local\Temp\cc5WYDZP.s 			page 38


 1396 000e 5A60     		str	r2, [r3, #4]
 737:../firmware/n32g430_std_periph_driver/src/n32g430_dma.c **** }
 1397              		.loc 1 737 1
 1398 0010 00BF     		nop
 1399 0012 0C37     		adds	r7, r7, #12
 1400              	.LCFI128:
 1401              		.cfi_def_cfa_offset 4
 1402 0014 BD46     		mov	sp, r7
 1403              	.LCFI129:
 1404              		.cfi_def_cfa_register 13
 1405              		@ sp needed
 1406 0016 5DF8047B 		ldr	r7, [sp], #4
 1407              	.LCFI130:
 1408              		.cfi_restore 7
 1409              		.cfi_def_cfa_offset 0
 1410 001a 7047     		bx	lr
 1411              		.cfi_endproc
 1412              	.LFE151:
 1414              		.section	.text.DMA_Interrupt_Status_Get,"ax",%progbits
 1415              		.align	1
 1416              		.global	DMA_Interrupt_Status_Get
 1417              		.syntax unified
 1418              		.thumb
 1419              		.thumb_func
 1421              	DMA_Interrupt_Status_Get:
 1422              	.LFB152:
 738:../firmware/n32g430_std_periph_driver/src/n32g430_dma.c **** 
 739:../firmware/n32g430_std_periph_driver/src/n32g430_dma.c **** /**
 740:../firmware/n32g430_std_periph_driver/src/n32g430_dma.c **** *\*\name    DMA_Interrupt_Status_Get.
 741:../firmware/n32g430_std_periph_driver/src/n32g430_dma.c **** *\*\fun     Get DMA Channelx interrupt status.
 742:../firmware/n32g430_std_periph_driver/src/n32g430_dma.c **** *\*\param   DMA :
 743:../firmware/n32g430_std_periph_driver/src/n32g430_dma.c **** *\*\          - DMA
 744:../firmware/n32g430_std_periph_driver/src/n32g430_dma.c **** *\*\param   interrupt :
 745:../firmware/n32g430_std_periph_driver/src/n32g430_dma.c **** *\*\          - DMA_CH1_INT_GLB
 746:../firmware/n32g430_std_periph_driver/src/n32g430_dma.c **** *\*\          - DMA_CH1_INT_TXC
 747:../firmware/n32g430_std_periph_driver/src/n32g430_dma.c **** *\*\          - DMA_CH1_INT_HTX
 748:../firmware/n32g430_std_periph_driver/src/n32g430_dma.c **** *\*\          - DMA_CH1_INT_ERR
 749:../firmware/n32g430_std_periph_driver/src/n32g430_dma.c **** *\*\          - DMA_CH2_INT_GLB
 750:../firmware/n32g430_std_periph_driver/src/n32g430_dma.c **** *\*\          - DMA_CH2_INT_TXC
 751:../firmware/n32g430_std_periph_driver/src/n32g430_dma.c **** *\*\          - DMA_CH2_INT_HTX
 752:../firmware/n32g430_std_periph_driver/src/n32g430_dma.c **** *\*\          - DMA_CH2_INT_ERR
 753:../firmware/n32g430_std_periph_driver/src/n32g430_dma.c **** *\*\          - DMA_CH3_INT_GLB
 754:../firmware/n32g430_std_periph_driver/src/n32g430_dma.c **** *\*\          - DMA_CH3_INT_TXC
 755:../firmware/n32g430_std_periph_driver/src/n32g430_dma.c **** *\*\          - DMA_CH3_INT_HTX
 756:../firmware/n32g430_std_periph_driver/src/n32g430_dma.c **** *\*\          - DMA_CH3_INT_ERR
 757:../firmware/n32g430_std_periph_driver/src/n32g430_dma.c **** *\*\          - DMA_CH4_INT_GLB
 758:../firmware/n32g430_std_periph_driver/src/n32g430_dma.c **** *\*\          - DMA_CH4_INT_TXC
 759:../firmware/n32g430_std_periph_driver/src/n32g430_dma.c **** *\*\          - DMA_CH4_INT_HTX
 760:../firmware/n32g430_std_periph_driver/src/n32g430_dma.c **** *\*\          - DMA_CH4_INT_ERR
 761:../firmware/n32g430_std_periph_driver/src/n32g430_dma.c **** *\*\          - DMA_CH5_INT_GLB
 762:../firmware/n32g430_std_periph_driver/src/n32g430_dma.c **** *\*\          - DMA_CH5_INT_TXC
 763:../firmware/n32g430_std_periph_driver/src/n32g430_dma.c **** *\*\          - DMA_CH5_INT_HTX
 764:../firmware/n32g430_std_periph_driver/src/n32g430_dma.c **** *\*\          - DMA_CH5_INT_ERR
 765:../firmware/n32g430_std_periph_driver/src/n32g430_dma.c **** *\*\          - DMA_CH6_INT_GLB
 766:../firmware/n32g430_std_periph_driver/src/n32g430_dma.c **** *\*\          - DMA_CH6_INT_TXC
 767:../firmware/n32g430_std_periph_driver/src/n32g430_dma.c **** *\*\          - DMA_CH6_INT_HTX
 768:../firmware/n32g430_std_periph_driver/src/n32g430_dma.c **** *\*\          - DMA_CH6_INT_ERR
ARM GAS  C:\Users\ZShuai\AppData\Local\Temp\cc5WYDZP.s 			page 39


 769:../firmware/n32g430_std_periph_driver/src/n32g430_dma.c **** *\*\          - DMA_CH7_INT_GLB
 770:../firmware/n32g430_std_periph_driver/src/n32g430_dma.c **** *\*\          - DMA_CH7_INT_TXC
 771:../firmware/n32g430_std_periph_driver/src/n32g430_dma.c **** *\*\          - DMA_CH7_INT_HTX
 772:../firmware/n32g430_std_periph_driver/src/n32g430_dma.c **** *\*\          - DMA_CH7_INT_ERR
 773:../firmware/n32g430_std_periph_driver/src/n32g430_dma.c **** *\*\          - DMA_CH8_INT_GLB
 774:../firmware/n32g430_std_periph_driver/src/n32g430_dma.c **** *\*\          - DMA_CH8_INT_TXC
 775:../firmware/n32g430_std_periph_driver/src/n32g430_dma.c **** *\*\          - DMA_CH8_INT_HTX
 776:../firmware/n32g430_std_periph_driver/src/n32g430_dma.c **** *\*\          - DMA_CH8_INT_ERR
 777:../firmware/n32g430_std_periph_driver/src/n32g430_dma.c **** *\*\return  SET or RESET.
 778:../firmware/n32g430_std_periph_driver/src/n32g430_dma.c **** **/
 779:../firmware/n32g430_std_periph_driver/src/n32g430_dma.c **** INTStatus DMA_Interrupt_Status_Get(DMA_Module* DMAx, uint32_t interrupt)
 780:../firmware/n32g430_std_periph_driver/src/n32g430_dma.c **** {
 1423              		.loc 1 780 1
 1424              		.cfi_startproc
 1425              		@ args = 0, pretend = 0, frame = 8
 1426              		@ frame_needed = 1, uses_anonymous_args = 0
 1427              		@ link register save eliminated.
 1428 0000 80B4     		push	{r7}
 1429              	.LCFI131:
 1430              		.cfi_def_cfa_offset 4
 1431              		.cfi_offset 7, -4
 1432 0002 83B0     		sub	sp, sp, #12
 1433              	.LCFI132:
 1434              		.cfi_def_cfa_offset 16
 1435 0004 00AF     		add	r7, sp, #0
 1436              	.LCFI133:
 1437              		.cfi_def_cfa_register 7
 1438 0006 7860     		str	r0, [r7, #4]
 1439 0008 3960     		str	r1, [r7]
 781:../firmware/n32g430_std_periph_driver/src/n32g430_dma.c ****     /* Check the status of the specified DMA interrupt */
 782:../firmware/n32g430_std_periph_driver/src/n32g430_dma.c ****     if ((DMAx->INTSTS & interrupt) == (uint32_t)RESET)
 1440              		.loc 1 782 14
 1441 000a 7B68     		ldr	r3, [r7, #4]
 1442 000c 1A68     		ldr	r2, [r3]
 1443              		.loc 1 782 23
 1444 000e 3B68     		ldr	r3, [r7]
 1445 0010 1340     		ands	r3, r3, r2
 1446              		.loc 1 782 8
 1447 0012 002B     		cmp	r3, #0
 1448 0014 01D1     		bne	.L38
 783:../firmware/n32g430_std_periph_driver/src/n32g430_dma.c ****     {
 784:../firmware/n32g430_std_periph_driver/src/n32g430_dma.c ****         /* DMA_CHx_IT is reset */
 785:../firmware/n32g430_std_periph_driver/src/n32g430_dma.c ****         return RESET;
 1449              		.loc 1 785 16
 1450 0016 0023     		movs	r3, #0
 1451 0018 00E0     		b	.L39
 1452              	.L38:
 786:../firmware/n32g430_std_periph_driver/src/n32g430_dma.c ****     }
 787:../firmware/n32g430_std_periph_driver/src/n32g430_dma.c ****     else
 788:../firmware/n32g430_std_periph_driver/src/n32g430_dma.c ****     {
 789:../firmware/n32g430_std_periph_driver/src/n32g430_dma.c ****         /* DMA_CHx_IT is set */
 790:../firmware/n32g430_std_periph_driver/src/n32g430_dma.c ****         return SET;
 1453              		.loc 1 790 16
 1454 001a 0123     		movs	r3, #1
 1455              	.L39:
 791:../firmware/n32g430_std_periph_driver/src/n32g430_dma.c ****     }
 792:../firmware/n32g430_std_periph_driver/src/n32g430_dma.c **** }
ARM GAS  C:\Users\ZShuai\AppData\Local\Temp\cc5WYDZP.s 			page 40


 1456              		.loc 1 792 1
 1457 001c 1846     		mov	r0, r3
 1458 001e 0C37     		adds	r7, r7, #12
 1459              	.LCFI134:
 1460              		.cfi_def_cfa_offset 4
 1461 0020 BD46     		mov	sp, r7
 1462              	.LCFI135:
 1463              		.cfi_def_cfa_register 13
 1464              		@ sp needed
 1465 0022 5DF8047B 		ldr	r7, [sp], #4
 1466              	.LCFI136:
 1467              		.cfi_restore 7
 1468              		.cfi_def_cfa_offset 0
 1469 0026 7047     		bx	lr
 1470              		.cfi_endproc
 1471              	.LFE152:
 1473              		.section	.text.DMA_Interrupt_Status_Clear,"ax",%progbits
 1474              		.align	1
 1475              		.global	DMA_Interrupt_Status_Clear
 1476              		.syntax unified
 1477              		.thumb
 1478              		.thumb_func
 1480              	DMA_Interrupt_Status_Clear:
 1481              	.LFB153:
 793:../firmware/n32g430_std_periph_driver/src/n32g430_dma.c **** 
 794:../firmware/n32g430_std_periph_driver/src/n32g430_dma.c **** /**
 795:../firmware/n32g430_std_periph_driver/src/n32g430_dma.c **** *\*\name    DMA_Interrupt_Status_Clear.
 796:../firmware/n32g430_std_periph_driver/src/n32g430_dma.c **** *\*\fun     Clear DMA Channelx interrupt status bits.
 797:../firmware/n32g430_std_periph_driver/src/n32g430_dma.c **** *\*\param   DMAx :
 798:../firmware/n32g430_std_periph_driver/src/n32g430_dma.c **** *\*\          - DMA
 799:../firmware/n32g430_std_periph_driver/src/n32g430_dma.c **** *\*\param   interrupt :
 800:../firmware/n32g430_std_periph_driver/src/n32g430_dma.c **** *\*\          - DMA_CH1_INT_GLB
 801:../firmware/n32g430_std_periph_driver/src/n32g430_dma.c **** *\*\          - DMA_CH1_INT_TXC
 802:../firmware/n32g430_std_periph_driver/src/n32g430_dma.c **** *\*\          - DMA_CH1_INT_HTX
 803:../firmware/n32g430_std_periph_driver/src/n32g430_dma.c **** *\*\          - DMA_CH1_INT_ERR
 804:../firmware/n32g430_std_periph_driver/src/n32g430_dma.c **** *\*\          - DMA_CH2_INT_GLB
 805:../firmware/n32g430_std_periph_driver/src/n32g430_dma.c **** *\*\          - DMA_CH2_INT_TXC
 806:../firmware/n32g430_std_periph_driver/src/n32g430_dma.c **** *\*\          - DMA_CH2_INT_HTX
 807:../firmware/n32g430_std_periph_driver/src/n32g430_dma.c **** *\*\          - DMA_CH2_INT_ERR
 808:../firmware/n32g430_std_periph_driver/src/n32g430_dma.c **** *\*\          - DMA_CH3_INT_GLB
 809:../firmware/n32g430_std_periph_driver/src/n32g430_dma.c **** *\*\          - DMA_CH3_INT_TXC
 810:../firmware/n32g430_std_periph_driver/src/n32g430_dma.c **** *\*\          - DMA_CH3_INT_HTX
 811:../firmware/n32g430_std_periph_driver/src/n32g430_dma.c **** *\*\          - DMA_CH3_INT_ERR
 812:../firmware/n32g430_std_periph_driver/src/n32g430_dma.c **** *\*\          - DMA_CH4_INT_GLB
 813:../firmware/n32g430_std_periph_driver/src/n32g430_dma.c **** *\*\          - DMA_CH4_INT_TXC
 814:../firmware/n32g430_std_periph_driver/src/n32g430_dma.c **** *\*\          - DMA_CH4_INT_HTX
 815:../firmware/n32g430_std_periph_driver/src/n32g430_dma.c **** *\*\          - DMA_CH4_INT_ERR
 816:../firmware/n32g430_std_periph_driver/src/n32g430_dma.c **** *\*\          - DMA_CH5_INT_GLB
 817:../firmware/n32g430_std_periph_driver/src/n32g430_dma.c **** *\*\          - DMA_CH5_INT_TXC
 818:../firmware/n32g430_std_periph_driver/src/n32g430_dma.c **** *\*\          - DMA_CH5_INT_HTX
 819:../firmware/n32g430_std_periph_driver/src/n32g430_dma.c **** *\*\          - DMA_CH5_INT_ERR
 820:../firmware/n32g430_std_periph_driver/src/n32g430_dma.c **** *\*\          - DMA_CH6_INT_GLB
 821:../firmware/n32g430_std_periph_driver/src/n32g430_dma.c **** *\*\          - DMA_CH6_INT_TXC
 822:../firmware/n32g430_std_periph_driver/src/n32g430_dma.c **** *\*\          - DMA_CH6_INT_HTX
 823:../firmware/n32g430_std_periph_driver/src/n32g430_dma.c **** *\*\          - DMA_CH6_INT_ERR
 824:../firmware/n32g430_std_periph_driver/src/n32g430_dma.c **** *\*\          - DMA_CH7_INT_GLB
 825:../firmware/n32g430_std_periph_driver/src/n32g430_dma.c **** *\*\          - DMA_CH7_INT_TXC
ARM GAS  C:\Users\ZShuai\AppData\Local\Temp\cc5WYDZP.s 			page 41


 826:../firmware/n32g430_std_periph_driver/src/n32g430_dma.c **** *\*\          - DMA_CH7_INT_HTX
 827:../firmware/n32g430_std_periph_driver/src/n32g430_dma.c **** *\*\          - DMA_CH7_INT_ERR
 828:../firmware/n32g430_std_periph_driver/src/n32g430_dma.c **** *\*\          - DMA_CH8_INT_GLB
 829:../firmware/n32g430_std_periph_driver/src/n32g430_dma.c **** *\*\          - DMA_CH8_INT_TXC
 830:../firmware/n32g430_std_periph_driver/src/n32g430_dma.c **** *\*\          - DMA_CH8_INT_HTX
 831:../firmware/n32g430_std_periph_driver/src/n32g430_dma.c **** *\*\          - DMA_CH8_INT_ERR
 832:../firmware/n32g430_std_periph_driver/src/n32g430_dma.c **** *\*\return  none.
 833:../firmware/n32g430_std_periph_driver/src/n32g430_dma.c **** **/
 834:../firmware/n32g430_std_periph_driver/src/n32g430_dma.c **** void DMA_Interrupt_Status_Clear(DMA_Module* DMAx, uint32_t interrupt)
 835:../firmware/n32g430_std_periph_driver/src/n32g430_dma.c **** {
 1482              		.loc 1 835 1
 1483              		.cfi_startproc
 1484              		@ args = 0, pretend = 0, frame = 8
 1485              		@ frame_needed = 1, uses_anonymous_args = 0
 1486              		@ link register save eliminated.
 1487 0000 80B4     		push	{r7}
 1488              	.LCFI137:
 1489              		.cfi_def_cfa_offset 4
 1490              		.cfi_offset 7, -4
 1491 0002 83B0     		sub	sp, sp, #12
 1492              	.LCFI138:
 1493              		.cfi_def_cfa_offset 16
 1494 0004 00AF     		add	r7, sp, #0
 1495              	.LCFI139:
 1496              		.cfi_def_cfa_register 7
 1497 0006 7860     		str	r0, [r7, #4]
 1498 0008 3960     		str	r1, [r7]
 836:../firmware/n32g430_std_periph_driver/src/n32g430_dma.c ****     /* Clear the selected DMA interrupt status bits */
 837:../firmware/n32g430_std_periph_driver/src/n32g430_dma.c ****     DMAx->INTCLR = interrupt;
 1499              		.loc 1 837 18
 1500 000a 7B68     		ldr	r3, [r7, #4]
 1501 000c 3A68     		ldr	r2, [r7]
 1502 000e 5A60     		str	r2, [r3, #4]
 838:../firmware/n32g430_std_periph_driver/src/n32g430_dma.c **** }
 1503              		.loc 1 838 1
 1504 0010 00BF     		nop
 1505 0012 0C37     		adds	r7, r7, #12
 1506              	.LCFI140:
 1507              		.cfi_def_cfa_offset 4
 1508 0014 BD46     		mov	sp, r7
 1509              	.LCFI141:
 1510              		.cfi_def_cfa_register 13
 1511              		@ sp needed
 1512 0016 5DF8047B 		ldr	r7, [sp], #4
 1513              	.LCFI142:
 1514              		.cfi_restore 7
 1515              		.cfi_def_cfa_offset 0
 1516 001a 7047     		bx	lr
 1517              		.cfi_endproc
 1518              	.LFE153:
 1520              		.section	.text.DMA_Channel_Request_Remap,"ax",%progbits
 1521              		.align	1
 1522              		.global	DMA_Channel_Request_Remap
 1523              		.syntax unified
 1524              		.thumb
 1525              		.thumb_func
 1527              	DMA_Channel_Request_Remap:
ARM GAS  C:\Users\ZShuai\AppData\Local\Temp\cc5WYDZP.s 			page 42


 1528              	.LFB154:
 839:../firmware/n32g430_std_periph_driver/src/n32g430_dma.c **** 
 840:../firmware/n32g430_std_periph_driver/src/n32g430_dma.c **** /**
 841:../firmware/n32g430_std_periph_driver/src/n32g430_dma.c **** *\*\name    DMA_Channel_Request_Remap.
 842:../firmware/n32g430_std_periph_driver/src/n32g430_dma.c **** *\*\fun     Set DMA Channelx's remap request.
 843:../firmware/n32g430_std_periph_driver/src/n32g430_dma.c **** *\*\param   DMAChx :
 844:../firmware/n32g430_std_periph_driver/src/n32g430_dma.c **** *\*\          - DMA_CH1
 845:../firmware/n32g430_std_periph_driver/src/n32g430_dma.c **** *\*\          - DMA_CH2
 846:../firmware/n32g430_std_periph_driver/src/n32g430_dma.c **** *\*\          - DMA_CH3
 847:../firmware/n32g430_std_periph_driver/src/n32g430_dma.c **** *\*\          - DMA_CH4
 848:../firmware/n32g430_std_periph_driver/src/n32g430_dma.c **** *\*\          - DMA_CH5
 849:../firmware/n32g430_std_periph_driver/src/n32g430_dma.c **** *\*\          - DMA_CH6
 850:../firmware/n32g430_std_periph_driver/src/n32g430_dma.c **** *\*\          - DMA_CH7
 851:../firmware/n32g430_std_periph_driver/src/n32g430_dma.c **** *\*\          - DMA_CH8
 852:../firmware/n32g430_std_periph_driver/src/n32g430_dma.c **** *\*\param   req_remap :
 853:../firmware/n32g430_std_periph_driver/src/n32g430_dma.c **** *\*\          - DMA_REMAP_ADC
 854:../firmware/n32g430_std_periph_driver/src/n32g430_dma.c **** *\*\          - DMA_REMAP_USART1_TX
 855:../firmware/n32g430_std_periph_driver/src/n32g430_dma.c **** *\*\          - DMA_REMAP_USART1_RX
 856:../firmware/n32g430_std_periph_driver/src/n32g430_dma.c **** *\*\          - DMA_REMAP_USART2_TX
 857:../firmware/n32g430_std_periph_driver/src/n32g430_dma.c **** *\*\          - DMA_REMAP_USART2_RX
 858:../firmware/n32g430_std_periph_driver/src/n32g430_dma.c **** *\*\          - DMA_REMAP_UART3_TX
 859:../firmware/n32g430_std_periph_driver/src/n32g430_dma.c **** *\*\          - DMA_REMAP_UART3_RX
 860:../firmware/n32g430_std_periph_driver/src/n32g430_dma.c **** *\*\          - DMA_REMAP_UART4_TX
 861:../firmware/n32g430_std_periph_driver/src/n32g430_dma.c **** *\*\          - DMA_REMAP_UART4_RX
 862:../firmware/n32g430_std_periph_driver/src/n32g430_dma.c **** *\*\          - DMA_REMAP_SPI1_TX
 863:../firmware/n32g430_std_periph_driver/src/n32g430_dma.c **** *\*\          - DMA_REMAP_SPI1_RX
 864:../firmware/n32g430_std_periph_driver/src/n32g430_dma.c **** *\*\          - DMA_REMAP_SPI2_TX
 865:../firmware/n32g430_std_periph_driver/src/n32g430_dma.c **** *\*\          - DMA_REMAP_SPI2_RX
 866:../firmware/n32g430_std_periph_driver/src/n32g430_dma.c **** *\*\          - DMA_REMAP_I2C1_TX
 867:../firmware/n32g430_std_periph_driver/src/n32g430_dma.c **** *\*\          - DMA_REMAP_I2C1_RX
 868:../firmware/n32g430_std_periph_driver/src/n32g430_dma.c **** *\*\          - DMA_REMAP_I2C2_TX
 869:../firmware/n32g430_std_periph_driver/src/n32g430_dma.c **** *\*\          - DMA_REMAP_I2C2_RX
 870:../firmware/n32g430_std_periph_driver/src/n32g430_dma.c **** *\*\          - DMA_REMAP_TIM1_CH1
 871:../firmware/n32g430_std_periph_driver/src/n32g430_dma.c **** *\*\          - DMA_REMAP_TIM1_CH2
 872:../firmware/n32g430_std_periph_driver/src/n32g430_dma.c **** *\*\          - DMA_REMAP_TIM1_CH3
 873:../firmware/n32g430_std_periph_driver/src/n32g430_dma.c **** *\*\          - DMA_REMAP_TIM1_CH4
 874:../firmware/n32g430_std_periph_driver/src/n32g430_dma.c **** *\*\          - DMA_REMAP_TIM1_COM
 875:../firmware/n32g430_std_periph_driver/src/n32g430_dma.c **** *\*\          - DMA_REMAP_TIM1_UP
 876:../firmware/n32g430_std_periph_driver/src/n32g430_dma.c **** *\*\          - DMA_REMAP_TIM1_TRIG
 877:../firmware/n32g430_std_periph_driver/src/n32g430_dma.c **** *\*\          - DMA_REMAP_TIM2_CH1
 878:../firmware/n32g430_std_periph_driver/src/n32g430_dma.c **** *\*\          - DMA_REMAP_TIM2_CH2
 879:../firmware/n32g430_std_periph_driver/src/n32g430_dma.c **** *\*\          - DMA_REMAP_TIM2_CH3
 880:../firmware/n32g430_std_periph_driver/src/n32g430_dma.c **** *\*\          - DMA_REMAP_TIM2_CH4
 881:../firmware/n32g430_std_periph_driver/src/n32g430_dma.c **** *\*\          - DMA_REMAP_TIM2_UP
 882:../firmware/n32g430_std_periph_driver/src/n32g430_dma.c **** *\*\          - DMA_REMAP_TIM3_CH1
 883:../firmware/n32g430_std_periph_driver/src/n32g430_dma.c **** *\*\          - DMA_REMAP_TIM3_CH3
 884:../firmware/n32g430_std_periph_driver/src/n32g430_dma.c **** *\*\          - DMA_REMAP_TIM3_CH4
 885:../firmware/n32g430_std_periph_driver/src/n32g430_dma.c **** *\*\          - DMA_REMAP_TIM3_UP
 886:../firmware/n32g430_std_periph_driver/src/n32g430_dma.c **** *\*\          - DMA_REMAP_TIM3_TRIG
 887:../firmware/n32g430_std_periph_driver/src/n32g430_dma.c **** *\*\          - DMA_REMAP_TIM4_CH1
 888:../firmware/n32g430_std_periph_driver/src/n32g430_dma.c **** *\*\          - DMA_REMAP_TIM4_CH2
 889:../firmware/n32g430_std_periph_driver/src/n32g430_dma.c **** *\*\          - DMA_REMAP_TIM4_CH3
 890:../firmware/n32g430_std_periph_driver/src/n32g430_dma.c **** *\*\          - DMA_REMAP_TIM4_UP
 891:../firmware/n32g430_std_periph_driver/src/n32g430_dma.c **** *\*\          - DMA_REMAP_TIM5_CH1
 892:../firmware/n32g430_std_periph_driver/src/n32g430_dma.c **** *\*\          - DMA_REMAP_TIM5_CH2
 893:../firmware/n32g430_std_periph_driver/src/n32g430_dma.c **** *\*\          - DMA_REMAP_TIM5_CH3
 894:../firmware/n32g430_std_periph_driver/src/n32g430_dma.c **** *\*\          - DMA_REMAP_TIM5_CH4
ARM GAS  C:\Users\ZShuai\AppData\Local\Temp\cc5WYDZP.s 			page 43


 895:../firmware/n32g430_std_periph_driver/src/n32g430_dma.c **** *\*\          - DMA_REMAP_TIM5_UP
 896:../firmware/n32g430_std_periph_driver/src/n32g430_dma.c **** *\*\          - DMA_REMAP_TIM5_TRIG
 897:../firmware/n32g430_std_periph_driver/src/n32g430_dma.c **** *\*\          - DMA_REMAP_TIM6_UP
 898:../firmware/n32g430_std_periph_driver/src/n32g430_dma.c **** *\*\          - DMA_REMAP_TIM8_CH1
 899:../firmware/n32g430_std_periph_driver/src/n32g430_dma.c **** *\*\          - DMA_REMAP_TIM8_CH2
 900:../firmware/n32g430_std_periph_driver/src/n32g430_dma.c **** *\*\          - DMA_REMAP_TIM8_CH3
 901:../firmware/n32g430_std_periph_driver/src/n32g430_dma.c **** *\*\          - DMA_REMAP_TIM8_CH4
 902:../firmware/n32g430_std_periph_driver/src/n32g430_dma.c **** *\*\          - DMA_REMAP_TIM8_COM
 903:../firmware/n32g430_std_periph_driver/src/n32g430_dma.c **** *\*\          - DMA_REMAP_TIM8_UP
 904:../firmware/n32g430_std_periph_driver/src/n32g430_dma.c **** *\*\          - DMA_REMAP_TIM8_TRIG
 905:../firmware/n32g430_std_periph_driver/src/n32g430_dma.c **** *\*\return  none.
 906:../firmware/n32g430_std_periph_driver/src/n32g430_dma.c **** **/
 907:../firmware/n32g430_std_periph_driver/src/n32g430_dma.c **** void DMA_Channel_Request_Remap(DMA_ChannelType* DMAChx, uint32_t req_remap)
 908:../firmware/n32g430_std_periph_driver/src/n32g430_dma.c **** {
 1529              		.loc 1 908 1
 1530              		.cfi_startproc
 1531              		@ args = 0, pretend = 0, frame = 8
 1532              		@ frame_needed = 1, uses_anonymous_args = 0
 1533              		@ link register save eliminated.
 1534 0000 80B4     		push	{r7}
 1535              	.LCFI143:
 1536              		.cfi_def_cfa_offset 4
 1537              		.cfi_offset 7, -4
 1538 0002 83B0     		sub	sp, sp, #12
 1539              	.LCFI144:
 1540              		.cfi_def_cfa_offset 16
 1541 0004 00AF     		add	r7, sp, #0
 1542              	.LCFI145:
 1543              		.cfi_def_cfa_register 7
 1544 0006 7860     		str	r0, [r7, #4]
 1545 0008 3960     		str	r1, [r7]
 909:../firmware/n32g430_std_periph_driver/src/n32g430_dma.c ****     /* Set the selected DMA request remap */
 910:../firmware/n32g430_std_periph_driver/src/n32g430_dma.c ****     DMAChx->CHSEL = req_remap;
 1546              		.loc 1 910 19
 1547 000a 7B68     		ldr	r3, [r7, #4]
 1548 000c 3A68     		ldr	r2, [r7]
 1549 000e 1A61     		str	r2, [r3, #16]
 911:../firmware/n32g430_std_periph_driver/src/n32g430_dma.c **** }
 1550              		.loc 1 911 1
 1551 0010 00BF     		nop
 1552 0012 0C37     		adds	r7, r7, #12
 1553              	.LCFI146:
 1554              		.cfi_def_cfa_offset 4
 1555 0014 BD46     		mov	sp, r7
 1556              	.LCFI147:
 1557              		.cfi_def_cfa_register 13
 1558              		@ sp needed
 1559 0016 5DF8047B 		ldr	r7, [sp], #4
 1560              	.LCFI148:
 1561              		.cfi_restore 7
 1562              		.cfi_def_cfa_offset 0
 1563 001a 7047     		bx	lr
 1564              		.cfi_endproc
 1565              	.LFE154:
 1567              		.text
 1568              	.Letext0:
 1569              		.file 2 "d:\\program files (x86)\\arm gnu toolchain arm-none-eabi\\12.3 rel1\\arm-none-eabi\\inclu
ARM GAS  C:\Users\ZShuai\AppData\Local\Temp\cc5WYDZP.s 			page 44


 1570              		.file 3 "d:\\program files (x86)\\arm gnu toolchain arm-none-eabi\\12.3 rel1\\arm-none-eabi\\inclu
 1571              		.file 4 "../firmware/CMSIS/device/n32g430.h"
 1572              		.file 5 "../firmware/n32g430_std_periph_driver/inc/n32g430_dma.h"
ARM GAS  C:\Users\ZShuai\AppData\Local\Temp\cc5WYDZP.s 			page 45

