ARM GAS  C:\Users\ZShuai\AppData\Local\Temp\ccI2BPXx.s 			page 1


   1              		.cpu cortex-m4
   2              		.arch armv7e-m
   3              		.fpu fpv4-sp-d16
   4              		.eabi_attribute 27, 1
   5              		.eabi_attribute 28, 1
   6              		.eabi_attribute 20, 1
   7              		.eabi_attribute 21, 1
   8              		.eabi_attribute 23, 3
   9              		.eabi_attribute 24, 1
  10              		.eabi_attribute 25, 1
  11              		.eabi_attribute 26, 1
  12              		.eabi_attribute 30, 6
  13              		.eabi_attribute 34, 1
  14              		.eabi_attribute 18, 4
  15              		.file	"n32g430_adc.c"
  16              		.text
  17              	.Ltext0:
  18              		.cfi_sections	.debug_frame
  19              		.file 1 "../firmware/n32g430_std_periph_driver/src/n32g430_adc.c"
  20              		.global	vrefint_value
  21              		.section	.bss.vrefint_value,"aw",%nobits
  22              		.align	2
  25              	vrefint_value:
  26 0000 00000000 		.space	4
  27              		.global	Program_NVR
  28              		.section	.data.Program_NVR,"aw"
  29              		.align	2
  32              	Program_NVR:
  33 0000 D101FF1F 		.word	536805841
  34              		.global	Get_NVR
  35              		.section	.data.Get_NVR,"aw"
  36              		.align	2
  39              	Get_NVR:
  40 0000 A502FF1F 		.word	536806053
  41              		.section	.text.ADC_Vrefint_Get,"ax",%progbits
  42              		.align	1
  43              		.global	ADC_Vrefint_Get
  44              		.syntax unified
  45              		.thumb
  46              		.thumb_func
  48              	ADC_Vrefint_Get:
  49              	.LFB130:
   1:../firmware/n32g430_std_periph_driver/src/n32g430_adc.c **** /**
   2:../firmware/n32g430_std_periph_driver/src/n32g430_adc.c **** *     Copyright (c) 2022, Nations Technologies Inc.
   3:../firmware/n32g430_std_periph_driver/src/n32g430_adc.c **** * 
   4:../firmware/n32g430_std_periph_driver/src/n32g430_adc.c **** *     All rights reserved.
   5:../firmware/n32g430_std_periph_driver/src/n32g430_adc.c **** *
   6:../firmware/n32g430_std_periph_driver/src/n32g430_adc.c **** *     This software is the exclusive property of Nations Technologies Inc. (Hereinafter 
   7:../firmware/n32g430_std_periph_driver/src/n32g430_adc.c **** * referred to as NATIONS). This software, and the product of NATIONS described herein 
   8:../firmware/n32g430_std_periph_driver/src/n32g430_adc.c **** * (Hereinafter referred to as the Product) are owned by NATIONS under the laws and treaties
   9:../firmware/n32g430_std_periph_driver/src/n32g430_adc.c **** * of the People¡¯s Republic of China and other applicable jurisdictions worldwide.
  10:../firmware/n32g430_std_periph_driver/src/n32g430_adc.c **** *
  11:../firmware/n32g430_std_periph_driver/src/n32g430_adc.c **** *     NATIONS does not grant any license under its patents, copyrights, trademarks, or other 
  12:../firmware/n32g430_std_periph_driver/src/n32g430_adc.c **** * intellectual property rights. Names and brands of third party may be mentioned or referred 
  13:../firmware/n32g430_std_periph_driver/src/n32g430_adc.c **** * thereto (if any) for identification purposes only.
  14:../firmware/n32g430_std_periph_driver/src/n32g430_adc.c **** *
  15:../firmware/n32g430_std_periph_driver/src/n32g430_adc.c **** *     NATIONS reserves the right to make changes, corrections, enhancements, modifications, and 
ARM GAS  C:\Users\ZShuai\AppData\Local\Temp\ccI2BPXx.s 			page 2


  16:../firmware/n32g430_std_periph_driver/src/n32g430_adc.c **** * improvements to this software at any time without notice. Please contact NATIONS and obtain 
  17:../firmware/n32g430_std_periph_driver/src/n32g430_adc.c **** * the latest version of this software before placing orders.
  18:../firmware/n32g430_std_periph_driver/src/n32g430_adc.c **** 
  19:../firmware/n32g430_std_periph_driver/src/n32g430_adc.c **** *     Although NATIONS has attempted to provide accurate and reliable information, NATIONS assumes 
  20:../firmware/n32g430_std_periph_driver/src/n32g430_adc.c **** * no responsibility for the accuracy and reliability of this software.
  21:../firmware/n32g430_std_periph_driver/src/n32g430_adc.c **** * 
  22:../firmware/n32g430_std_periph_driver/src/n32g430_adc.c **** *     It is the responsibility of the user of this software to properly design, program, and test 
  23:../firmware/n32g430_std_periph_driver/src/n32g430_adc.c **** * the functionality and safety of any application made of this information and any resulting produc
  24:../firmware/n32g430_std_periph_driver/src/n32g430_adc.c **** * In no event shall NATIONS be liable for any direct, indirect, incidental, special,exemplary, or 
  25:../firmware/n32g430_std_periph_driver/src/n32g430_adc.c **** * consequential damages arising in any way out of the use of this software or the Product.
  26:../firmware/n32g430_std_periph_driver/src/n32g430_adc.c **** *
  27:../firmware/n32g430_std_periph_driver/src/n32g430_adc.c **** *     NATIONS Products are neither intended nor warranted for usage in systems or equipment, any
  28:../firmware/n32g430_std_periph_driver/src/n32g430_adc.c **** * malfunction or failure of which may cause loss of human life, bodily injury or severe property 
  29:../firmware/n32g430_std_periph_driver/src/n32g430_adc.c **** * damage. Such applications are deemed, ¡°Insecure Usage¡±.
  30:../firmware/n32g430_std_periph_driver/src/n32g430_adc.c **** *
  31:../firmware/n32g430_std_periph_driver/src/n32g430_adc.c **** *     All Insecure Usage shall be made at user¡¯s risk. User shall indemnify NATIONS and hold NATIO
  32:../firmware/n32g430_std_periph_driver/src/n32g430_adc.c **** * harmless from and against all claims, costs, damages, and other liabilities, arising from or rela
  33:../firmware/n32g430_std_periph_driver/src/n32g430_adc.c **** * to any customer¡¯s Insecure Usage.
  34:../firmware/n32g430_std_periph_driver/src/n32g430_adc.c **** 
  35:../firmware/n32g430_std_periph_driver/src/n32g430_adc.c **** *     Any express or implied warranty with regard to this software or the Product, including,but no
  36:../firmware/n32g430_std_periph_driver/src/n32g430_adc.c **** * limited to, the warranties of merchantability, fitness for a particular purpose and non-infringem
  37:../firmware/n32g430_std_periph_driver/src/n32g430_adc.c **** * are disclaimed to the fullest extent permitted by law.
  38:../firmware/n32g430_std_periph_driver/src/n32g430_adc.c **** 
  39:../firmware/n32g430_std_periph_driver/src/n32g430_adc.c **** *     Unless otherwise explicitly permitted by NATIONS, anyone may not duplicate, modify, transcrib
  40:../firmware/n32g430_std_periph_driver/src/n32g430_adc.c **** * or otherwise distribute this software for any purposes, in whole or in part.
  41:../firmware/n32g430_std_periph_driver/src/n32g430_adc.c **** *
  42:../firmware/n32g430_std_periph_driver/src/n32g430_adc.c **** *     NATIONS products and technologies shall not be used for or incorporated into any products or 
  43:../firmware/n32g430_std_periph_driver/src/n32g430_adc.c **** * whose manufacture, use, or sale is prohibited under any applicable domestic or foreign laws or re
  44:../firmware/n32g430_std_periph_driver/src/n32g430_adc.c **** * User shall comply with any applicable export control laws and regulations promulgated and adminis
  45:../firmware/n32g430_std_periph_driver/src/n32g430_adc.c **** * the governments of any countries asserting jurisdiction over the parties or transactions.
  46:../firmware/n32g430_std_periph_driver/src/n32g430_adc.c **** **/
  47:../firmware/n32g430_std_periph_driver/src/n32g430_adc.c **** 
  48:../firmware/n32g430_std_periph_driver/src/n32g430_adc.c **** /**
  49:../firmware/n32g430_std_periph_driver/src/n32g430_adc.c **** *\*\file n32g430_adc.c
  50:../firmware/n32g430_std_periph_driver/src/n32g430_adc.c **** *\*\author Nations
  51:../firmware/n32g430_std_periph_driver/src/n32g430_adc.c **** *\*\version v1.0.1
  52:../firmware/n32g430_std_periph_driver/src/n32g430_adc.c **** *\*\copyright Copyright (c) 2022, Nations Technologies Inc. All rights reserved.
  53:../firmware/n32g430_std_periph_driver/src/n32g430_adc.c **** **/
  54:../firmware/n32g430_std_periph_driver/src/n32g430_adc.c **** 
  55:../firmware/n32g430_std_periph_driver/src/n32g430_adc.c **** #include "n32g430_adc.h"
  56:../firmware/n32g430_std_periph_driver/src/n32g430_adc.c **** #include "n32g430_rcc.h"
  57:../firmware/n32g430_std_periph_driver/src/n32g430_adc.c **** 
  58:../firmware/n32g430_std_periph_driver/src/n32g430_adc.c **** /** ADC Private Defines**/
  59:../firmware/n32g430_std_periph_driver/src/n32g430_adc.c **** #define  ADC_LDO_CTR    (*(uint32_t*)(0x40020800 + 0x60))
  60:../firmware/n32g430_std_periph_driver/src/n32g430_adc.c **** 
  61:../firmware/n32g430_std_periph_driver/src/n32g430_adc.c **** 
  62:../firmware/n32g430_std_periph_driver/src/n32g430_adc.c **** /** API interface function definition**/
  63:../firmware/n32g430_std_periph_driver/src/n32g430_adc.c **** uint32_t vrefint_value; 
  64:../firmware/n32g430_std_periph_driver/src/n32g430_adc.c **** 
  65:../firmware/n32g430_std_periph_driver/src/n32g430_adc.c **** CMD_RETURN_CR (*Program_NVR)(uint32_t addr, uint32_t  data) = (CMD_RETURN_CR (*)(uint32_t ,uint32_t
  66:../firmware/n32g430_std_periph_driver/src/n32g430_adc.c **** CMD_RETURN_CR     (*Get_NVR)(uint32_t addr, uint32_t* data) = (CMD_RETURN_CR (*)(uint32_t ,uint32_t
  67:../firmware/n32g430_std_periph_driver/src/n32g430_adc.c **** 
  68:../firmware/n32g430_std_periph_driver/src/n32g430_adc.c **** /**
  69:../firmware/n32g430_std_periph_driver/src/n32g430_adc.c **** *\*\name    ADC_Vrefint_Get.
  70:../firmware/n32g430_std_periph_driver/src/n32g430_adc.c **** *\*\fun     Return the Vrefint value of NVR.
  71:../firmware/n32g430_std_periph_driver/src/n32g430_adc.c **** *\*\return  vrefint_value
  72:../firmware/n32g430_std_periph_driver/src/n32g430_adc.c **** **/
ARM GAS  C:\Users\ZShuai\AppData\Local\Temp\ccI2BPXx.s 			page 3


  73:../firmware/n32g430_std_periph_driver/src/n32g430_adc.c **** uint32_t ADC_Vrefint_Get(void)
  74:../firmware/n32g430_std_periph_driver/src/n32g430_adc.c **** {
  50              		.loc 1 74 1
  51              		.cfi_startproc
  52              		@ args = 0, pretend = 0, frame = 0
  53              		@ frame_needed = 1, uses_anonymous_args = 0
  54 0000 80B5     		push	{r7, lr}
  55              	.LCFI0:
  56              		.cfi_def_cfa_offset 8
  57              		.cfi_offset 7, -8
  58              		.cfi_offset 14, -4
  59 0002 00AF     		add	r7, sp, #0
  60              	.LCFI1:
  61              		.cfi_def_cfa_register 7
  75:../firmware/n32g430_std_periph_driver/src/n32g430_adc.c ****     Get_NVR(0x1FFFF268, &vrefint_value);
  62              		.loc 1 75 5
  63 0004 044B     		ldr	r3, .L3
  64 0006 1B68     		ldr	r3, [r3]
  65 0008 0449     		ldr	r1, .L3+4
  66 000a 0548     		ldr	r0, .L3+8
  67 000c 9847     		blx	r3
  68              	.LVL0:
  76:../firmware/n32g430_std_periph_driver/src/n32g430_adc.c ****     return vrefint_value;
  69              		.loc 1 76 12
  70 000e 034B     		ldr	r3, .L3+4
  71 0010 1B68     		ldr	r3, [r3]
  77:../firmware/n32g430_std_periph_driver/src/n32g430_adc.c **** }
  72              		.loc 1 77 1
  73 0012 1846     		mov	r0, r3
  74 0014 80BD     		pop	{r7, pc}
  75              	.L4:
  76 0016 00BF     		.align	2
  77              	.L3:
  78 0018 00000000 		.word	Get_NVR
  79 001c 00000000 		.word	vrefint_value
  80 0020 68F2FF1F 		.word	536867432
  81              		.cfi_endproc
  82              	.LFE130:
  84              		.section	.text.ADC_Reset,"ax",%progbits
  85              		.align	1
  86              		.global	ADC_Reset
  87              		.syntax unified
  88              		.thumb
  89              		.thumb_func
  91              	ADC_Reset:
  92              	.LFB131:
  78:../firmware/n32g430_std_periph_driver/src/n32g430_adc.c **** 
  79:../firmware/n32g430_std_periph_driver/src/n32g430_adc.c **** /** ADC Driving Functions Declaration**/
  80:../firmware/n32g430_std_periph_driver/src/n32g430_adc.c **** 
  81:../firmware/n32g430_std_periph_driver/src/n32g430_adc.c **** /**
  82:../firmware/n32g430_std_periph_driver/src/n32g430_adc.c **** *\*\name    ADC_Reset.
  83:../firmware/n32g430_std_periph_driver/src/n32g430_adc.c **** *\*\fun     Reset the ADC registers.
  84:../firmware/n32g430_std_periph_driver/src/n32g430_adc.c **** *\*\return  none
  85:../firmware/n32g430_std_periph_driver/src/n32g430_adc.c **** **/
  86:../firmware/n32g430_std_periph_driver/src/n32g430_adc.c **** void ADC_Reset(void)
  87:../firmware/n32g430_std_periph_driver/src/n32g430_adc.c **** {
  93              		.loc 1 87 1
ARM GAS  C:\Users\ZShuai\AppData\Local\Temp\ccI2BPXx.s 			page 4


  94              		.cfi_startproc
  95              		@ args = 0, pretend = 0, frame = 0
  96              		@ frame_needed = 1, uses_anonymous_args = 0
  97 0000 80B5     		push	{r7, lr}
  98              	.LCFI2:
  99              		.cfi_def_cfa_offset 8
 100              		.cfi_offset 7, -8
 101              		.cfi_offset 14, -4
 102 0002 00AF     		add	r7, sp, #0
 103              	.LCFI3:
 104              		.cfi_def_cfa_register 7
  88:../firmware/n32g430_std_periph_driver/src/n32g430_adc.c ****     RCC_AHB_Peripheral_Reset(RCC_AHB_PERIPH_ADC);
 105              		.loc 1 88 5
 106 0004 4FF48050 		mov	r0, #4096
 107 0008 FFF7FEFF 		bl	RCC_AHB_Peripheral_Reset
  89:../firmware/n32g430_std_periph_driver/src/n32g430_adc.c **** }
 108              		.loc 1 89 1
 109 000c 00BF     		nop
 110 000e 80BD     		pop	{r7, pc}
 111              		.cfi_endproc
 112              	.LFE131:
 114              		.section	.text.ADC_Multichannels_Enable,"ax",%progbits
 115              		.align	1
 116              		.global	ADC_Multichannels_Enable
 117              		.syntax unified
 118              		.thumb
 119              		.thumb_func
 121              	ADC_Multichannels_Enable:
 122              	.LFB132:
  90:../firmware/n32g430_std_periph_driver/src/n32g430_adc.c **** 
  91:../firmware/n32g430_std_periph_driver/src/n32g430_adc.c **** /**
  92:../firmware/n32g430_std_periph_driver/src/n32g430_adc.c **** *\*\name    ADC_Multichannels_Enable.
  93:../firmware/n32g430_std_periph_driver/src/n32g430_adc.c **** *\*\fun     Configures the ADC according conversion is performed in
  94:../firmware/n32g430_std_periph_driver/src/n32g430_adc.c **** *\*\        Scan (multichannels) mode.
  95:../firmware/n32g430_std_periph_driver/src/n32g430_adc.c **** *\*\return  none
  96:../firmware/n32g430_std_periph_driver/src/n32g430_adc.c **** **/
  97:../firmware/n32g430_std_periph_driver/src/n32g430_adc.c **** void ADC_Multichannels_Enable(void)
  98:../firmware/n32g430_std_periph_driver/src/n32g430_adc.c **** {
 123              		.loc 1 98 1
 124              		.cfi_startproc
 125              		@ args = 0, pretend = 0, frame = 0
 126              		@ frame_needed = 1, uses_anonymous_args = 0
 127              		@ link register save eliminated.
 128 0000 80B4     		push	{r7}
 129              	.LCFI4:
 130              		.cfi_def_cfa_offset 4
 131              		.cfi_offset 7, -4
 132 0002 00AF     		add	r7, sp, #0
 133              	.LCFI5:
 134              		.cfi_def_cfa_register 7
  99:../firmware/n32g430_std_periph_driver/src/n32g430_adc.c ****     /* Set ADC_CTRL1 SCANMD bit */
 100:../firmware/n32g430_std_periph_driver/src/n32g430_adc.c ****     ADC->CTRL1 |= ADC_MULTCH_ENABLE;
 135              		.loc 1 100 8
 136 0004 054B     		ldr	r3, .L7
 137 0006 5B68     		ldr	r3, [r3, #4]
 138 0008 044A     		ldr	r2, .L7
 139              		.loc 1 100 16
ARM GAS  C:\Users\ZShuai\AppData\Local\Temp\ccI2BPXx.s 			page 5


 140 000a 43F48073 		orr	r3, r3, #256
 141 000e 5360     		str	r3, [r2, #4]
 101:../firmware/n32g430_std_periph_driver/src/n32g430_adc.c **** }
 142              		.loc 1 101 1
 143 0010 00BF     		nop
 144 0012 BD46     		mov	sp, r7
 145              	.LCFI6:
 146              		.cfi_def_cfa_register 13
 147              		@ sp needed
 148 0014 5DF8047B 		ldr	r7, [sp], #4
 149              	.LCFI7:
 150              		.cfi_restore 7
 151              		.cfi_def_cfa_offset 0
 152 0018 7047     		bx	lr
 153              	.L8:
 154 001a 00BF     		.align	2
 155              	.L7:
 156 001c 00080240 		.word	1073874944
 157              		.cfi_endproc
 158              	.LFE132:
 160              		.section	.text.ADC_Multichannels_Disable,"ax",%progbits
 161              		.align	1
 162              		.global	ADC_Multichannels_Disable
 163              		.syntax unified
 164              		.thumb
 165              		.thumb_func
 167              	ADC_Multichannels_Disable:
 168              	.LFB133:
 102:../firmware/n32g430_std_periph_driver/src/n32g430_adc.c **** 
 103:../firmware/n32g430_std_periph_driver/src/n32g430_adc.c **** /**
 104:../firmware/n32g430_std_periph_driver/src/n32g430_adc.c **** *\*\name    ADC_Multichannels_Disable.
 105:../firmware/n32g430_std_periph_driver/src/n32g430_adc.c **** *\*\fun     Configures the ADC according conversion is performed in
 106:../firmware/n32g430_std_periph_driver/src/n32g430_adc.c **** *\*\        Single (one channel) mode.
 107:../firmware/n32g430_std_periph_driver/src/n32g430_adc.c **** *\*\return  none
 108:../firmware/n32g430_std_periph_driver/src/n32g430_adc.c **** **/
 109:../firmware/n32g430_std_periph_driver/src/n32g430_adc.c **** void ADC_Multichannels_Disable(void)
 110:../firmware/n32g430_std_periph_driver/src/n32g430_adc.c **** {
 169              		.loc 1 110 1
 170              		.cfi_startproc
 171              		@ args = 0, pretend = 0, frame = 0
 172              		@ frame_needed = 1, uses_anonymous_args = 0
 173              		@ link register save eliminated.
 174 0000 80B4     		push	{r7}
 175              	.LCFI8:
 176              		.cfi_def_cfa_offset 4
 177              		.cfi_offset 7, -4
 178 0002 00AF     		add	r7, sp, #0
 179              	.LCFI9:
 180              		.cfi_def_cfa_register 7
 111:../firmware/n32g430_std_periph_driver/src/n32g430_adc.c ****     /* Clear ADC_CTRL1 SCANMD bit */
 112:../firmware/n32g430_std_periph_driver/src/n32g430_adc.c ****     ADC->CTRL1 &= ADC_MULTCH_DISABLE;
 181              		.loc 1 112 8
 182 0004 054B     		ldr	r3, .L10
 183 0006 5B68     		ldr	r3, [r3, #4]
 184 0008 044A     		ldr	r2, .L10
 185              		.loc 1 112 16
 186 000a 23F48073 		bic	r3, r3, #256
ARM GAS  C:\Users\ZShuai\AppData\Local\Temp\ccI2BPXx.s 			page 6


 187 000e 5360     		str	r3, [r2, #4]
 113:../firmware/n32g430_std_periph_driver/src/n32g430_adc.c **** }
 188              		.loc 1 113 1
 189 0010 00BF     		nop
 190 0012 BD46     		mov	sp, r7
 191              	.LCFI10:
 192              		.cfi_def_cfa_register 13
 193              		@ sp needed
 194 0014 5DF8047B 		ldr	r7, [sp], #4
 195              	.LCFI11:
 196              		.cfi_restore 7
 197              		.cfi_def_cfa_offset 0
 198 0018 7047     		bx	lr
 199              	.L11:
 200 001a 00BF     		.align	2
 201              	.L10:
 202 001c 00080240 		.word	1073874944
 203              		.cfi_endproc
 204              	.LFE133:
 206              		.section	.text.ADC_Continue_Conversion_Enable,"ax",%progbits
 207              		.align	1
 208              		.global	ADC_Continue_Conversion_Enable
 209              		.syntax unified
 210              		.thumb
 211              		.thumb_func
 213              	ADC_Continue_Conversion_Enable:
 214              	.LFB134:
 114:../firmware/n32g430_std_periph_driver/src/n32g430_adc.c **** 
 115:../firmware/n32g430_std_periph_driver/src/n32g430_adc.c **** /**
 116:../firmware/n32g430_std_periph_driver/src/n32g430_adc.c **** *\*\name    ADC_Continue_Conversion_Enable.
 117:../firmware/n32g430_std_periph_driver/src/n32g430_adc.c **** *\*\fun     Configures the ADC according conversion is performed in
 118:../firmware/n32g430_std_periph_driver/src/n32g430_adc.c **** *\*\        Continuous mode.
 119:../firmware/n32g430_std_periph_driver/src/n32g430_adc.c **** *\*\return  none
 120:../firmware/n32g430_std_periph_driver/src/n32g430_adc.c **** **/
 121:../firmware/n32g430_std_periph_driver/src/n32g430_adc.c **** void ADC_Continue_Conversion_Enable(void)
 122:../firmware/n32g430_std_periph_driver/src/n32g430_adc.c **** {
 215              		.loc 1 122 1
 216              		.cfi_startproc
 217              		@ args = 0, pretend = 0, frame = 0
 218              		@ frame_needed = 1, uses_anonymous_args = 0
 219              		@ link register save eliminated.
 220 0000 80B4     		push	{r7}
 221              	.LCFI12:
 222              		.cfi_def_cfa_offset 4
 223              		.cfi_offset 7, -4
 224 0002 00AF     		add	r7, sp, #0
 225              	.LCFI13:
 226              		.cfi_def_cfa_register 7
 123:../firmware/n32g430_std_periph_driver/src/n32g430_adc.c ****     /* Set ADC_CTRL2 CTU bit */
 124:../firmware/n32g430_std_periph_driver/src/n32g430_adc.c ****     ADC->CTRL2 |= ADC_CTU_ENABLE;
 227              		.loc 1 124 8
 228 0004 054B     		ldr	r3, .L13
 229 0006 9B68     		ldr	r3, [r3, #8]
 230 0008 044A     		ldr	r2, .L13
 231              		.loc 1 124 16
 232 000a 43F00203 		orr	r3, r3, #2
 233 000e 9360     		str	r3, [r2, #8]
ARM GAS  C:\Users\ZShuai\AppData\Local\Temp\ccI2BPXx.s 			page 7


 125:../firmware/n32g430_std_periph_driver/src/n32g430_adc.c **** }
 234              		.loc 1 125 1
 235 0010 00BF     		nop
 236 0012 BD46     		mov	sp, r7
 237              	.LCFI14:
 238              		.cfi_def_cfa_register 13
 239              		@ sp needed
 240 0014 5DF8047B 		ldr	r7, [sp], #4
 241              	.LCFI15:
 242              		.cfi_restore 7
 243              		.cfi_def_cfa_offset 0
 244 0018 7047     		bx	lr
 245              	.L14:
 246 001a 00BF     		.align	2
 247              	.L13:
 248 001c 00080240 		.word	1073874944
 249              		.cfi_endproc
 250              	.LFE134:
 252              		.section	.text.ADC_Continue_Conversion_Disable,"ax",%progbits
 253              		.align	1
 254              		.global	ADC_Continue_Conversion_Disable
 255              		.syntax unified
 256              		.thumb
 257              		.thumb_func
 259              	ADC_Continue_Conversion_Disable:
 260              	.LFB135:
 126:../firmware/n32g430_std_periph_driver/src/n32g430_adc.c **** 
 127:../firmware/n32g430_std_periph_driver/src/n32g430_adc.c **** /**
 128:../firmware/n32g430_std_periph_driver/src/n32g430_adc.c **** *\*\name    ADC_Continue_Conversion_Disable.
 129:../firmware/n32g430_std_periph_driver/src/n32g430_adc.c **** *\*\fun     Configures the ADC according conversion is performed in
 130:../firmware/n32g430_std_periph_driver/src/n32g430_adc.c **** *\*\        Single mode.
 131:../firmware/n32g430_std_periph_driver/src/n32g430_adc.c **** *\*\return  none
 132:../firmware/n32g430_std_periph_driver/src/n32g430_adc.c **** **/
 133:../firmware/n32g430_std_periph_driver/src/n32g430_adc.c **** void ADC_Continue_Conversion_Disable(void)
 134:../firmware/n32g430_std_periph_driver/src/n32g430_adc.c **** {
 261              		.loc 1 134 1
 262              		.cfi_startproc
 263              		@ args = 0, pretend = 0, frame = 0
 264              		@ frame_needed = 1, uses_anonymous_args = 0
 265              		@ link register save eliminated.
 266 0000 80B4     		push	{r7}
 267              	.LCFI16:
 268              		.cfi_def_cfa_offset 4
 269              		.cfi_offset 7, -4
 270 0002 00AF     		add	r7, sp, #0
 271              	.LCFI17:
 272              		.cfi_def_cfa_register 7
 135:../firmware/n32g430_std_periph_driver/src/n32g430_adc.c ****     /* Clear ADC_CTRL2 CTU bit */
 136:../firmware/n32g430_std_periph_driver/src/n32g430_adc.c ****     ADC->CTRL2 &= ADC_CTU_DISABLE;
 273              		.loc 1 136 8
 274 0004 054B     		ldr	r3, .L16
 275 0006 9B68     		ldr	r3, [r3, #8]
 276 0008 044A     		ldr	r2, .L16
 277              		.loc 1 136 16
 278 000a 23F00203 		bic	r3, r3, #2
 279 000e 9360     		str	r3, [r2, #8]
 137:../firmware/n32g430_std_periph_driver/src/n32g430_adc.c **** }
ARM GAS  C:\Users\ZShuai\AppData\Local\Temp\ccI2BPXx.s 			page 8


 280              		.loc 1 137 1
 281 0010 00BF     		nop
 282 0012 BD46     		mov	sp, r7
 283              	.LCFI18:
 284              		.cfi_def_cfa_register 13
 285              		@ sp needed
 286 0014 5DF8047B 		ldr	r7, [sp], #4
 287              	.LCFI19:
 288              		.cfi_restore 7
 289              		.cfi_def_cfa_offset 0
 290 0018 7047     		bx	lr
 291              	.L17:
 292 001a 00BF     		.align	2
 293              	.L16:
 294 001c 00080240 		.word	1073874944
 295              		.cfi_endproc
 296              	.LFE135:
 298              		.section	.text.ADC_Regular_Group_External_Trigger_Source_Config,"ax",%progbits
 299              		.align	1
 300              		.global	ADC_Regular_Group_External_Trigger_Source_Config
 301              		.syntax unified
 302              		.thumb
 303              		.thumb_func
 305              	ADC_Regular_Group_External_Trigger_Source_Config:
 306              	.LFB136:
 138:../firmware/n32g430_std_periph_driver/src/n32g430_adc.c **** 
 139:../firmware/n32g430_std_periph_driver/src/n32g430_adc.c **** /**
 140:../firmware/n32g430_std_periph_driver/src/n32g430_adc.c **** *\*\name    ADC_Regular_Group_External_Trigger_Source_Config.
 141:../firmware/n32g430_std_periph_driver/src/n32g430_adc.c **** *\*\fun     Configures the ADC external trigger source for regular group channels.
 142:../firmware/n32g430_std_periph_driver/src/n32g430_adc.c **** *\*\param   external_trigger_sources :
 143:../firmware/n32g430_std_periph_driver/src/n32g430_adc.c **** *\*\          - ADC_EXT_TRIGCONV_REGULAR_T1_CC1                
 144:../firmware/n32g430_std_periph_driver/src/n32g430_adc.c **** *\*\          - ADC_EXT_TRIGCONV_REGULAR_T1_CC2                
 145:../firmware/n32g430_std_periph_driver/src/n32g430_adc.c **** *\*\          - ADC_EXT_TRIGCONV_REGULAR_T1_CC3                
 146:../firmware/n32g430_std_periph_driver/src/n32g430_adc.c **** *\*\          - ADC_EXT_TRIGCONV_REGULAR_T2_CC2                
 147:../firmware/n32g430_std_periph_driver/src/n32g430_adc.c **** *\*\          - ADC_EXT_TRIGCONV_REGULAR_T3_TRGO               
 148:../firmware/n32g430_std_periph_driver/src/n32g430_adc.c **** *\*\          - ADC_EXT_TRIGCONV_REGULAR_T4_CC4                
 149:../firmware/n32g430_std_periph_driver/src/n32g430_adc.c **** *\*\          - ADC_EXT_TRIGCONV_REGULAR_EXT_INT11_TIM8_TRGO   
 150:../firmware/n32g430_std_periph_driver/src/n32g430_adc.c **** *\*\          - ADC_EXT_TRIGCONV_REGULAR_SWSTRRCH              
 151:../firmware/n32g430_std_periph_driver/src/n32g430_adc.c **** *\*\return  none
 152:../firmware/n32g430_std_periph_driver/src/n32g430_adc.c **** **/
 153:../firmware/n32g430_std_periph_driver/src/n32g430_adc.c **** void ADC_Regular_Group_External_Trigger_Source_Config(uint32_t external_trigger_sources)
 154:../firmware/n32g430_std_periph_driver/src/n32g430_adc.c **** {
 307              		.loc 1 154 1
 308              		.cfi_startproc
 309              		@ args = 0, pretend = 0, frame = 8
 310              		@ frame_needed = 1, uses_anonymous_args = 0
 311              		@ link register save eliminated.
 312 0000 80B4     		push	{r7}
 313              	.LCFI20:
 314              		.cfi_def_cfa_offset 4
 315              		.cfi_offset 7, -4
 316 0002 83B0     		sub	sp, sp, #12
 317              	.LCFI21:
 318              		.cfi_def_cfa_offset 16
 319 0004 00AF     		add	r7, sp, #0
 320              	.LCFI22:
 321              		.cfi_def_cfa_register 7
ARM GAS  C:\Users\ZShuai\AppData\Local\Temp\ccI2BPXx.s 			page 9


 322 0006 7860     		str	r0, [r7, #4]
 155:../firmware/n32g430_std_periph_driver/src/n32g430_adc.c ****     /* Clear ADC_CTRL2 EXTRSEL[2:0] bit */
 156:../firmware/n32g430_std_periph_driver/src/n32g430_adc.c ****     ADC->CTRL2 &= ADC_EXT_TRIGCONV_REGULAR_MASK;
 323              		.loc 1 156 8
 324 0008 084B     		ldr	r3, .L19
 325 000a 9B68     		ldr	r3, [r3, #8]
 326 000c 074A     		ldr	r2, .L19
 327              		.loc 1 156 16
 328 000e 23F46023 		bic	r3, r3, #917504
 329 0012 9360     		str	r3, [r2, #8]
 157:../firmware/n32g430_std_periph_driver/src/n32g430_adc.c ****     /* Set ADC_CTRL2 EXTJSEL[2:0] bit */
 158:../firmware/n32g430_std_periph_driver/src/n32g430_adc.c ****     ADC->CTRL2 |= external_trigger_sources;
 330              		.loc 1 158 8
 331 0014 054B     		ldr	r3, .L19
 332 0016 9A68     		ldr	r2, [r3, #8]
 333 0018 0449     		ldr	r1, .L19
 334              		.loc 1 158 16
 335 001a 7B68     		ldr	r3, [r7, #4]
 336 001c 1343     		orrs	r3, r3, r2
 337 001e 8B60     		str	r3, [r1, #8]
 159:../firmware/n32g430_std_periph_driver/src/n32g430_adc.c **** }
 338              		.loc 1 159 1
 339 0020 00BF     		nop
 340 0022 0C37     		adds	r7, r7, #12
 341              	.LCFI23:
 342              		.cfi_def_cfa_offset 4
 343 0024 BD46     		mov	sp, r7
 344              	.LCFI24:
 345              		.cfi_def_cfa_register 13
 346              		@ sp needed
 347 0026 5DF8047B 		ldr	r7, [sp], #4
 348              	.LCFI25:
 349              		.cfi_restore 7
 350              		.cfi_def_cfa_offset 0
 351 002a 7047     		bx	lr
 352              	.L20:
 353              		.align	2
 354              	.L19:
 355 002c 00080240 		.word	1073874944
 356              		.cfi_endproc
 357              	.LFE136:
 359              		.section	.text.ADC_Data_Alignment_Config,"ax",%progbits
 360              		.align	1
 361              		.global	ADC_Data_Alignment_Config
 362              		.syntax unified
 363              		.thumb
 364              		.thumb_func
 366              	ADC_Data_Alignment_Config:
 367              	.LFB137:
 160:../firmware/n32g430_std_periph_driver/src/n32g430_adc.c **** 
 161:../firmware/n32g430_std_periph_driver/src/n32g430_adc.c **** /**
 162:../firmware/n32g430_std_periph_driver/src/n32g430_adc.c **** *\*\name    ADC_Data_Alignment_Config.
 163:../firmware/n32g430_std_periph_driver/src/n32g430_adc.c **** *\*\fun     Configures the ADC data alignment is left or right.
 164:../firmware/n32g430_std_periph_driver/src/n32g430_adc.c **** *\*\param   data_alignment :
 165:../firmware/n32g430_std_periph_driver/src/n32g430_adc.c **** *\*\          - ADC_DAT_ALIGN_R
 166:../firmware/n32g430_std_periph_driver/src/n32g430_adc.c **** *\*\          - ADC_DAT_ALIGN_L
 167:../firmware/n32g430_std_periph_driver/src/n32g430_adc.c **** *\*\return  none
ARM GAS  C:\Users\ZShuai\AppData\Local\Temp\ccI2BPXx.s 			page 10


 168:../firmware/n32g430_std_periph_driver/src/n32g430_adc.c **** **/
 169:../firmware/n32g430_std_periph_driver/src/n32g430_adc.c **** void ADC_Data_Alignment_Config(uint32_t data_alignment)
 170:../firmware/n32g430_std_periph_driver/src/n32g430_adc.c **** {
 368              		.loc 1 170 1
 369              		.cfi_startproc
 370              		@ args = 0, pretend = 0, frame = 8
 371              		@ frame_needed = 1, uses_anonymous_args = 0
 372              		@ link register save eliminated.
 373 0000 80B4     		push	{r7}
 374              	.LCFI26:
 375              		.cfi_def_cfa_offset 4
 376              		.cfi_offset 7, -4
 377 0002 83B0     		sub	sp, sp, #12
 378              	.LCFI27:
 379              		.cfi_def_cfa_offset 16
 380 0004 00AF     		add	r7, sp, #0
 381              	.LCFI28:
 382              		.cfi_def_cfa_register 7
 383 0006 7860     		str	r0, [r7, #4]
 171:../firmware/n32g430_std_periph_driver/src/n32g430_adc.c ****     /* Clear ADC_CTRL2 ALIG bit */
 172:../firmware/n32g430_std_periph_driver/src/n32g430_adc.c ****     ADC->CTRL2 &= ADC_ALIG_MASK;
 384              		.loc 1 172 8
 385 0008 084B     		ldr	r3, .L22
 386 000a 9B68     		ldr	r3, [r3, #8]
 387 000c 074A     		ldr	r2, .L22
 388              		.loc 1 172 16
 389 000e 23F40063 		bic	r3, r3, #2048
 390 0012 9360     		str	r3, [r2, #8]
 173:../firmware/n32g430_std_periph_driver/src/n32g430_adc.c ****     /* Set ADC_CTRL2 ALIG bit */
 174:../firmware/n32g430_std_periph_driver/src/n32g430_adc.c ****     ADC->CTRL2 |= data_alignment;
 391              		.loc 1 174 8
 392 0014 054B     		ldr	r3, .L22
 393 0016 9A68     		ldr	r2, [r3, #8]
 394 0018 0449     		ldr	r1, .L22
 395              		.loc 1 174 16
 396 001a 7B68     		ldr	r3, [r7, #4]
 397 001c 1343     		orrs	r3, r3, r2
 398 001e 8B60     		str	r3, [r1, #8]
 175:../firmware/n32g430_std_periph_driver/src/n32g430_adc.c **** }
 399              		.loc 1 175 1
 400 0020 00BF     		nop
 401 0022 0C37     		adds	r7, r7, #12
 402              	.LCFI29:
 403              		.cfi_def_cfa_offset 4
 404 0024 BD46     		mov	sp, r7
 405              	.LCFI30:
 406              		.cfi_def_cfa_register 13
 407              		@ sp needed
 408 0026 5DF8047B 		ldr	r7, [sp], #4
 409              	.LCFI31:
 410              		.cfi_restore 7
 411              		.cfi_def_cfa_offset 0
 412 002a 7047     		bx	lr
 413              	.L23:
 414              		.align	2
 415              	.L22:
 416 002c 00080240 		.word	1073874944
ARM GAS  C:\Users\ZShuai\AppData\Local\Temp\ccI2BPXx.s 			page 11


 417              		.cfi_endproc
 418              	.LFE137:
 420              		.section	.text.ADC_Regular_Channels_Number_Config,"ax",%progbits
 421              		.align	1
 422              		.global	ADC_Regular_Channels_Number_Config
 423              		.syntax unified
 424              		.thumb
 425              		.thumb_func
 427              	ADC_Regular_Channels_Number_Config:
 428              	.LFB138:
 176:../firmware/n32g430_std_periph_driver/src/n32g430_adc.c **** 
 177:../firmware/n32g430_std_periph_driver/src/n32g430_adc.c **** /**
 178:../firmware/n32g430_std_periph_driver/src/n32g430_adc.c **** *\*\name    ADC_Regular_Channels_Number_Config.
 179:../firmware/n32g430_std_periph_driver/src/n32g430_adc.c **** *\*\fun     Configures the ADC total number of conversion channels.
 180:../firmware/n32g430_std_periph_driver/src/n32g430_adc.c **** *\*\param   channels_number :
 181:../firmware/n32g430_std_periph_driver/src/n32g430_adc.c **** *\*\          - ADC_REGULAR_LEN_1
 182:../firmware/n32g430_std_periph_driver/src/n32g430_adc.c **** *\*\          - ADC_REGULAR_LEN_2
 183:../firmware/n32g430_std_periph_driver/src/n32g430_adc.c **** *\*\          - ADC_REGULAR_LEN_3
 184:../firmware/n32g430_std_periph_driver/src/n32g430_adc.c **** *\*\          - ADC_REGULAR_LEN_4
 185:../firmware/n32g430_std_periph_driver/src/n32g430_adc.c **** *\*\          - ADC_REGULAR_LEN_5
 186:../firmware/n32g430_std_periph_driver/src/n32g430_adc.c **** *\*\          - ADC_REGULAR_LEN_6
 187:../firmware/n32g430_std_periph_driver/src/n32g430_adc.c **** *\*\          - ADC_REGULAR_LEN_7
 188:../firmware/n32g430_std_periph_driver/src/n32g430_adc.c **** *\*\          - ADC_REGULAR_LEN_8
 189:../firmware/n32g430_std_periph_driver/src/n32g430_adc.c **** *\*\          - ADC_REGULAR_LEN_9
 190:../firmware/n32g430_std_periph_driver/src/n32g430_adc.c **** *\*\          - ADC_REGULAR_LEN_10
 191:../firmware/n32g430_std_periph_driver/src/n32g430_adc.c **** *\*\          - ADC_REGULAR_LEN_11
 192:../firmware/n32g430_std_periph_driver/src/n32g430_adc.c **** *\*\          - ADC_REGULAR_LEN_12
 193:../firmware/n32g430_std_periph_driver/src/n32g430_adc.c **** *\*\          - ADC_REGULAR_LEN_13
 194:../firmware/n32g430_std_periph_driver/src/n32g430_adc.c **** *\*\          - ADC_REGULAR_LEN_14
 195:../firmware/n32g430_std_periph_driver/src/n32g430_adc.c **** *\*\          - ADC_REGULAR_LEN_15
 196:../firmware/n32g430_std_periph_driver/src/n32g430_adc.c **** *\*\          - ADC_REGULAR_LEN_16
 197:../firmware/n32g430_std_periph_driver/src/n32g430_adc.c **** *\*\return  none
 198:../firmware/n32g430_std_periph_driver/src/n32g430_adc.c **** **/
 199:../firmware/n32g430_std_periph_driver/src/n32g430_adc.c **** void ADC_Regular_Channels_Number_Config(uint32_t channels_number)
 200:../firmware/n32g430_std_periph_driver/src/n32g430_adc.c **** {
 429              		.loc 1 200 1
 430              		.cfi_startproc
 431              		@ args = 0, pretend = 0, frame = 8
 432              		@ frame_needed = 1, uses_anonymous_args = 0
 433              		@ link register save eliminated.
 434 0000 80B4     		push	{r7}
 435              	.LCFI32:
 436              		.cfi_def_cfa_offset 4
 437              		.cfi_offset 7, -4
 438 0002 83B0     		sub	sp, sp, #12
 439              	.LCFI33:
 440              		.cfi_def_cfa_offset 16
 441 0004 00AF     		add	r7, sp, #0
 442              	.LCFI34:
 443              		.cfi_def_cfa_register 7
 444 0006 7860     		str	r0, [r7, #4]
 201:../firmware/n32g430_std_periph_driver/src/n32g430_adc.c ****     /* Clear ADC_RSEQ1 LEN[3:0] bit */
 202:../firmware/n32g430_std_periph_driver/src/n32g430_adc.c ****     ADC->RSEQ1 &= ADC_REGULAR_LEN_MSAK;
 445              		.loc 1 202 8
 446 0008 084B     		ldr	r3, .L25
 447 000a DB6A     		ldr	r3, [r3, #44]
 448 000c 074A     		ldr	r2, .L25
ARM GAS  C:\Users\ZShuai\AppData\Local\Temp\ccI2BPXx.s 			page 12


 449              		.loc 1 202 16
 450 000e 23F47003 		bic	r3, r3, #15728640
 451 0012 D362     		str	r3, [r2, #44]
 203:../firmware/n32g430_std_periph_driver/src/n32g430_adc.c ****     /* Set ADC_RSEQ1 LEN[3:0] bit */
 204:../firmware/n32g430_std_periph_driver/src/n32g430_adc.c ****     ADC->RSEQ1 |= channels_number;
 452              		.loc 1 204 8
 453 0014 054B     		ldr	r3, .L25
 454 0016 DA6A     		ldr	r2, [r3, #44]
 455 0018 0449     		ldr	r1, .L25
 456              		.loc 1 204 16
 457 001a 7B68     		ldr	r3, [r7, #4]
 458 001c 1343     		orrs	r3, r3, r2
 459 001e CB62     		str	r3, [r1, #44]
 205:../firmware/n32g430_std_periph_driver/src/n32g430_adc.c **** }
 460              		.loc 1 205 1
 461 0020 00BF     		nop
 462 0022 0C37     		adds	r7, r7, #12
 463              	.LCFI35:
 464              		.cfi_def_cfa_offset 4
 465 0024 BD46     		mov	sp, r7
 466              	.LCFI36:
 467              		.cfi_def_cfa_register 13
 468              		@ sp needed
 469 0026 5DF8047B 		ldr	r7, [sp], #4
 470              	.LCFI37:
 471              		.cfi_restore 7
 472              		.cfi_def_cfa_offset 0
 473 002a 7047     		bx	lr
 474              	.L26:
 475              		.align	2
 476              	.L25:
 477 002c 00080240 		.word	1073874944
 478              		.cfi_endproc
 479              	.LFE138:
 481              		.section	.text.ADC_Initializes,"ax",%progbits
 482              		.align	1
 483              		.global	ADC_Initializes
 484              		.syntax unified
 485              		.thumb
 486              		.thumb_func
 488              	ADC_Initializes:
 489              	.LFB139:
 206:../firmware/n32g430_std_periph_driver/src/n32g430_adc.c **** 
 207:../firmware/n32g430_std_periph_driver/src/n32g430_adc.c **** /**
 208:../firmware/n32g430_std_periph_driver/src/n32g430_adc.c **** *\*\name    ADC_Initializes.
 209:../firmware/n32g430_std_periph_driver/src/n32g430_adc.c **** *\*\fun     Initializes the ADC according to ADC_initstruct.
 210:../firmware/n32g430_std_periph_driver/src/n32g430_adc.c **** *\*\param   ADC_initstruct :
 211:../firmware/n32g430_std_periph_driver/src/n32g430_adc.c **** *\*\          - MultiChEn
 212:../firmware/n32g430_std_periph_driver/src/n32g430_adc.c **** *\*\            - DISABLE
 213:../firmware/n32g430_std_periph_driver/src/n32g430_adc.c **** *\*\            - ENABLE
 214:../firmware/n32g430_std_periph_driver/src/n32g430_adc.c **** *\*\          - ContinueConvEn
 215:../firmware/n32g430_std_periph_driver/src/n32g430_adc.c **** *\*\            - DISABLE
 216:../firmware/n32g430_std_periph_driver/src/n32g430_adc.c **** *\*\            - ENABLE
 217:../firmware/n32g430_std_periph_driver/src/n32g430_adc.c **** *\*\          - ExtTrigSelect
 218:../firmware/n32g430_std_periph_driver/src/n32g430_adc.c **** *\*\            - ADC_EXT_TRIGCONV_REGULAR_T1_CC1                
 219:../firmware/n32g430_std_periph_driver/src/n32g430_adc.c **** *\*\            - ADC_EXT_TRIGCONV_REGULAR_T1_CC2                
 220:../firmware/n32g430_std_periph_driver/src/n32g430_adc.c **** *\*\            - ADC_EXT_TRIGCONV_REGULAR_T1_CC3                
ARM GAS  C:\Users\ZShuai\AppData\Local\Temp\ccI2BPXx.s 			page 13


 221:../firmware/n32g430_std_periph_driver/src/n32g430_adc.c **** *\*\            - ADC_EXT_TRIGCONV_REGULAR_T2_CC2                
 222:../firmware/n32g430_std_periph_driver/src/n32g430_adc.c **** *\*\            - ADC_EXT_TRIGCONV_REGULAR_T3_TRGO               
 223:../firmware/n32g430_std_periph_driver/src/n32g430_adc.c **** *\*\            - ADC_EXT_TRIGCONV_REGULAR_T4_CC4                
 224:../firmware/n32g430_std_periph_driver/src/n32g430_adc.c **** *\*\            - ADC_EXT_TRIGCONV_REGULAR_EXT_INT11_TIM8_TRGO   
 225:../firmware/n32g430_std_periph_driver/src/n32g430_adc.c **** *\*\            - ADC_EXT_TRIGCONV_REGULAR_SWSTRRCH              
 226:../firmware/n32g430_std_periph_driver/src/n32g430_adc.c **** *\*\          - DatAlign
 227:../firmware/n32g430_std_periph_driver/src/n32g430_adc.c **** *\*\            - ADC_DAT_ALIGN_R
 228:../firmware/n32g430_std_periph_driver/src/n32g430_adc.c **** *\*\            - ADC_DAT_ALIGN_L
 229:../firmware/n32g430_std_periph_driver/src/n32g430_adc.c **** *\*\          - ChsNumber
 230:../firmware/n32g430_std_periph_driver/src/n32g430_adc.c **** *\*\            - ADC_REGULAR_LEN_1
 231:../firmware/n32g430_std_periph_driver/src/n32g430_adc.c **** *\*\            - ADC_REGULAR_LEN_2
 232:../firmware/n32g430_std_periph_driver/src/n32g430_adc.c **** *\*\            - ADC_REGULAR_LEN_3
 233:../firmware/n32g430_std_periph_driver/src/n32g430_adc.c **** *\*\            - ADC_REGULAR_LEN_4
 234:../firmware/n32g430_std_periph_driver/src/n32g430_adc.c **** *\*\            - ADC_REGULAR_LEN_5
 235:../firmware/n32g430_std_periph_driver/src/n32g430_adc.c **** *\*\            - ADC_REGULAR_LEN_6
 236:../firmware/n32g430_std_periph_driver/src/n32g430_adc.c **** *\*\            - ADC_REGULAR_LEN_7
 237:../firmware/n32g430_std_periph_driver/src/n32g430_adc.c **** *\*\            - ADC_REGULAR_LEN_8
 238:../firmware/n32g430_std_periph_driver/src/n32g430_adc.c **** *\*\            - ADC_REGULAR_LEN_9
 239:../firmware/n32g430_std_periph_driver/src/n32g430_adc.c **** *\*\            - ADC_REGULAR_LEN_10
 240:../firmware/n32g430_std_periph_driver/src/n32g430_adc.c **** *\*\            - ADC_REGULAR_LEN_11
 241:../firmware/n32g430_std_periph_driver/src/n32g430_adc.c **** *\*\            - ADC_REGULAR_LEN_12
 242:../firmware/n32g430_std_periph_driver/src/n32g430_adc.c **** *\*\            - ADC_REGULAR_LEN_13
 243:../firmware/n32g430_std_periph_driver/src/n32g430_adc.c **** *\*\            - ADC_REGULAR_LEN_14
 244:../firmware/n32g430_std_periph_driver/src/n32g430_adc.c **** *\*\            - ADC_REGULAR_LEN_15
 245:../firmware/n32g430_std_periph_driver/src/n32g430_adc.c **** *\*\            - ADC_REGULAR_LEN_16
 246:../firmware/n32g430_std_periph_driver/src/n32g430_adc.c **** *\*\return  none
 247:../firmware/n32g430_std_periph_driver/src/n32g430_adc.c **** **/
 248:../firmware/n32g430_std_periph_driver/src/n32g430_adc.c **** void ADC_Initializes(ADC_InitType* ADC_initstruct)
 249:../firmware/n32g430_std_periph_driver/src/n32g430_adc.c **** {
 490              		.loc 1 249 1
 491              		.cfi_startproc
 492              		@ args = 0, pretend = 0, frame = 8
 493              		@ frame_needed = 1, uses_anonymous_args = 0
 494 0000 80B5     		push	{r7, lr}
 495              	.LCFI38:
 496              		.cfi_def_cfa_offset 8
 497              		.cfi_offset 7, -8
 498              		.cfi_offset 14, -4
 499 0002 82B0     		sub	sp, sp, #8
 500              	.LCFI39:
 501              		.cfi_def_cfa_offset 16
 502 0004 00AF     		add	r7, sp, #0
 503              	.LCFI40:
 504              		.cfi_def_cfa_register 7
 505 0006 7860     		str	r0, [r7, #4]
 250:../firmware/n32g430_std_periph_driver/src/n32g430_adc.c ****     if(ADC_initstruct->MultiChEn)
 506              		.loc 1 250 22
 507 0008 7B68     		ldr	r3, [r7, #4]
 508 000a 1B78     		ldrb	r3, [r3]	@ zero_extendqisi2
 509              		.loc 1 250 7
 510 000c 002B     		cmp	r3, #0
 511 000e 02D0     		beq	.L28
 251:../firmware/n32g430_std_periph_driver/src/n32g430_adc.c ****     {
 252:../firmware/n32g430_std_periph_driver/src/n32g430_adc.c ****         ADC_Multichannels_Enable();
 512              		.loc 1 252 9
 513 0010 FFF7FEFF 		bl	ADC_Multichannels_Enable
 514 0014 01E0     		b	.L29
ARM GAS  C:\Users\ZShuai\AppData\Local\Temp\ccI2BPXx.s 			page 14


 515              	.L28:
 253:../firmware/n32g430_std_periph_driver/src/n32g430_adc.c ****     }
 254:../firmware/n32g430_std_periph_driver/src/n32g430_adc.c ****     else
 255:../firmware/n32g430_std_periph_driver/src/n32g430_adc.c ****     {
 256:../firmware/n32g430_std_periph_driver/src/n32g430_adc.c ****         ADC_Multichannels_Disable();
 516              		.loc 1 256 9
 517 0016 FFF7FEFF 		bl	ADC_Multichannels_Disable
 518              	.L29:
 257:../firmware/n32g430_std_periph_driver/src/n32g430_adc.c ****     }
 258:../firmware/n32g430_std_periph_driver/src/n32g430_adc.c **** 
 259:../firmware/n32g430_std_periph_driver/src/n32g430_adc.c ****     if(ADC_initstruct->ContinueConvEn)
 519              		.loc 1 259 22
 520 001a 7B68     		ldr	r3, [r7, #4]
 521 001c 5B78     		ldrb	r3, [r3, #1]	@ zero_extendqisi2
 522              		.loc 1 259 7
 523 001e 002B     		cmp	r3, #0
 524 0020 02D0     		beq	.L30
 260:../firmware/n32g430_std_periph_driver/src/n32g430_adc.c ****     {
 261:../firmware/n32g430_std_periph_driver/src/n32g430_adc.c ****         ADC_Continue_Conversion_Enable();
 525              		.loc 1 261 9
 526 0022 FFF7FEFF 		bl	ADC_Continue_Conversion_Enable
 527 0026 01E0     		b	.L31
 528              	.L30:
 262:../firmware/n32g430_std_periph_driver/src/n32g430_adc.c ****     }
 263:../firmware/n32g430_std_periph_driver/src/n32g430_adc.c ****     else
 264:../firmware/n32g430_std_periph_driver/src/n32g430_adc.c ****     {
 265:../firmware/n32g430_std_periph_driver/src/n32g430_adc.c ****         ADC_Continue_Conversion_Disable();
 529              		.loc 1 265 9
 530 0028 FFF7FEFF 		bl	ADC_Continue_Conversion_Disable
 531              	.L31:
 266:../firmware/n32g430_std_periph_driver/src/n32g430_adc.c ****     }
 267:../firmware/n32g430_std_periph_driver/src/n32g430_adc.c **** 
 268:../firmware/n32g430_std_periph_driver/src/n32g430_adc.c ****     /* Enable external LDO */
 269:../firmware/n32g430_std_periph_driver/src/n32g430_adc.c ****     ADC_LDO_CTR |= 0x00000028;
 532              		.loc 1 269 5
 533 002c 0C4B     		ldr	r3, .L32
 534 002e 1B68     		ldr	r3, [r3]
 535 0030 0B4A     		ldr	r2, .L32
 536              		.loc 1 269 17
 537 0032 43F02803 		orr	r3, r3, #40
 538 0036 1360     		str	r3, [r2]
 270:../firmware/n32g430_std_periph_driver/src/n32g430_adc.c **** 
 271:../firmware/n32g430_std_periph_driver/src/n32g430_adc.c ****     ADC_Regular_Group_External_Trigger_Source_Config(ADC_initstruct->ExtTrigSelect);
 539              		.loc 1 271 5
 540 0038 7B68     		ldr	r3, [r7, #4]
 541 003a 5B68     		ldr	r3, [r3, #4]
 542 003c 1846     		mov	r0, r3
 543 003e FFF7FEFF 		bl	ADC_Regular_Group_External_Trigger_Source_Config
 272:../firmware/n32g430_std_periph_driver/src/n32g430_adc.c ****     ADC_Data_Alignment_Config(ADC_initstruct->DatAlign);
 544              		.loc 1 272 5
 545 0042 7B68     		ldr	r3, [r7, #4]
 546 0044 9B68     		ldr	r3, [r3, #8]
 547 0046 1846     		mov	r0, r3
 548 0048 FFF7FEFF 		bl	ADC_Data_Alignment_Config
 273:../firmware/n32g430_std_periph_driver/src/n32g430_adc.c ****     ADC_Regular_Channels_Number_Config(ADC_initstruct->ChsNumber);
 549              		.loc 1 273 5
 550 004c 7B68     		ldr	r3, [r7, #4]
ARM GAS  C:\Users\ZShuai\AppData\Local\Temp\ccI2BPXx.s 			page 15


 551 004e DB68     		ldr	r3, [r3, #12]
 552 0050 1846     		mov	r0, r3
 553 0052 FFF7FEFF 		bl	ADC_Regular_Channels_Number_Config
 274:../firmware/n32g430_std_periph_driver/src/n32g430_adc.c **** }
 554              		.loc 1 274 1
 555 0056 00BF     		nop
 556 0058 0837     		adds	r7, r7, #8
 557              	.LCFI41:
 558              		.cfi_def_cfa_offset 8
 559 005a BD46     		mov	sp, r7
 560              	.LCFI42:
 561              		.cfi_def_cfa_register 13
 562              		@ sp needed
 563 005c 80BD     		pop	{r7, pc}
 564              	.L33:
 565 005e 00BF     		.align	2
 566              	.L32:
 567 0060 60080240 		.word	1073875040
 568              		.cfi_endproc
 569              	.LFE139:
 571              		.section	.text.ADC_Initializes_Structure,"ax",%progbits
 572              		.align	1
 573              		.global	ADC_Initializes_Structure
 574              		.syntax unified
 575              		.thumb
 576              		.thumb_func
 578              	ADC_Initializes_Structure:
 579              	.LFB140:
 275:../firmware/n32g430_std_periph_driver/src/n32g430_adc.c **** 
 276:../firmware/n32g430_std_periph_driver/src/n32g430_adc.c **** /**
 277:../firmware/n32g430_std_periph_driver/src/n32g430_adc.c **** *\*\name    ADC_Initializes_Structure.
 278:../firmware/n32g430_std_periph_driver/src/n32g430_adc.c **** *\*\fun     Fills each ADC_initstruct member with its default value.
 279:../firmware/n32g430_std_periph_driver/src/n32g430_adc.c **** *\*\param   ADC_initstruct :
 280:../firmware/n32g430_std_periph_driver/src/n32g430_adc.c **** *\*\          - MultiChEn
 281:../firmware/n32g430_std_periph_driver/src/n32g430_adc.c **** *\*\          - ContinueConvEn
 282:../firmware/n32g430_std_periph_driver/src/n32g430_adc.c **** *\*\          - ExtTrigSelect
 283:../firmware/n32g430_std_periph_driver/src/n32g430_adc.c **** *\*\          - DatAlign
 284:../firmware/n32g430_std_periph_driver/src/n32g430_adc.c **** *\*\          - ChsNumber
 285:../firmware/n32g430_std_periph_driver/src/n32g430_adc.c **** *\*\return  none
 286:../firmware/n32g430_std_periph_driver/src/n32g430_adc.c **** **/
 287:../firmware/n32g430_std_periph_driver/src/n32g430_adc.c **** void ADC_Initializes_Structure(ADC_InitType* ADC_initstruct)
 288:../firmware/n32g430_std_periph_driver/src/n32g430_adc.c **** {
 580              		.loc 1 288 1
 581              		.cfi_startproc
 582              		@ args = 0, pretend = 0, frame = 8
 583              		@ frame_needed = 1, uses_anonymous_args = 0
 584              		@ link register save eliminated.
 585 0000 80B4     		push	{r7}
 586              	.LCFI43:
 587              		.cfi_def_cfa_offset 4
 588              		.cfi_offset 7, -4
 589 0002 83B0     		sub	sp, sp, #12
 590              	.LCFI44:
 591              		.cfi_def_cfa_offset 16
 592 0004 00AF     		add	r7, sp, #0
 593              	.LCFI45:
 594              		.cfi_def_cfa_register 7
ARM GAS  C:\Users\ZShuai\AppData\Local\Temp\ccI2BPXx.s 			page 16


 595 0006 7860     		str	r0, [r7, #4]
 289:../firmware/n32g430_std_periph_driver/src/n32g430_adc.c ****     /* Reset ADC init structure parameters values */
 290:../firmware/n32g430_std_periph_driver/src/n32g430_adc.c ****     /* initialize the MultiChEn member */
 291:../firmware/n32g430_std_periph_driver/src/n32g430_adc.c ****     ADC_initstruct->MultiChEn      = DISABLE;
 596              		.loc 1 291 36
 597 0008 7B68     		ldr	r3, [r7, #4]
 598 000a 0022     		movs	r2, #0
 599 000c 1A70     		strb	r2, [r3]
 292:../firmware/n32g430_std_periph_driver/src/n32g430_adc.c ****     /* Initialize the ContinueConvEn member */
 293:../firmware/n32g430_std_periph_driver/src/n32g430_adc.c ****     ADC_initstruct->ContinueConvEn = DISABLE;
 600              		.loc 1 293 36
 601 000e 7B68     		ldr	r3, [r7, #4]
 602 0010 0022     		movs	r2, #0
 603 0012 5A70     		strb	r2, [r3, #1]
 294:../firmware/n32g430_std_periph_driver/src/n32g430_adc.c ****     /* Initialize the ExtTrigSelect member */
 295:../firmware/n32g430_std_periph_driver/src/n32g430_adc.c ****     ADC_initstruct->ExtTrigSelect  = ADC_EXT_TRIGCONV_REGULAR_T1_CC1;
 604              		.loc 1 295 36
 605 0014 7B68     		ldr	r3, [r7, #4]
 606 0016 0022     		movs	r2, #0
 607 0018 5A60     		str	r2, [r3, #4]
 296:../firmware/n32g430_std_periph_driver/src/n32g430_adc.c ****     /* Initialize the DatAlign member */
 297:../firmware/n32g430_std_periph_driver/src/n32g430_adc.c ****     ADC_initstruct->DatAlign       = ADC_DAT_ALIGN_R;
 608              		.loc 1 297 36
 609 001a 7B68     		ldr	r3, [r7, #4]
 610 001c 0022     		movs	r2, #0
 611 001e 9A60     		str	r2, [r3, #8]
 298:../firmware/n32g430_std_periph_driver/src/n32g430_adc.c ****     /* Initialize the ChsNumber member */
 299:../firmware/n32g430_std_periph_driver/src/n32g430_adc.c ****     ADC_initstruct->ChsNumber      = ADC_REGULAR_LEN_1;
 612              		.loc 1 299 36
 613 0020 7B68     		ldr	r3, [r7, #4]
 614 0022 0022     		movs	r2, #0
 615 0024 DA60     		str	r2, [r3, #12]
 300:../firmware/n32g430_std_periph_driver/src/n32g430_adc.c **** }
 616              		.loc 1 300 1
 617 0026 00BF     		nop
 618 0028 0C37     		adds	r7, r7, #12
 619              	.LCFI46:
 620              		.cfi_def_cfa_offset 4
 621 002a BD46     		mov	sp, r7
 622              	.LCFI47:
 623              		.cfi_def_cfa_register 13
 624              		@ sp needed
 625 002c 5DF8047B 		ldr	r7, [sp], #4
 626              	.LCFI48:
 627              		.cfi_restore 7
 628              		.cfi_def_cfa_offset 0
 629 0030 7047     		bx	lr
 630              		.cfi_endproc
 631              	.LFE140:
 633              		.section	.text.ADC_ON,"ax",%progbits
 634              		.align	1
 635              		.global	ADC_ON
 636              		.syntax unified
 637              		.thumb
 638              		.thumb_func
 640              	ADC_ON:
 641              	.LFB141:
ARM GAS  C:\Users\ZShuai\AppData\Local\Temp\ccI2BPXx.s 			page 17


 301:../firmware/n32g430_std_periph_driver/src/n32g430_adc.c **** 
 302:../firmware/n32g430_std_periph_driver/src/n32g430_adc.c **** /**
 303:../firmware/n32g430_std_periph_driver/src/n32g430_adc.c **** *\*\name    ADC_ON.
 304:../firmware/n32g430_std_periph_driver/src/n32g430_adc.c **** *\*\fun     ADC turn ON.
 305:../firmware/n32g430_std_periph_driver/src/n32g430_adc.c **** *\*\return  none
 306:../firmware/n32g430_std_periph_driver/src/n32g430_adc.c **** **/
 307:../firmware/n32g430_std_periph_driver/src/n32g430_adc.c **** void ADC_ON(void)
 308:../firmware/n32g430_std_periph_driver/src/n32g430_adc.c **** {
 642              		.loc 1 308 1
 643              		.cfi_startproc
 644              		@ args = 0, pretend = 0, frame = 0
 645              		@ frame_needed = 1, uses_anonymous_args = 0
 646              		@ link register save eliminated.
 647 0000 80B4     		push	{r7}
 648              	.LCFI49:
 649              		.cfi_def_cfa_offset 4
 650              		.cfi_offset 7, -4
 651 0002 00AF     		add	r7, sp, #0
 652              	.LCFI50:
 653              		.cfi_def_cfa_register 7
 309:../firmware/n32g430_std_periph_driver/src/n32g430_adc.c ****     /* Set the ADC_CTRL2 ON bit to wake up the ADC from power down mode */
 310:../firmware/n32g430_std_periph_driver/src/n32g430_adc.c ****     ADC->CTRL2 |= ADC_TURN_ON;
 654              		.loc 1 310 8
 655 0004 054B     		ldr	r3, .L36
 656 0006 9B68     		ldr	r3, [r3, #8]
 657 0008 044A     		ldr	r2, .L36
 658              		.loc 1 310 16
 659 000a 43F00103 		orr	r3, r3, #1
 660 000e 9360     		str	r3, [r2, #8]
 311:../firmware/n32g430_std_periph_driver/src/n32g430_adc.c **** }
 661              		.loc 1 311 1
 662 0010 00BF     		nop
 663 0012 BD46     		mov	sp, r7
 664              	.LCFI51:
 665              		.cfi_def_cfa_register 13
 666              		@ sp needed
 667 0014 5DF8047B 		ldr	r7, [sp], #4
 668              	.LCFI52:
 669              		.cfi_restore 7
 670              		.cfi_def_cfa_offset 0
 671 0018 7047     		bx	lr
 672              	.L37:
 673 001a 00BF     		.align	2
 674              	.L36:
 675 001c 00080240 		.word	1073874944
 676              		.cfi_endproc
 677              	.LFE141:
 679              		.section	.text.ADC_OFF,"ax",%progbits
 680              		.align	1
 681              		.global	ADC_OFF
 682              		.syntax unified
 683              		.thumb
 684              		.thumb_func
 686              	ADC_OFF:
 687              	.LFB142:
 312:../firmware/n32g430_std_periph_driver/src/n32g430_adc.c **** 
 313:../firmware/n32g430_std_periph_driver/src/n32g430_adc.c **** /**
ARM GAS  C:\Users\ZShuai\AppData\Local\Temp\ccI2BPXx.s 			page 18


 314:../firmware/n32g430_std_periph_driver/src/n32g430_adc.c **** *\*\name    ADC_OFF.
 315:../firmware/n32g430_std_periph_driver/src/n32g430_adc.c **** *\*\fun     ADC turn OFF.
 316:../firmware/n32g430_std_periph_driver/src/n32g430_adc.c **** *\*\return  none
 317:../firmware/n32g430_std_periph_driver/src/n32g430_adc.c **** **/
 318:../firmware/n32g430_std_periph_driver/src/n32g430_adc.c **** void ADC_OFF(void)
 319:../firmware/n32g430_std_periph_driver/src/n32g430_adc.c **** {
 688              		.loc 1 319 1
 689              		.cfi_startproc
 690              		@ args = 0, pretend = 0, frame = 0
 691              		@ frame_needed = 1, uses_anonymous_args = 0
 692              		@ link register save eliminated.
 693 0000 80B4     		push	{r7}
 694              	.LCFI53:
 695              		.cfi_def_cfa_offset 4
 696              		.cfi_offset 7, -4
 697 0002 00AF     		add	r7, sp, #0
 698              	.LCFI54:
 699              		.cfi_def_cfa_register 7
 320:../firmware/n32g430_std_periph_driver/src/n32g430_adc.c ****     /* Clear the ADC_CTRL2 ON bit, then ADC go to power down mode */
 321:../firmware/n32g430_std_periph_driver/src/n32g430_adc.c ****     ADC->CTRL2 &= ADC_TURN_OFF;
 700              		.loc 1 321 8
 701 0004 054B     		ldr	r3, .L39
 702 0006 9B68     		ldr	r3, [r3, #8]
 703 0008 044A     		ldr	r2, .L39
 704              		.loc 1 321 16
 705 000a 23F00103 		bic	r3, r3, #1
 706 000e 9360     		str	r3, [r2, #8]
 322:../firmware/n32g430_std_periph_driver/src/n32g430_adc.c **** }
 707              		.loc 1 322 1
 708 0010 00BF     		nop
 709 0012 BD46     		mov	sp, r7
 710              	.LCFI55:
 711              		.cfi_def_cfa_register 13
 712              		@ sp needed
 713 0014 5DF8047B 		ldr	r7, [sp], #4
 714              	.LCFI56:
 715              		.cfi_restore 7
 716              		.cfi_def_cfa_offset 0
 717 0018 7047     		bx	lr
 718              	.L40:
 719 001a 00BF     		.align	2
 720              	.L39:
 721 001c 00080240 		.word	1073874944
 722              		.cfi_endproc
 723              	.LFE142:
 725              		.section	.text.ADC_DMA_Transfer_Enable,"ax",%progbits
 726              		.align	1
 727              		.global	ADC_DMA_Transfer_Enable
 728              		.syntax unified
 729              		.thumb
 730              		.thumb_func
 732              	ADC_DMA_Transfer_Enable:
 733              	.LFB143:
 323:../firmware/n32g430_std_periph_driver/src/n32g430_adc.c **** 
 324:../firmware/n32g430_std_periph_driver/src/n32g430_adc.c **** /**
 325:../firmware/n32g430_std_periph_driver/src/n32g430_adc.c **** *\*\name    ADC_DMA_Transfer_Enable.
 326:../firmware/n32g430_std_periph_driver/src/n32g430_adc.c **** *\*\fun     Enable ADC DMA transfer.
ARM GAS  C:\Users\ZShuai\AppData\Local\Temp\ccI2BPXx.s 			page 19


 327:../firmware/n32g430_std_periph_driver/src/n32g430_adc.c **** *\*\return  none
 328:../firmware/n32g430_std_periph_driver/src/n32g430_adc.c **** **/
 329:../firmware/n32g430_std_periph_driver/src/n32g430_adc.c **** void ADC_DMA_Transfer_Enable(void)
 330:../firmware/n32g430_std_periph_driver/src/n32g430_adc.c **** {
 734              		.loc 1 330 1
 735              		.cfi_startproc
 736              		@ args = 0, pretend = 0, frame = 0
 737              		@ frame_needed = 1, uses_anonymous_args = 0
 738              		@ link register save eliminated.
 739 0000 80B4     		push	{r7}
 740              	.LCFI57:
 741              		.cfi_def_cfa_offset 4
 742              		.cfi_offset 7, -4
 743 0002 00AF     		add	r7, sp, #0
 744              	.LCFI58:
 745              		.cfi_def_cfa_register 7
 331:../firmware/n32g430_std_periph_driver/src/n32g430_adc.c ****     /* Set the ADC_CTRL2 ENDMA bit to enable DMA transfer */
 332:../firmware/n32g430_std_periph_driver/src/n32g430_adc.c ****     ADC->CTRL2 |= ADC_DMA_ENABLE;
 746              		.loc 1 332 8
 747 0004 054B     		ldr	r3, .L42
 748 0006 9B68     		ldr	r3, [r3, #8]
 749 0008 044A     		ldr	r2, .L42
 750              		.loc 1 332 16
 751 000a 43F48073 		orr	r3, r3, #256
 752 000e 9360     		str	r3, [r2, #8]
 333:../firmware/n32g430_std_periph_driver/src/n32g430_adc.c **** }
 753              		.loc 1 333 1
 754 0010 00BF     		nop
 755 0012 BD46     		mov	sp, r7
 756              	.LCFI59:
 757              		.cfi_def_cfa_register 13
 758              		@ sp needed
 759 0014 5DF8047B 		ldr	r7, [sp], #4
 760              	.LCFI60:
 761              		.cfi_restore 7
 762              		.cfi_def_cfa_offset 0
 763 0018 7047     		bx	lr
 764              	.L43:
 765 001a 00BF     		.align	2
 766              	.L42:
 767 001c 00080240 		.word	1073874944
 768              		.cfi_endproc
 769              	.LFE143:
 771              		.section	.text.ADC_DMA_Transfer_Disable,"ax",%progbits
 772              		.align	1
 773              		.global	ADC_DMA_Transfer_Disable
 774              		.syntax unified
 775              		.thumb
 776              		.thumb_func
 778              	ADC_DMA_Transfer_Disable:
 779              	.LFB144:
 334:../firmware/n32g430_std_periph_driver/src/n32g430_adc.c **** 
 335:../firmware/n32g430_std_periph_driver/src/n32g430_adc.c **** /**
 336:../firmware/n32g430_std_periph_driver/src/n32g430_adc.c **** *\*\name    ADC_DMA_Transfer_Disable.
 337:../firmware/n32g430_std_periph_driver/src/n32g430_adc.c **** *\*\fun     Disable ADC DMA transfer.
 338:../firmware/n32g430_std_periph_driver/src/n32g430_adc.c **** *\*\return  none
 339:../firmware/n32g430_std_periph_driver/src/n32g430_adc.c **** **/
ARM GAS  C:\Users\ZShuai\AppData\Local\Temp\ccI2BPXx.s 			page 20


 340:../firmware/n32g430_std_periph_driver/src/n32g430_adc.c **** void ADC_DMA_Transfer_Disable(void)
 341:../firmware/n32g430_std_periph_driver/src/n32g430_adc.c **** {
 780              		.loc 1 341 1
 781              		.cfi_startproc
 782              		@ args = 0, pretend = 0, frame = 0
 783              		@ frame_needed = 1, uses_anonymous_args = 0
 784              		@ link register save eliminated.
 785 0000 80B4     		push	{r7}
 786              	.LCFI61:
 787              		.cfi_def_cfa_offset 4
 788              		.cfi_offset 7, -4
 789 0002 00AF     		add	r7, sp, #0
 790              	.LCFI62:
 791              		.cfi_def_cfa_register 7
 342:../firmware/n32g430_std_periph_driver/src/n32g430_adc.c ****     /* Clean the ADC_CTRL2 ENDMA bit to disable DMA transfer */
 343:../firmware/n32g430_std_periph_driver/src/n32g430_adc.c ****     ADC->CTRL2 &= ADC_DMA_DISABLE;
 792              		.loc 1 343 8
 793 0004 054B     		ldr	r3, .L45
 794 0006 9B68     		ldr	r3, [r3, #8]
 795 0008 044A     		ldr	r2, .L45
 796              		.loc 1 343 16
 797 000a 23F48073 		bic	r3, r3, #256
 798 000e 9360     		str	r3, [r2, #8]
 344:../firmware/n32g430_std_periph_driver/src/n32g430_adc.c **** }
 799              		.loc 1 344 1
 800 0010 00BF     		nop
 801 0012 BD46     		mov	sp, r7
 802              	.LCFI63:
 803              		.cfi_def_cfa_register 13
 804              		@ sp needed
 805 0014 5DF8047B 		ldr	r7, [sp], #4
 806              	.LCFI64:
 807              		.cfi_restore 7
 808              		.cfi_def_cfa_offset 0
 809 0018 7047     		bx	lr
 810              	.L46:
 811 001a 00BF     		.align	2
 812              	.L45:
 813 001c 00080240 		.word	1073874944
 814              		.cfi_endproc
 815              	.LFE144:
 817              		.section	.text.ADC_Interrupts_Enable,"ax",%progbits
 818              		.align	1
 819              		.global	ADC_Interrupts_Enable
 820              		.syntax unified
 821              		.thumb
 822              		.thumb_func
 824              	ADC_Interrupts_Enable:
 825              	.LFB145:
 345:../firmware/n32g430_std_periph_driver/src/n32g430_adc.c **** 
 346:../firmware/n32g430_std_periph_driver/src/n32g430_adc.c **** /**
 347:../firmware/n32g430_std_periph_driver/src/n32g430_adc.c **** *\*\name    ADC_Interrupts_Enable.
 348:../firmware/n32g430_std_periph_driver/src/n32g430_adc.c **** *\*\fun     Enable ADC interrupts.
 349:../firmware/n32g430_std_periph_driver/src/n32g430_adc.c **** *\*\param   adc_interrupt :
 350:../firmware/n32g430_std_periph_driver/src/n32g430_adc.c **** *\*\          - ADC_INT_ENDC      ADC_CTRL1
 351:../firmware/n32g430_std_periph_driver/src/n32g430_adc.c **** *\*\          - ADC_INT_AWD       ADC_CTRL1
 352:../firmware/n32g430_std_periph_driver/src/n32g430_adc.c **** *\*\          - ADC_INT_JENDC     ADC_CTRL1
ARM GAS  C:\Users\ZShuai\AppData\Local\Temp\ccI2BPXx.s 			page 21


 353:../firmware/n32g430_std_periph_driver/src/n32g430_adc.c **** *\*\          - ADC_INT_ENDCA     ADC_CTRL3
 354:../firmware/n32g430_std_periph_driver/src/n32g430_adc.c **** *\*\          - ADC_INT_JENDCA    ADC_CTRL3
 355:../firmware/n32g430_std_periph_driver/src/n32g430_adc.c **** *\*\return  none
 356:../firmware/n32g430_std_periph_driver/src/n32g430_adc.c **** **/
 357:../firmware/n32g430_std_periph_driver/src/n32g430_adc.c **** void ADC_Interrupts_Enable(uint32_t adc_interrupt)
 358:../firmware/n32g430_std_periph_driver/src/n32g430_adc.c **** {
 826              		.loc 1 358 1
 827              		.cfi_startproc
 828              		@ args = 0, pretend = 0, frame = 8
 829              		@ frame_needed = 1, uses_anonymous_args = 0
 830              		@ link register save eliminated.
 831 0000 80B4     		push	{r7}
 832              	.LCFI65:
 833              		.cfi_def_cfa_offset 4
 834              		.cfi_offset 7, -4
 835 0002 83B0     		sub	sp, sp, #12
 836              	.LCFI66:
 837              		.cfi_def_cfa_offset 16
 838 0004 00AF     		add	r7, sp, #0
 839              	.LCFI67:
 840              		.cfi_def_cfa_register 7
 841 0006 7860     		str	r0, [r7, #4]
 359:../firmware/n32g430_std_periph_driver/src/n32g430_adc.c ****     if(adc_interrupt <= ADC_INT_JENDC)
 842              		.loc 1 359 7
 843 0008 7B68     		ldr	r3, [r7, #4]
 844 000a 802B     		cmp	r3, #128
 845 000c 06D8     		bhi	.L48
 360:../firmware/n32g430_std_periph_driver/src/n32g430_adc.c ****     {
 361:../firmware/n32g430_std_periph_driver/src/n32g430_adc.c ****         /* Set the ADC_CTRL1 ENDCIEN/AWDGIEN/JENDCIEN bit to enable ADC interrupts */
 362:../firmware/n32g430_std_periph_driver/src/n32g430_adc.c ****         ADC->CTRL1 |= adc_interrupt;
 846              		.loc 1 362 12
 847 000e 094B     		ldr	r3, .L51
 848 0010 5A68     		ldr	r2, [r3, #4]
 849 0012 0849     		ldr	r1, .L51
 850              		.loc 1 362 20
 851 0014 7B68     		ldr	r3, [r7, #4]
 852 0016 1343     		orrs	r3, r3, r2
 853 0018 4B60     		str	r3, [r1, #4]
 363:../firmware/n32g430_std_periph_driver/src/n32g430_adc.c ****     }
 364:../firmware/n32g430_std_periph_driver/src/n32g430_adc.c ****     else
 365:../firmware/n32g430_std_periph_driver/src/n32g430_adc.c ****     {
 366:../firmware/n32g430_std_periph_driver/src/n32g430_adc.c ****         /* Set the ADC_CTRL3 ENDCAIEN/JENDCAIEN bit to enable ADC interrupts */
 367:../firmware/n32g430_std_periph_driver/src/n32g430_adc.c ****         ADC->CTRL3 |= adc_interrupt;
 368:../firmware/n32g430_std_periph_driver/src/n32g430_adc.c ****     }
 369:../firmware/n32g430_std_periph_driver/src/n32g430_adc.c **** }
 854              		.loc 1 369 1
 855 001a 05E0     		b	.L50
 856              	.L48:
 367:../firmware/n32g430_std_periph_driver/src/n32g430_adc.c ****     }
 857              		.loc 1 367 12
 858 001c 054B     		ldr	r3, .L51
 859 001e 9A6D     		ldr	r2, [r3, #88]
 860 0020 0449     		ldr	r1, .L51
 367:../firmware/n32g430_std_periph_driver/src/n32g430_adc.c ****     }
 861              		.loc 1 367 20
 862 0022 7B68     		ldr	r3, [r7, #4]
 863 0024 1343     		orrs	r3, r3, r2
ARM GAS  C:\Users\ZShuai\AppData\Local\Temp\ccI2BPXx.s 			page 22


 864 0026 8B65     		str	r3, [r1, #88]
 865              	.L50:
 866              		.loc 1 369 1
 867 0028 00BF     		nop
 868 002a 0C37     		adds	r7, r7, #12
 869              	.LCFI68:
 870              		.cfi_def_cfa_offset 4
 871 002c BD46     		mov	sp, r7
 872              	.LCFI69:
 873              		.cfi_def_cfa_register 13
 874              		@ sp needed
 875 002e 5DF8047B 		ldr	r7, [sp], #4
 876              	.LCFI70:
 877              		.cfi_restore 7
 878              		.cfi_def_cfa_offset 0
 879 0032 7047     		bx	lr
 880              	.L52:
 881              		.align	2
 882              	.L51:
 883 0034 00080240 		.word	1073874944
 884              		.cfi_endproc
 885              	.LFE145:
 887              		.section	.text.ADC_Interrupts_Disable,"ax",%progbits
 888              		.align	1
 889              		.global	ADC_Interrupts_Disable
 890              		.syntax unified
 891              		.thumb
 892              		.thumb_func
 894              	ADC_Interrupts_Disable:
 895              	.LFB146:
 370:../firmware/n32g430_std_periph_driver/src/n32g430_adc.c **** 
 371:../firmware/n32g430_std_periph_driver/src/n32g430_adc.c **** /**
 372:../firmware/n32g430_std_periph_driver/src/n32g430_adc.c **** *\*\name    ADC_Interrupts_Disable.
 373:../firmware/n32g430_std_periph_driver/src/n32g430_adc.c **** *\*\fun     Disable ADC interrupts.
 374:../firmware/n32g430_std_periph_driver/src/n32g430_adc.c **** *\*\param   adc_interrupt :
 375:../firmware/n32g430_std_periph_driver/src/n32g430_adc.c **** *\*\          - ADC_INT_ENDC      ADC_CTRL1
 376:../firmware/n32g430_std_periph_driver/src/n32g430_adc.c **** *\*\          - ADC_INT_AWD       ADC_CTRL1
 377:../firmware/n32g430_std_periph_driver/src/n32g430_adc.c **** *\*\          - ADC_INT_JENDC     ADC_CTRL1
 378:../firmware/n32g430_std_periph_driver/src/n32g430_adc.c **** *\*\          - ADC_INT_ENDCA     ADC_CTRL3   
 379:../firmware/n32g430_std_periph_driver/src/n32g430_adc.c **** *\*\          - ADC_INT_JENDCA    ADC_CTRL3
 380:../firmware/n32g430_std_periph_driver/src/n32g430_adc.c **** *\*\return  none
 381:../firmware/n32g430_std_periph_driver/src/n32g430_adc.c **** **/
 382:../firmware/n32g430_std_periph_driver/src/n32g430_adc.c **** void ADC_Interrupts_Disable(uint32_t adc_interrupt)
 383:../firmware/n32g430_std_periph_driver/src/n32g430_adc.c **** {
 896              		.loc 1 383 1
 897              		.cfi_startproc
 898              		@ args = 0, pretend = 0, frame = 8
 899              		@ frame_needed = 1, uses_anonymous_args = 0
 900              		@ link register save eliminated.
 901 0000 80B4     		push	{r7}
 902              	.LCFI71:
 903              		.cfi_def_cfa_offset 4
 904              		.cfi_offset 7, -4
 905 0002 83B0     		sub	sp, sp, #12
 906              	.LCFI72:
 907              		.cfi_def_cfa_offset 16
 908 0004 00AF     		add	r7, sp, #0
ARM GAS  C:\Users\ZShuai\AppData\Local\Temp\ccI2BPXx.s 			page 23


 909              	.LCFI73:
 910              		.cfi_def_cfa_register 7
 911 0006 7860     		str	r0, [r7, #4]
 384:../firmware/n32g430_std_periph_driver/src/n32g430_adc.c ****     if(adc_interrupt <= ADC_INT_JENDC)
 912              		.loc 1 384 7
 913 0008 7B68     		ldr	r3, [r7, #4]
 914 000a 802B     		cmp	r3, #128
 915 000c 07D8     		bhi	.L54
 385:../firmware/n32g430_std_periph_driver/src/n32g430_adc.c ****     {
 386:../firmware/n32g430_std_periph_driver/src/n32g430_adc.c ****         /* Clean the ADC_CTRL1 ENDCIEN/AWDGIEN/JENDCIEN bit to disable ADC interrupts */
 387:../firmware/n32g430_std_periph_driver/src/n32g430_adc.c ****         ADC->CTRL1 &= (~adc_interrupt);
 916              		.loc 1 387 12
 917 000e 0A4B     		ldr	r3, .L57
 918 0010 5A68     		ldr	r2, [r3, #4]
 919              		.loc 1 387 24
 920 0012 7B68     		ldr	r3, [r7, #4]
 921 0014 DB43     		mvns	r3, r3
 922              		.loc 1 387 12
 923 0016 0849     		ldr	r1, .L57
 924              		.loc 1 387 20
 925 0018 1340     		ands	r3, r3, r2
 926 001a 4B60     		str	r3, [r1, #4]
 388:../firmware/n32g430_std_periph_driver/src/n32g430_adc.c ****     }
 389:../firmware/n32g430_std_periph_driver/src/n32g430_adc.c ****     else
 390:../firmware/n32g430_std_periph_driver/src/n32g430_adc.c ****     {
 391:../firmware/n32g430_std_periph_driver/src/n32g430_adc.c ****         /* Clean the ADC_CTRL3 ENDCAIEN/JENDCAIEN bikt to disable ADC interrupts */
 392:../firmware/n32g430_std_periph_driver/src/n32g430_adc.c ****         ADC->CTRL3 &= (~adc_interrupt);
 393:../firmware/n32g430_std_periph_driver/src/n32g430_adc.c ****     }
 394:../firmware/n32g430_std_periph_driver/src/n32g430_adc.c **** }
 927              		.loc 1 394 1
 928 001c 06E0     		b	.L56
 929              	.L54:
 392:../firmware/n32g430_std_periph_driver/src/n32g430_adc.c ****     }
 930              		.loc 1 392 12
 931 001e 064B     		ldr	r3, .L57
 932 0020 9A6D     		ldr	r2, [r3, #88]
 392:../firmware/n32g430_std_periph_driver/src/n32g430_adc.c ****     }
 933              		.loc 1 392 24
 934 0022 7B68     		ldr	r3, [r7, #4]
 935 0024 DB43     		mvns	r3, r3
 392:../firmware/n32g430_std_periph_driver/src/n32g430_adc.c ****     }
 936              		.loc 1 392 12
 937 0026 0449     		ldr	r1, .L57
 392:../firmware/n32g430_std_periph_driver/src/n32g430_adc.c ****     }
 938              		.loc 1 392 20
 939 0028 1340     		ands	r3, r3, r2
 940 002a 8B65     		str	r3, [r1, #88]
 941              	.L56:
 942              		.loc 1 394 1
 943 002c 00BF     		nop
 944 002e 0C37     		adds	r7, r7, #12
 945              	.LCFI74:
 946              		.cfi_def_cfa_offset 4
 947 0030 BD46     		mov	sp, r7
 948              	.LCFI75:
 949              		.cfi_def_cfa_register 13
 950              		@ sp needed
ARM GAS  C:\Users\ZShuai\AppData\Local\Temp\ccI2BPXx.s 			page 24


 951 0032 5DF8047B 		ldr	r7, [sp], #4
 952              	.LCFI76:
 953              		.cfi_restore 7
 954              		.cfi_def_cfa_offset 0
 955 0036 7047     		bx	lr
 956              	.L58:
 957              		.align	2
 958              	.L57:
 959 0038 00080240 		.word	1073874944
 960              		.cfi_endproc
 961              	.LFE146:
 963              		.section	.text.ADC_Calibration_Operation,"ax",%progbits
 964              		.align	1
 965              		.global	ADC_Calibration_Operation
 966              		.syntax unified
 967              		.thumb
 968              		.thumb_func
 970              	ADC_Calibration_Operation:
 971              	.LFB147:
 395:../firmware/n32g430_std_periph_driver/src/n32g430_adc.c **** 
 396:../firmware/n32g430_std_periph_driver/src/n32g430_adc.c **** /**
 397:../firmware/n32g430_std_periph_driver/src/n32g430_adc.c **** *\*\name    ADC_Calibration_Operation.
 398:../firmware/n32g430_std_periph_driver/src/n32g430_adc.c **** *\*\fun     ADC calibration operation.
 399:../firmware/n32g430_std_periph_driver/src/n32g430_adc.c **** *\*\param   calibration_operation :
 400:../firmware/n32g430_std_periph_driver/src/n32g430_adc.c **** *\*\          - ADC_CALIBRATION_ENABLE
 401:../firmware/n32g430_std_periph_driver/src/n32g430_adc.c **** *\*\          - ADC_CALIBRATION_STS
 402:../firmware/n32g430_std_periph_driver/src/n32g430_adc.c **** *\*\return  FlagStatus:
 403:../firmware/n32g430_std_periph_driver/src/n32g430_adc.c **** *\*\          - SET
 404:../firmware/n32g430_std_periph_driver/src/n32g430_adc.c **** *\*\          - RESET
 405:../firmware/n32g430_std_periph_driver/src/n32g430_adc.c **** **/
 406:../firmware/n32g430_std_periph_driver/src/n32g430_adc.c **** FlagStatus ADC_Calibration_Operation(uint32_t calibration_operation)
 407:../firmware/n32g430_std_periph_driver/src/n32g430_adc.c **** {
 972              		.loc 1 407 1
 973              		.cfi_startproc
 974              		@ args = 0, pretend = 0, frame = 8
 975              		@ frame_needed = 1, uses_anonymous_args = 0
 976              		@ link register save eliminated.
 977 0000 80B4     		push	{r7}
 978              	.LCFI77:
 979              		.cfi_def_cfa_offset 4
 980              		.cfi_offset 7, -4
 981 0002 83B0     		sub	sp, sp, #12
 982              	.LCFI78:
 983              		.cfi_def_cfa_offset 16
 984 0004 00AF     		add	r7, sp, #0
 985              	.LCFI79:
 986              		.cfi_def_cfa_register 7
 987 0006 7860     		str	r0, [r7, #4]
 408:../firmware/n32g430_std_periph_driver/src/n32g430_adc.c ****     if(calibration_operation == ADC_CALIBRATION_ENABLE)
 988              		.loc 1 408 7
 989 0008 7B68     		ldr	r3, [r7, #4]
 990 000a 012B     		cmp	r3, #1
 991 000c 0AD1     		bne	.L60
 409:../firmware/n32g430_std_periph_driver/src/n32g430_adc.c ****     {
 410:../firmware/n32g430_std_periph_driver/src/n32g430_adc.c ****         /* ADC calibration Enable */
 411:../firmware/n32g430_std_periph_driver/src/n32g430_adc.c ****         if(ADC->CALFACT == 0)
 992              		.loc 1 411 15
ARM GAS  C:\Users\ZShuai\AppData\Local\Temp\ccI2BPXx.s 			page 25


 993 000e 124B     		ldr	r3, .L65
 994 0010 5B6D     		ldr	r3, [r3, #84]
 995              		.loc 1 411 11
 996 0012 002B     		cmp	r3, #0
 997 0014 19D1     		bne	.L61
 412:../firmware/n32g430_std_periph_driver/src/n32g430_adc.c ****         {
 413:../firmware/n32g430_std_periph_driver/src/n32g430_adc.c ****             ADC->CTRL2 |= ADC_CTRL2_ENCAL;
 998              		.loc 1 413 16
 999 0016 104B     		ldr	r3, .L65
 1000 0018 9B68     		ldr	r3, [r3, #8]
 1001 001a 0F4A     		ldr	r2, .L65
 1002              		.loc 1 413 24
 1003 001c 43F00403 		orr	r3, r3, #4
 1004 0020 9360     		str	r3, [r2, #8]
 1005 0022 12E0     		b	.L61
 1006              	.L60:
 414:../firmware/n32g430_std_periph_driver/src/n32g430_adc.c ****         }
 415:../firmware/n32g430_std_periph_driver/src/n32g430_adc.c ****     }
 416:../firmware/n32g430_std_periph_driver/src/n32g430_adc.c ****     else if(calibration_operation == ADC_CALIBRATION_STS)
 1007              		.loc 1 416 12
 1008 0024 7B68     		ldr	r3, [r7, #4]
 1009 0026 022B     		cmp	r3, #2
 1010 0028 0FD1     		bne	.L61
 417:../firmware/n32g430_std_periph_driver/src/n32g430_adc.c ****     {
 418:../firmware/n32g430_std_periph_driver/src/n32g430_adc.c ****         /* Get ADC_CTRL2 CAL bit */
 419:../firmware/n32g430_std_periph_driver/src/n32g430_adc.c ****         if ((ADC->CTRL2 & ADC_CTRL2_ENCAL) != (uint32_t)RESET)
 1011              		.loc 1 419 17
 1012 002a 0B4B     		ldr	r3, .L65
 1013 002c 9B68     		ldr	r3, [r3, #8]
 1014              		.loc 1 419 25
 1015 002e 03F00403 		and	r3, r3, #4
 1016              		.loc 1 419 12
 1017 0032 002B     		cmp	r3, #0
 1018 0034 07D0     		beq	.L62
 420:../firmware/n32g430_std_periph_driver/src/n32g430_adc.c ****         {
 421:../firmware/n32g430_std_periph_driver/src/n32g430_adc.c ****             if(ADC->CALFACT != 0)
 1019              		.loc 1 421 19
 1020 0036 084B     		ldr	r3, .L65
 1021 0038 5B6D     		ldr	r3, [r3, #84]
 1022              		.loc 1 421 15
 1023 003a 002B     		cmp	r3, #0
 1024 003c 01D0     		beq	.L63
 422:../firmware/n32g430_std_periph_driver/src/n32g430_adc.c ****             {
 423:../firmware/n32g430_std_periph_driver/src/n32g430_adc.c ****                 return RESET;
 1025              		.loc 1 423 24
 1026 003e 0023     		movs	r3, #0
 1027 0040 04E0     		b	.L64
 1028              	.L63:
 424:../firmware/n32g430_std_periph_driver/src/n32g430_adc.c ****             }
 425:../firmware/n32g430_std_periph_driver/src/n32g430_adc.c ****             else
 426:../firmware/n32g430_std_periph_driver/src/n32g430_adc.c ****             {
 427:../firmware/n32g430_std_periph_driver/src/n32g430_adc.c ****                 return SET;
 1029              		.loc 1 427 24
 1030 0042 0123     		movs	r3, #1
 1031 0044 02E0     		b	.L64
 1032              	.L62:
 428:../firmware/n32g430_std_periph_driver/src/n32g430_adc.c ****             }
ARM GAS  C:\Users\ZShuai\AppData\Local\Temp\ccI2BPXx.s 			page 26


 429:../firmware/n32g430_std_periph_driver/src/n32g430_adc.c ****         }
 430:../firmware/n32g430_std_periph_driver/src/n32g430_adc.c ****         else
 431:../firmware/n32g430_std_periph_driver/src/n32g430_adc.c ****         {
 432:../firmware/n32g430_std_periph_driver/src/n32g430_adc.c ****             return RESET;
 1033              		.loc 1 432 20
 1034 0046 0023     		movs	r3, #0
 1035 0048 00E0     		b	.L64
 1036              	.L61:
 433:../firmware/n32g430_std_periph_driver/src/n32g430_adc.c ****         }
 434:../firmware/n32g430_std_periph_driver/src/n32g430_adc.c ****         
 435:../firmware/n32g430_std_periph_driver/src/n32g430_adc.c ****         
 436:../firmware/n32g430_std_periph_driver/src/n32g430_adc.c ****     }
 437:../firmware/n32g430_std_periph_driver/src/n32g430_adc.c ****     return RESET;
 1037              		.loc 1 437 12
 1038 004a 0023     		movs	r3, #0
 1039              	.L64:
 438:../firmware/n32g430_std_periph_driver/src/n32g430_adc.c **** }
 1040              		.loc 1 438 1
 1041 004c 1846     		mov	r0, r3
 1042 004e 0C37     		adds	r7, r7, #12
 1043              	.LCFI80:
 1044              		.cfi_def_cfa_offset 4
 1045 0050 BD46     		mov	sp, r7
 1046              	.LCFI81:
 1047              		.cfi_def_cfa_register 13
 1048              		@ sp needed
 1049 0052 5DF8047B 		ldr	r7, [sp], #4
 1050              	.LCFI82:
 1051              		.cfi_restore 7
 1052              		.cfi_def_cfa_offset 0
 1053 0056 7047     		bx	lr
 1054              	.L66:
 1055              		.align	2
 1056              	.L65:
 1057 0058 00080240 		.word	1073874944
 1058              		.cfi_endproc
 1059              	.LFE147:
 1061              		.section	.text.ADC_Regular_Channels_Software_Conversion_Operation,"ax",%progbits
 1062              		.align	1
 1063              		.global	ADC_Regular_Channels_Software_Conversion_Operation
 1064              		.syntax unified
 1065              		.thumb
 1066              		.thumb_func
 1068              	ADC_Regular_Channels_Software_Conversion_Operation:
 1069              	.LFB148:
 439:../firmware/n32g430_std_periph_driver/src/n32g430_adc.c **** 
 440:../firmware/n32g430_std_periph_driver/src/n32g430_adc.c **** /**
 441:../firmware/n32g430_std_periph_driver/src/n32g430_adc.c **** *\*\name    ADC_Regular_Channels_Software_Conversion_Operation.
 442:../firmware/n32g430_std_periph_driver/src/n32g430_adc.c **** *\*\fun     ADC regular channels software conversion operation.
 443:../firmware/n32g430_std_periph_driver/src/n32g430_adc.c **** *\*\param   conversion_operation :
 444:../firmware/n32g430_std_periph_driver/src/n32g430_adc.c **** *\*\          - ADC_EXTRTRIG_SWSTRRCH_ENABLE
 445:../firmware/n32g430_std_periph_driver/src/n32g430_adc.c **** *\*\          - ADC_EXTRTRIG_SWSTRRCH_DISABLE
 446:../firmware/n32g430_std_periph_driver/src/n32g430_adc.c **** *\*\          - ADC_EXTRTRIG_SWSTRRCH_GET_STS
 447:../firmware/n32g430_std_periph_driver/src/n32g430_adc.c **** *\*\return  FlagStatus:
 448:../firmware/n32g430_std_periph_driver/src/n32g430_adc.c **** *\*\          - SET
 449:../firmware/n32g430_std_periph_driver/src/n32g430_adc.c **** *\*\          - RESET
 450:../firmware/n32g430_std_periph_driver/src/n32g430_adc.c **** **/
ARM GAS  C:\Users\ZShuai\AppData\Local\Temp\ccI2BPXx.s 			page 27


 451:../firmware/n32g430_std_periph_driver/src/n32g430_adc.c **** FlagStatus ADC_Regular_Channels_Software_Conversion_Operation(uint32_t conversion_operation)
 452:../firmware/n32g430_std_periph_driver/src/n32g430_adc.c **** {
 1070              		.loc 1 452 1
 1071              		.cfi_startproc
 1072              		@ args = 0, pretend = 0, frame = 8
 1073              		@ frame_needed = 1, uses_anonymous_args = 0
 1074              		@ link register save eliminated.
 1075 0000 80B4     		push	{r7}
 1076              	.LCFI83:
 1077              		.cfi_def_cfa_offset 4
 1078              		.cfi_offset 7, -4
 1079 0002 83B0     		sub	sp, sp, #12
 1080              	.LCFI84:
 1081              		.cfi_def_cfa_offset 16
 1082 0004 00AF     		add	r7, sp, #0
 1083              	.LCFI85:
 1084              		.cfi_def_cfa_register 7
 1085 0006 7860     		str	r0, [r7, #4]
 453:../firmware/n32g430_std_periph_driver/src/n32g430_adc.c ****     if(conversion_operation == ADC_EXTRTRIG_SWSTRRCH_ENABLE)
 1086              		.loc 1 453 7
 1087 0008 7B68     		ldr	r3, [r7, #4]
 1088 000a B3F5A00F 		cmp	r3, #5242880
 1089 000e 06D1     		bne	.L68
 454:../firmware/n32g430_std_periph_driver/src/n32g430_adc.c ****     {
 455:../firmware/n32g430_std_periph_driver/src/n32g430_adc.c ****         /* Enable the ADC external trigger conversion mode for regular channels */
 456:../firmware/n32g430_std_periph_driver/src/n32g430_adc.c ****         ADC->CTRL2 |= conversion_operation;
 1090              		.loc 1 456 12
 1091 0010 134B     		ldr	r3, .L73
 1092 0012 9A68     		ldr	r2, [r3, #8]
 1093 0014 1249     		ldr	r1, .L73
 1094              		.loc 1 456 20
 1095 0016 7B68     		ldr	r3, [r7, #4]
 1096 0018 1343     		orrs	r3, r3, r2
 1097 001a 8B60     		str	r3, [r1, #8]
 1098 001c 19E0     		b	.L69
 1099              	.L68:
 457:../firmware/n32g430_std_periph_driver/src/n32g430_adc.c ****     }
 458:../firmware/n32g430_std_periph_driver/src/n32g430_adc.c ****     else if(conversion_operation == ADC_EXTRTRIG_SWSTRRCH_DISABLE)
 1100              		.loc 1 458 12
 1101 001e 7B68     		ldr	r3, [r7, #4]
 1102 0020 6FF4A002 		mvn	r2, #5242880
 1103 0024 9342     		cmp	r3, r2
 1104 0026 06D1     		bne	.L70
 459:../firmware/n32g430_std_periph_driver/src/n32g430_adc.c ****     {
 460:../firmware/n32g430_std_periph_driver/src/n32g430_adc.c ****         /* Disable the ADC external trigger conversion mode for regular channels */
 461:../firmware/n32g430_std_periph_driver/src/n32g430_adc.c ****         ADC->CTRL2 &= conversion_operation;
 1105              		.loc 1 461 12
 1106 0028 0D4B     		ldr	r3, .L73
 1107 002a 9A68     		ldr	r2, [r3, #8]
 1108 002c 0C49     		ldr	r1, .L73
 1109              		.loc 1 461 20
 1110 002e 7B68     		ldr	r3, [r7, #4]
 1111 0030 1340     		ands	r3, r3, r2
 1112 0032 8B60     		str	r3, [r1, #8]
 1113 0034 0DE0     		b	.L69
 1114              	.L70:
 462:../firmware/n32g430_std_periph_driver/src/n32g430_adc.c ****     }
ARM GAS  C:\Users\ZShuai\AppData\Local\Temp\ccI2BPXx.s 			page 28


 463:../firmware/n32g430_std_periph_driver/src/n32g430_adc.c ****     else if(conversion_operation == ADC_EXTRTRIG_SWSTRRCH_GET_STS)
 1115              		.loc 1 463 12
 1116 0036 7B68     		ldr	r3, [r7, #4]
 1117 0038 B3F5800F 		cmp	r3, #4194304
 1118 003c 09D1     		bne	.L69
 464:../firmware/n32g430_std_periph_driver/src/n32g430_adc.c ****     {
 465:../firmware/n32g430_std_periph_driver/src/n32g430_adc.c ****         /* Get ADC_CTRL2 SWSTRRCH bit */
 466:../firmware/n32g430_std_periph_driver/src/n32g430_adc.c ****         if ((ADC->CTRL2 & conversion_operation) != (uint32_t)RESET)
 1119              		.loc 1 466 17
 1120 003e 084B     		ldr	r3, .L73
 1121 0040 9A68     		ldr	r2, [r3, #8]
 1122              		.loc 1 466 25
 1123 0042 7B68     		ldr	r3, [r7, #4]
 1124 0044 1340     		ands	r3, r3, r2
 1125              		.loc 1 466 12
 1126 0046 002B     		cmp	r3, #0
 1127 0048 01D0     		beq	.L71
 467:../firmware/n32g430_std_periph_driver/src/n32g430_adc.c ****         {
 468:../firmware/n32g430_std_periph_driver/src/n32g430_adc.c ****             return SET;
 1128              		.loc 1 468 20
 1129 004a 0123     		movs	r3, #1
 1130 004c 02E0     		b	.L72
 1131              	.L71:
 469:../firmware/n32g430_std_periph_driver/src/n32g430_adc.c ****         }
 470:../firmware/n32g430_std_periph_driver/src/n32g430_adc.c ****         else
 471:../firmware/n32g430_std_periph_driver/src/n32g430_adc.c ****         {
 472:../firmware/n32g430_std_periph_driver/src/n32g430_adc.c ****             return RESET;
 1132              		.loc 1 472 20
 1133 004e 0023     		movs	r3, #0
 1134 0050 00E0     		b	.L72
 1135              	.L69:
 473:../firmware/n32g430_std_periph_driver/src/n32g430_adc.c ****         }
 474:../firmware/n32g430_std_periph_driver/src/n32g430_adc.c ****     }
 475:../firmware/n32g430_std_periph_driver/src/n32g430_adc.c ****     return RESET;
 1136              		.loc 1 475 12
 1137 0052 0023     		movs	r3, #0
 1138              	.L72:
 476:../firmware/n32g430_std_periph_driver/src/n32g430_adc.c **** }
 1139              		.loc 1 476 1
 1140 0054 1846     		mov	r0, r3
 1141 0056 0C37     		adds	r7, r7, #12
 1142              	.LCFI86:
 1143              		.cfi_def_cfa_offset 4
 1144 0058 BD46     		mov	sp, r7
 1145              	.LCFI87:
 1146              		.cfi_def_cfa_register 13
 1147              		@ sp needed
 1148 005a 5DF8047B 		ldr	r7, [sp], #4
 1149              	.LCFI88:
 1150              		.cfi_restore 7
 1151              		.cfi_def_cfa_offset 0
 1152 005e 7047     		bx	lr
 1153              	.L74:
 1154              		.align	2
 1155              	.L73:
 1156 0060 00080240 		.word	1073874944
 1157              		.cfi_endproc
ARM GAS  C:\Users\ZShuai\AppData\Local\Temp\ccI2BPXx.s 			page 29


 1158              	.LFE148:
 1160              		.section	.text.ADC_Discontinuous_Mode_Channel_Count_Config,"ax",%progbits
 1161              		.align	1
 1162              		.global	ADC_Discontinuous_Mode_Channel_Count_Config
 1163              		.syntax unified
 1164              		.thumb
 1165              		.thumb_func
 1167              	ADC_Discontinuous_Mode_Channel_Count_Config:
 1168              	.LFB149:
 477:../firmware/n32g430_std_periph_driver/src/n32g430_adc.c **** 
 478:../firmware/n32g430_std_periph_driver/src/n32g430_adc.c **** /**
 479:../firmware/n32g430_std_periph_driver/src/n32g430_adc.c **** *\*\name    ADC_Discontinuous_Mode_Channel_Count_Config.
 480:../firmware/n32g430_std_periph_driver/src/n32g430_adc.c **** *\*\fun     Configures ADC discontinuous mode channel count .
 481:../firmware/n32g430_std_periph_driver/src/n32g430_adc.c **** *\*\param   channel_count :
 482:../firmware/n32g430_std_periph_driver/src/n32g430_adc.c **** *\*\          - ADC_CHANNEL_COUNT_1
 483:../firmware/n32g430_std_periph_driver/src/n32g430_adc.c **** *\*\          - ADC_CHANNEL_COUNT_2
 484:../firmware/n32g430_std_periph_driver/src/n32g430_adc.c **** *\*\          - ADC_CHANNEL_COUNT_3
 485:../firmware/n32g430_std_periph_driver/src/n32g430_adc.c **** *\*\          - ADC_CHANNEL_COUNT_4
 486:../firmware/n32g430_std_periph_driver/src/n32g430_adc.c **** *\*\          - ADC_CHANNEL_COUNT_5
 487:../firmware/n32g430_std_periph_driver/src/n32g430_adc.c **** *\*\          - ADC_CHANNEL_COUNT_6
 488:../firmware/n32g430_std_periph_driver/src/n32g430_adc.c **** *\*\          - ADC_CHANNEL_COUNT_7
 489:../firmware/n32g430_std_periph_driver/src/n32g430_adc.c **** *\*\          - ADC_CHANNEL_COUNT_8
 490:../firmware/n32g430_std_periph_driver/src/n32g430_adc.c **** *\*\return  none
 491:../firmware/n32g430_std_periph_driver/src/n32g430_adc.c **** **/
 492:../firmware/n32g430_std_periph_driver/src/n32g430_adc.c **** void ADC_Discontinuous_Mode_Channel_Count_Config(uint32_t channel_count)
 493:../firmware/n32g430_std_periph_driver/src/n32g430_adc.c **** {
 1169              		.loc 1 493 1
 1170              		.cfi_startproc
 1171              		@ args = 0, pretend = 0, frame = 8
 1172              		@ frame_needed = 1, uses_anonymous_args = 0
 1173              		@ link register save eliminated.
 1174 0000 80B4     		push	{r7}
 1175              	.LCFI89:
 1176              		.cfi_def_cfa_offset 4
 1177              		.cfi_offset 7, -4
 1178 0002 83B0     		sub	sp, sp, #12
 1179              	.LCFI90:
 1180              		.cfi_def_cfa_offset 16
 1181 0004 00AF     		add	r7, sp, #0
 1182              	.LCFI91:
 1183              		.cfi_def_cfa_register 7
 1184 0006 7860     		str	r0, [r7, #4]
 494:../firmware/n32g430_std_periph_driver/src/n32g430_adc.c ****     /* Clear ADC_CTRL1 DCTU[2:0] */
 495:../firmware/n32g430_std_periph_driver/src/n32g430_adc.c ****     ADC->CTRL1 &= ADC_CHANNEL_COUNT_MASK;
 1185              		.loc 1 495 8
 1186 0008 084B     		ldr	r3, .L76
 1187 000a 5B68     		ldr	r3, [r3, #4]
 1188 000c 074A     		ldr	r2, .L76
 1189              		.loc 1 495 16
 1190 000e 23F46043 		bic	r3, r3, #57344
 1191 0012 5360     		str	r3, [r2, #4]
 496:../firmware/n32g430_std_periph_driver/src/n32g430_adc.c ****     /* Set ADC_CTRL1 DCTU[2:0] */
 497:../firmware/n32g430_std_periph_driver/src/n32g430_adc.c ****     ADC->CTRL1 |= channel_count;
 1192              		.loc 1 497 8
 1193 0014 054B     		ldr	r3, .L76
 1194 0016 5A68     		ldr	r2, [r3, #4]
 1195 0018 0449     		ldr	r1, .L76
ARM GAS  C:\Users\ZShuai\AppData\Local\Temp\ccI2BPXx.s 			page 30


 1196              		.loc 1 497 16
 1197 001a 7B68     		ldr	r3, [r7, #4]
 1198 001c 1343     		orrs	r3, r3, r2
 1199 001e 4B60     		str	r3, [r1, #4]
 498:../firmware/n32g430_std_periph_driver/src/n32g430_adc.c **** }
 1200              		.loc 1 498 1
 1201 0020 00BF     		nop
 1202 0022 0C37     		adds	r7, r7, #12
 1203              	.LCFI92:
 1204              		.cfi_def_cfa_offset 4
 1205 0024 BD46     		mov	sp, r7
 1206              	.LCFI93:
 1207              		.cfi_def_cfa_register 13
 1208              		@ sp needed
 1209 0026 5DF8047B 		ldr	r7, [sp], #4
 1210              	.LCFI94:
 1211              		.cfi_restore 7
 1212              		.cfi_def_cfa_offset 0
 1213 002a 7047     		bx	lr
 1214              	.L77:
 1215              		.align	2
 1216              	.L76:
 1217 002c 00080240 		.word	1073874944
 1218              		.cfi_endproc
 1219              	.LFE149:
 1221              		.section	.text.ADC_Discontinuous_Mode_Config,"ax",%progbits
 1222              		.align	1
 1223              		.global	ADC_Discontinuous_Mode_Config
 1224              		.syntax unified
 1225              		.thumb
 1226              		.thumb_func
 1228              	ADC_Discontinuous_Mode_Config:
 1229              	.LFB150:
 499:../firmware/n32g430_std_periph_driver/src/n32g430_adc.c **** 
 500:../firmware/n32g430_std_periph_driver/src/n32g430_adc.c **** /**
 501:../firmware/n32g430_std_periph_driver/src/n32g430_adc.c **** *\*\name    ADC_Discontinuous_Mode_Config.
 502:../firmware/n32g430_std_periph_driver/src/n32g430_adc.c **** *\*\fun     Configures ADC discontinuous mode on regular or injected group channels.
 503:../firmware/n32g430_std_periph_driver/src/n32g430_adc.c **** *\*\param   group_operation :
 504:../firmware/n32g430_std_periph_driver/src/n32g430_adc.c **** *\*\          - ADC_DISCMODE_REGULAR_ENABLE
 505:../firmware/n32g430_std_periph_driver/src/n32g430_adc.c **** *\*\          - ADC_DISCMODE_REGULAR_DISABLE
 506:../firmware/n32g430_std_periph_driver/src/n32g430_adc.c **** *\*\          - ADC_DISCMODE_INJECTED_ENABLE
 507:../firmware/n32g430_std_periph_driver/src/n32g430_adc.c **** *\*\          - ADC_DISCMODE_INJECTED_DISABLE
 508:../firmware/n32g430_std_periph_driver/src/n32g430_adc.c **** *\*\return  none
 509:../firmware/n32g430_std_periph_driver/src/n32g430_adc.c **** **/
 510:../firmware/n32g430_std_periph_driver/src/n32g430_adc.c **** void ADC_Discontinuous_Mode_Config(uint32_t group_operation)
 511:../firmware/n32g430_std_periph_driver/src/n32g430_adc.c **** {
 1230              		.loc 1 511 1
 1231              		.cfi_startproc
 1232              		@ args = 0, pretend = 0, frame = 8
 1233              		@ frame_needed = 1, uses_anonymous_args = 0
 1234              		@ link register save eliminated.
 1235 0000 80B4     		push	{r7}
 1236              	.LCFI95:
 1237              		.cfi_def_cfa_offset 4
 1238              		.cfi_offset 7, -4
 1239 0002 83B0     		sub	sp, sp, #12
 1240              	.LCFI96:
ARM GAS  C:\Users\ZShuai\AppData\Local\Temp\ccI2BPXx.s 			page 31


 1241              		.cfi_def_cfa_offset 16
 1242 0004 00AF     		add	r7, sp, #0
 1243              	.LCFI97:
 1244              		.cfi_def_cfa_register 7
 1245 0006 7860     		str	r0, [r7, #4]
 512:../firmware/n32g430_std_periph_driver/src/n32g430_adc.c ****     if(group_operation == ADC_DISCMODE_REGULAR_ENABLE)
 1246              		.loc 1 512 7
 1247 0008 7B68     		ldr	r3, [r7, #4]
 1248 000a B3F5006F 		cmp	r3, #2048
 1249 000e 06D1     		bne	.L79
 513:../firmware/n32g430_std_periph_driver/src/n32g430_adc.c ****     {
 514:../firmware/n32g430_std_periph_driver/src/n32g430_adc.c ****         /* Enables the discontinuous mode on regular group channels */
 515:../firmware/n32g430_std_periph_driver/src/n32g430_adc.c ****         ADC->CTRL1 |= group_operation;
 1250              		.loc 1 515 12
 1251 0010 174B     		ldr	r3, .L84
 1252 0012 5A68     		ldr	r2, [r3, #4]
 1253 0014 1649     		ldr	r1, .L84
 1254              		.loc 1 515 20
 1255 0016 7B68     		ldr	r3, [r7, #4]
 1256 0018 1343     		orrs	r3, r3, r2
 1257 001a 4B60     		str	r3, [r1, #4]
 516:../firmware/n32g430_std_periph_driver/src/n32g430_adc.c ****     }
 517:../firmware/n32g430_std_periph_driver/src/n32g430_adc.c ****     else if(group_operation == ADC_DISCMODE_REGULAR_DISABLE)
 518:../firmware/n32g430_std_periph_driver/src/n32g430_adc.c ****     {
 519:../firmware/n32g430_std_periph_driver/src/n32g430_adc.c ****         /* Disables the discontinuous mode on regular group channels */
 520:../firmware/n32g430_std_periph_driver/src/n32g430_adc.c ****         ADC->CTRL1 &= group_operation;
 521:../firmware/n32g430_std_periph_driver/src/n32g430_adc.c ****     }
 522:../firmware/n32g430_std_periph_driver/src/n32g430_adc.c ****     else if(group_operation == ADC_DISCMODE_INJECTED_ENABLE)
 523:../firmware/n32g430_std_periph_driver/src/n32g430_adc.c ****     {
 524:../firmware/n32g430_std_periph_driver/src/n32g430_adc.c ****         /* Enables the discontinuous mode on injected group channels */
 525:../firmware/n32g430_std_periph_driver/src/n32g430_adc.c ****         ADC->CTRL1 |= group_operation;
 526:../firmware/n32g430_std_periph_driver/src/n32g430_adc.c ****     }
 527:../firmware/n32g430_std_periph_driver/src/n32g430_adc.c ****     else if(group_operation == ADC_DISCMODE_INJECTED_DISABLE)
 528:../firmware/n32g430_std_periph_driver/src/n32g430_adc.c ****     {
 529:../firmware/n32g430_std_periph_driver/src/n32g430_adc.c ****         /* Disables the discontinuous mode on injected group channels */
 530:../firmware/n32g430_std_periph_driver/src/n32g430_adc.c ****         ADC->CTRL1 &= group_operation;
 531:../firmware/n32g430_std_periph_driver/src/n32g430_adc.c ****     }
 532:../firmware/n32g430_std_periph_driver/src/n32g430_adc.c **** }
 1258              		.loc 1 532 1
 1259 001c 21E0     		b	.L83
 1260              	.L79:
 517:../firmware/n32g430_std_periph_driver/src/n32g430_adc.c ****     {
 1261              		.loc 1 517 12
 1262 001e 7B68     		ldr	r3, [r7, #4]
 1263 0020 6FF40062 		mvn	r2, #2048
 1264 0024 9342     		cmp	r3, r2
 1265 0026 06D1     		bne	.L81
 520:../firmware/n32g430_std_periph_driver/src/n32g430_adc.c ****     }
 1266              		.loc 1 520 12
 1267 0028 114B     		ldr	r3, .L84
 1268 002a 5A68     		ldr	r2, [r3, #4]
 1269 002c 1049     		ldr	r1, .L84
 520:../firmware/n32g430_std_periph_driver/src/n32g430_adc.c ****     }
 1270              		.loc 1 520 20
 1271 002e 7B68     		ldr	r3, [r7, #4]
 1272 0030 1340     		ands	r3, r3, r2
 1273 0032 4B60     		str	r3, [r1, #4]
ARM GAS  C:\Users\ZShuai\AppData\Local\Temp\ccI2BPXx.s 			page 32


 1274              		.loc 1 532 1
 1275 0034 15E0     		b	.L83
 1276              	.L81:
 522:../firmware/n32g430_std_periph_driver/src/n32g430_adc.c ****     {
 1277              		.loc 1 522 12
 1278 0036 7B68     		ldr	r3, [r7, #4]
 1279 0038 B3F5805F 		cmp	r3, #4096
 1280 003c 06D1     		bne	.L82
 525:../firmware/n32g430_std_periph_driver/src/n32g430_adc.c ****     }
 1281              		.loc 1 525 12
 1282 003e 0C4B     		ldr	r3, .L84
 1283 0040 5A68     		ldr	r2, [r3, #4]
 1284 0042 0B49     		ldr	r1, .L84
 525:../firmware/n32g430_std_periph_driver/src/n32g430_adc.c ****     }
 1285              		.loc 1 525 20
 1286 0044 7B68     		ldr	r3, [r7, #4]
 1287 0046 1343     		orrs	r3, r3, r2
 1288 0048 4B60     		str	r3, [r1, #4]
 1289              		.loc 1 532 1
 1290 004a 0AE0     		b	.L83
 1291              	.L82:
 527:../firmware/n32g430_std_periph_driver/src/n32g430_adc.c ****     {
 1292              		.loc 1 527 12
 1293 004c 7B68     		ldr	r3, [r7, #4]
 1294 004e 6FF48052 		mvn	r2, #4096
 1295 0052 9342     		cmp	r3, r2
 1296 0054 05D1     		bne	.L83
 530:../firmware/n32g430_std_periph_driver/src/n32g430_adc.c ****     }
 1297              		.loc 1 530 12
 1298 0056 064B     		ldr	r3, .L84
 1299 0058 5A68     		ldr	r2, [r3, #4]
 1300 005a 0549     		ldr	r1, .L84
 530:../firmware/n32g430_std_periph_driver/src/n32g430_adc.c ****     }
 1301              		.loc 1 530 20
 1302 005c 7B68     		ldr	r3, [r7, #4]
 1303 005e 1340     		ands	r3, r3, r2
 1304 0060 4B60     		str	r3, [r1, #4]
 1305              	.L83:
 1306              		.loc 1 532 1
 1307 0062 00BF     		nop
 1308 0064 0C37     		adds	r7, r7, #12
 1309              	.LCFI98:
 1310              		.cfi_def_cfa_offset 4
 1311 0066 BD46     		mov	sp, r7
 1312              	.LCFI99:
 1313              		.cfi_def_cfa_register 13
 1314              		@ sp needed
 1315 0068 5DF8047B 		ldr	r7, [sp], #4
 1316              	.LCFI100:
 1317              		.cfi_restore 7
 1318              		.cfi_def_cfa_offset 0
 1319 006c 7047     		bx	lr
 1320              	.L85:
 1321 006e 00BF     		.align	2
 1322              	.L84:
 1323 0070 00080240 		.word	1073874944
 1324              		.cfi_endproc
ARM GAS  C:\Users\ZShuai\AppData\Local\Temp\ccI2BPXx.s 			page 33


 1325              	.LFE150:
 1327              		.section	.text.ADC_Channel_Sample_Time_Config,"ax",%progbits
 1328              		.align	1
 1329              		.global	ADC_Channel_Sample_Time_Config
 1330              		.syntax unified
 1331              		.thumb
 1332              		.thumb_func
 1334              	ADC_Channel_Sample_Time_Config:
 1335              	.LFB151:
 533:../firmware/n32g430_std_periph_driver/src/n32g430_adc.c **** 
 534:../firmware/n32g430_std_periph_driver/src/n32g430_adc.c **** /**
 535:../firmware/n32g430_std_periph_driver/src/n32g430_adc.c **** *\*\name    ADC_Channel_Sample_Time_Config.
 536:../firmware/n32g430_std_periph_driver/src/n32g430_adc.c **** *\*\fun     Configures ADC channel sample time.
 537:../firmware/n32g430_std_periph_driver/src/n32g430_adc.c **** *\*\param   channel :
 538:../firmware/n32g430_std_periph_driver/src/n32g430_adc.c **** *\*\          - ADC_CH_0
 539:../firmware/n32g430_std_periph_driver/src/n32g430_adc.c **** *\*\          - ADC_CH_1
 540:../firmware/n32g430_std_periph_driver/src/n32g430_adc.c **** *\*\          - ADC_CH_2
 541:../firmware/n32g430_std_periph_driver/src/n32g430_adc.c **** *\*\          - ADC_CH_3
 542:../firmware/n32g430_std_periph_driver/src/n32g430_adc.c **** *\*\          - ADC_CH_4
 543:../firmware/n32g430_std_periph_driver/src/n32g430_adc.c **** *\*\          - ADC_CH_5
 544:../firmware/n32g430_std_periph_driver/src/n32g430_adc.c **** *\*\          - ADC_CH_6
 545:../firmware/n32g430_std_periph_driver/src/n32g430_adc.c **** *\*\          - ADC_CH_7
 546:../firmware/n32g430_std_periph_driver/src/n32g430_adc.c **** *\*\          - ADC_CH_8
 547:../firmware/n32g430_std_periph_driver/src/n32g430_adc.c **** *\*\          - ADC_CH_9
 548:../firmware/n32g430_std_periph_driver/src/n32g430_adc.c **** *\*\          - ADC_CH_10
 549:../firmware/n32g430_std_periph_driver/src/n32g430_adc.c **** *\*\          - ADC_CH_11
 550:../firmware/n32g430_std_periph_driver/src/n32g430_adc.c **** *\*\          - ADC_CH_12
 551:../firmware/n32g430_std_periph_driver/src/n32g430_adc.c **** *\*\          - ADC_CH_13
 552:../firmware/n32g430_std_periph_driver/src/n32g430_adc.c **** *\*\          - ADC_CH_14
 553:../firmware/n32g430_std_periph_driver/src/n32g430_adc.c **** *\*\          - ADC_CH_15
 554:../firmware/n32g430_std_periph_driver/src/n32g430_adc.c **** *\*\          - ADC_CH_16
 555:../firmware/n32g430_std_periph_driver/src/n32g430_adc.c **** *\*\          - ADC_CH_17
 556:../firmware/n32g430_std_periph_driver/src/n32g430_adc.c **** *\*\          - ADC_CH_18
 557:../firmware/n32g430_std_periph_driver/src/n32g430_adc.c **** *\*\param   sample_time :
 558:../firmware/n32g430_std_periph_driver/src/n32g430_adc.c **** *\*\          - ADC_SAMP_TIME_1CYCLES5
 559:../firmware/n32g430_std_periph_driver/src/n32g430_adc.c **** *\*\          - ADC_SAMP_TIME_7CYCLES5
 560:../firmware/n32g430_std_periph_driver/src/n32g430_adc.c **** *\*\          - ADC_SAMP_TIME_13CYCLES5
 561:../firmware/n32g430_std_periph_driver/src/n32g430_adc.c **** *\*\          - ADC_SAMP_TIME_28CYCLES5
 562:../firmware/n32g430_std_periph_driver/src/n32g430_adc.c **** *\*\          - ADC_SAMP_TIME_41CYCLES5
 563:../firmware/n32g430_std_periph_driver/src/n32g430_adc.c **** *\*\          - ADC_SAMP_TIME_55CYCLES5
 564:../firmware/n32g430_std_periph_driver/src/n32g430_adc.c **** *\*\          - ADC_SAMP_TIME_71CYCLES5
 565:../firmware/n32g430_std_periph_driver/src/n32g430_adc.c **** *\*\          - ADC_SAMP_TIME_239CYCLES5
 566:../firmware/n32g430_std_periph_driver/src/n32g430_adc.c **** *\*\return  none
 567:../firmware/n32g430_std_periph_driver/src/n32g430_adc.c **** **/
 568:../firmware/n32g430_std_periph_driver/src/n32g430_adc.c **** void ADC_Channel_Sample_Time_Config(uint8_t channel, uint8_t sample_time)
 569:../firmware/n32g430_std_periph_driver/src/n32g430_adc.c **** {
 1336              		.loc 1 569 1
 1337              		.cfi_startproc
 1338              		@ args = 0, pretend = 0, frame = 16
 1339              		@ frame_needed = 1, uses_anonymous_args = 0
 1340              		@ link register save eliminated.
 1341 0000 80B4     		push	{r7}
 1342              	.LCFI101:
 1343              		.cfi_def_cfa_offset 4
 1344              		.cfi_offset 7, -4
 1345 0002 85B0     		sub	sp, sp, #20
 1346              	.LCFI102:
ARM GAS  C:\Users\ZShuai\AppData\Local\Temp\ccI2BPXx.s 			page 34


 1347              		.cfi_def_cfa_offset 24
 1348 0004 00AF     		add	r7, sp, #0
 1349              	.LCFI103:
 1350              		.cfi_def_cfa_register 7
 1351 0006 0346     		mov	r3, r0
 1352 0008 0A46     		mov	r2, r1
 1353 000a FB71     		strb	r3, [r7, #7]
 1354 000c 1346     		mov	r3, r2
 1355 000e BB71     		strb	r3, [r7, #6]
 570:../firmware/n32g430_std_periph_driver/src/n32g430_adc.c ****     uint32_t temp_value = 0;
 1356              		.loc 1 570 14
 1357 0010 0023     		movs	r3, #0
 1358 0012 FB60     		str	r3, [r7, #12]
 571:../firmware/n32g430_std_periph_driver/src/n32g430_adc.c ****     
 572:../firmware/n32g430_std_periph_driver/src/n32g430_adc.c ****     /* ADC_Channel include in ADC_Channel_[0..9] */
 573:../firmware/n32g430_std_periph_driver/src/n32g430_adc.c ****     if(channel <= ADC_CH_9)
 1359              		.loc 1 573 7
 1360 0014 FB79     		ldrb	r3, [r7, #7]	@ zero_extendqisi2
 1361 0016 092B     		cmp	r3, #9
 1362 0018 1BD8     		bhi	.L87
 574:../firmware/n32g430_std_periph_driver/src/n32g430_adc.c ****     {
 575:../firmware/n32g430_std_periph_driver/src/n32g430_adc.c ****         temp_value = channel;
 1363              		.loc 1 575 20
 1364 001a FB79     		ldrb	r3, [r7, #7]	@ zero_extendqisi2
 1365 001c FB60     		str	r3, [r7, #12]
 576:../firmware/n32g430_std_periph_driver/src/n32g430_adc.c ****         ADC->SAMPT2 &= ADC_SAMP_TIME_MASK(temp_value);
 1366              		.loc 1 576 12
 1367 001e 294B     		ldr	r3, .L91
 1368 0020 1969     		ldr	r1, [r3, #16]
 1369              		.loc 1 576 24
 1370 0022 FA68     		ldr	r2, [r7, #12]
 1371 0024 1346     		mov	r3, r2
 1372 0026 5B00     		lsls	r3, r3, #1
 1373 0028 1344     		add	r3, r3, r2
 1374 002a 0722     		movs	r2, #7
 1375 002c 02FA03F3 		lsl	r3, r2, r3
 1376 0030 DB43     		mvns	r3, r3
 1377              		.loc 1 576 12
 1378 0032 244A     		ldr	r2, .L91
 1379              		.loc 1 576 21
 1380 0034 0B40     		ands	r3, r3, r1
 1381 0036 1361     		str	r3, [r2, #16]
 577:../firmware/n32g430_std_periph_driver/src/n32g430_adc.c ****         ADC->SAMPT2 |= (uint32_t)(sample_time << temp_value * ADC_SAMP_TIME_UNIT_OFFSET);
 1382              		.loc 1 577 12
 1383 0038 224B     		ldr	r3, .L91
 1384 003a 1969     		ldr	r1, [r3, #16]
 1385              		.loc 1 577 47
 1386 003c B879     		ldrb	r0, [r7, #6]	@ zero_extendqisi2
 1387              		.loc 1 577 61
 1388 003e FA68     		ldr	r2, [r7, #12]
 1389 0040 1346     		mov	r3, r2
 1390 0042 5B00     		lsls	r3, r3, #1
 1391 0044 1344     		add	r3, r3, r2
 1392              		.loc 1 577 47
 1393 0046 00FA03F3 		lsl	r3, r0, r3
 1394              		.loc 1 577 12
 1395 004a 1E4A     		ldr	r2, .L91
ARM GAS  C:\Users\ZShuai\AppData\Local\Temp\ccI2BPXx.s 			page 35


 1396              		.loc 1 577 21
 1397 004c 0B43     		orrs	r3, r3, r1
 1398 004e 1361     		str	r3, [r2, #16]
 578:../firmware/n32g430_std_periph_driver/src/n32g430_adc.c ****     }
 579:../firmware/n32g430_std_periph_driver/src/n32g430_adc.c ****     /* ADC_Channel include in ADC_Channel_[10..17] */
 580:../firmware/n32g430_std_periph_driver/src/n32g430_adc.c ****     else if(channel <= ADC_CH_17)
 581:../firmware/n32g430_std_periph_driver/src/n32g430_adc.c ****     {
 582:../firmware/n32g430_std_periph_driver/src/n32g430_adc.c ****         temp_value = channel - ADC_CH_10;
 583:../firmware/n32g430_std_periph_driver/src/n32g430_adc.c ****         ADC->SAMPT1 &= ADC_SAMP_TIME_MASK(temp_value);
 584:../firmware/n32g430_std_periph_driver/src/n32g430_adc.c ****         ADC->SAMPT1 |= (uint32_t)(sample_time << temp_value * ADC_SAMP_TIME_UNIT_OFFSET);
 585:../firmware/n32g430_std_periph_driver/src/n32g430_adc.c ****     }
 586:../firmware/n32g430_std_periph_driver/src/n32g430_adc.c ****     /* ADC_Channel include in ADC_Channel_18 */
 587:../firmware/n32g430_std_periph_driver/src/n32g430_adc.c ****     else
 588:../firmware/n32g430_std_periph_driver/src/n32g430_adc.c ****     {
 589:../firmware/n32g430_std_periph_driver/src/n32g430_adc.c ****         ADC->SAMPT3 &= ADC_SAMP_TIME_MASK(temp_value);
 590:../firmware/n32g430_std_periph_driver/src/n32g430_adc.c ****         ADC->SAMPT3 |= (uint32_t)sample_time;
 591:../firmware/n32g430_std_periph_driver/src/n32g430_adc.c ****     }
 592:../firmware/n32g430_std_periph_driver/src/n32g430_adc.c **** }
 1399              		.loc 1 592 1
 1400 0050 32E0     		b	.L90
 1401              	.L87:
 580:../firmware/n32g430_std_periph_driver/src/n32g430_adc.c ****     {
 1402              		.loc 1 580 12
 1403 0052 FB79     		ldrb	r3, [r7, #7]	@ zero_extendqisi2
 1404 0054 112B     		cmp	r3, #17
 1405 0056 1CD8     		bhi	.L89
 582:../firmware/n32g430_std_periph_driver/src/n32g430_adc.c ****         ADC->SAMPT1 &= ADC_SAMP_TIME_MASK(temp_value);
 1406              		.loc 1 582 30
 1407 0058 FB79     		ldrb	r3, [r7, #7]	@ zero_extendqisi2
 1408 005a 0A3B     		subs	r3, r3, #10
 582:../firmware/n32g430_std_periph_driver/src/n32g430_adc.c ****         ADC->SAMPT1 &= ADC_SAMP_TIME_MASK(temp_value);
 1409              		.loc 1 582 20
 1410 005c FB60     		str	r3, [r7, #12]
 583:../firmware/n32g430_std_periph_driver/src/n32g430_adc.c ****         ADC->SAMPT1 |= (uint32_t)(sample_time << temp_value * ADC_SAMP_TIME_UNIT_OFFSET);
 1411              		.loc 1 583 12
 1412 005e 194B     		ldr	r3, .L91
 1413 0060 D968     		ldr	r1, [r3, #12]
 583:../firmware/n32g430_std_periph_driver/src/n32g430_adc.c ****         ADC->SAMPT1 |= (uint32_t)(sample_time << temp_value * ADC_SAMP_TIME_UNIT_OFFSET);
 1414              		.loc 1 583 24
 1415 0062 FA68     		ldr	r2, [r7, #12]
 1416 0064 1346     		mov	r3, r2
 1417 0066 5B00     		lsls	r3, r3, #1
 1418 0068 1344     		add	r3, r3, r2
 1419 006a 0722     		movs	r2, #7
 1420 006c 02FA03F3 		lsl	r3, r2, r3
 1421 0070 DB43     		mvns	r3, r3
 583:../firmware/n32g430_std_periph_driver/src/n32g430_adc.c ****         ADC->SAMPT1 |= (uint32_t)(sample_time << temp_value * ADC_SAMP_TIME_UNIT_OFFSET);
 1422              		.loc 1 583 12
 1423 0072 144A     		ldr	r2, .L91
 583:../firmware/n32g430_std_periph_driver/src/n32g430_adc.c ****         ADC->SAMPT1 |= (uint32_t)(sample_time << temp_value * ADC_SAMP_TIME_UNIT_OFFSET);
 1424              		.loc 1 583 21
 1425 0074 0B40     		ands	r3, r3, r1
 1426 0076 D360     		str	r3, [r2, #12]
 584:../firmware/n32g430_std_periph_driver/src/n32g430_adc.c ****     }
 1427              		.loc 1 584 12
 1428 0078 124B     		ldr	r3, .L91
 1429 007a D968     		ldr	r1, [r3, #12]
ARM GAS  C:\Users\ZShuai\AppData\Local\Temp\ccI2BPXx.s 			page 36


 584:../firmware/n32g430_std_periph_driver/src/n32g430_adc.c ****     }
 1430              		.loc 1 584 47
 1431 007c B879     		ldrb	r0, [r7, #6]	@ zero_extendqisi2
 584:../firmware/n32g430_std_periph_driver/src/n32g430_adc.c ****     }
 1432              		.loc 1 584 61
 1433 007e FA68     		ldr	r2, [r7, #12]
 1434 0080 1346     		mov	r3, r2
 1435 0082 5B00     		lsls	r3, r3, #1
 1436 0084 1344     		add	r3, r3, r2
 584:../firmware/n32g430_std_periph_driver/src/n32g430_adc.c ****     }
 1437              		.loc 1 584 47
 1438 0086 00FA03F3 		lsl	r3, r0, r3
 584:../firmware/n32g430_std_periph_driver/src/n32g430_adc.c ****     }
 1439              		.loc 1 584 12
 1440 008a 0E4A     		ldr	r2, .L91
 584:../firmware/n32g430_std_periph_driver/src/n32g430_adc.c ****     }
 1441              		.loc 1 584 21
 1442 008c 0B43     		orrs	r3, r3, r1
 1443 008e D360     		str	r3, [r2, #12]
 1444              		.loc 1 592 1
 1445 0090 12E0     		b	.L90
 1446              	.L89:
 589:../firmware/n32g430_std_periph_driver/src/n32g430_adc.c ****         ADC->SAMPT3 |= (uint32_t)sample_time;
 1447              		.loc 1 589 12
 1448 0092 0C4B     		ldr	r3, .L91
 1449 0094 D96D     		ldr	r1, [r3, #92]
 589:../firmware/n32g430_std_periph_driver/src/n32g430_adc.c ****         ADC->SAMPT3 |= (uint32_t)sample_time;
 1450              		.loc 1 589 24
 1451 0096 FA68     		ldr	r2, [r7, #12]
 1452 0098 1346     		mov	r3, r2
 1453 009a 5B00     		lsls	r3, r3, #1
 1454 009c 1344     		add	r3, r3, r2
 1455 009e 0722     		movs	r2, #7
 1456 00a0 02FA03F3 		lsl	r3, r2, r3
 1457 00a4 DB43     		mvns	r3, r3
 589:../firmware/n32g430_std_periph_driver/src/n32g430_adc.c ****         ADC->SAMPT3 |= (uint32_t)sample_time;
 1458              		.loc 1 589 12
 1459 00a6 074A     		ldr	r2, .L91
 589:../firmware/n32g430_std_periph_driver/src/n32g430_adc.c ****         ADC->SAMPT3 |= (uint32_t)sample_time;
 1460              		.loc 1 589 21
 1461 00a8 0B40     		ands	r3, r3, r1
 1462 00aa D365     		str	r3, [r2, #92]
 590:../firmware/n32g430_std_periph_driver/src/n32g430_adc.c ****     }
 1463              		.loc 1 590 12
 1464 00ac 054B     		ldr	r3, .L91
 1465 00ae DA6D     		ldr	r2, [r3, #92]
 590:../firmware/n32g430_std_periph_driver/src/n32g430_adc.c ****     }
 1466              		.loc 1 590 24
 1467 00b0 BB79     		ldrb	r3, [r7, #6]	@ zero_extendqisi2
 590:../firmware/n32g430_std_periph_driver/src/n32g430_adc.c ****     }
 1468              		.loc 1 590 12
 1469 00b2 0449     		ldr	r1, .L91
 590:../firmware/n32g430_std_periph_driver/src/n32g430_adc.c ****     }
 1470              		.loc 1 590 21
 1471 00b4 1343     		orrs	r3, r3, r2
 1472 00b6 CB65     		str	r3, [r1, #92]
 1473              	.L90:
ARM GAS  C:\Users\ZShuai\AppData\Local\Temp\ccI2BPXx.s 			page 37


 1474              		.loc 1 592 1
 1475 00b8 00BF     		nop
 1476 00ba 1437     		adds	r7, r7, #20
 1477              	.LCFI104:
 1478              		.cfi_def_cfa_offset 4
 1479 00bc BD46     		mov	sp, r7
 1480              	.LCFI105:
 1481              		.cfi_def_cfa_register 13
 1482              		@ sp needed
 1483 00be 5DF8047B 		ldr	r7, [sp], #4
 1484              	.LCFI106:
 1485              		.cfi_restore 7
 1486              		.cfi_def_cfa_offset 0
 1487 00c2 7047     		bx	lr
 1488              	.L92:
 1489              		.align	2
 1490              	.L91:
 1491 00c4 00080240 		.word	1073874944
 1492              		.cfi_endproc
 1493              	.LFE151:
 1495              		.section	.text.ADC_Regular_Sequence_Conversion_Number_Config,"ax",%progbits
 1496              		.align	1
 1497              		.global	ADC_Regular_Sequence_Conversion_Number_Config
 1498              		.syntax unified
 1499              		.thumb
 1500              		.thumb_func
 1502              	ADC_Regular_Sequence_Conversion_Number_Config:
 1503              	.LFB152:
 593:../firmware/n32g430_std_periph_driver/src/n32g430_adc.c **** 
 594:../firmware/n32g430_std_periph_driver/src/n32g430_adc.c **** /**
 595:../firmware/n32g430_std_periph_driver/src/n32g430_adc.c **** *\*\name    ADC_Regular_Sequence_Conversion_Number_Config.
 596:../firmware/n32g430_std_periph_driver/src/n32g430_adc.c **** *\*\fun     Configures ADC channel conversion number in regular sequence.
 597:../firmware/n32g430_std_periph_driver/src/n32g430_adc.c **** *\*\param   channel :
 598:../firmware/n32g430_std_periph_driver/src/n32g430_adc.c **** *\*\          - ADC_CH_0
 599:../firmware/n32g430_std_periph_driver/src/n32g430_adc.c **** *\*\          - ADC_CH_1
 600:../firmware/n32g430_std_periph_driver/src/n32g430_adc.c **** *\*\          - ADC_CH_2
 601:../firmware/n32g430_std_periph_driver/src/n32g430_adc.c **** *\*\          - ADC_CH_3
 602:../firmware/n32g430_std_periph_driver/src/n32g430_adc.c **** *\*\          - ADC_CH_4
 603:../firmware/n32g430_std_periph_driver/src/n32g430_adc.c **** *\*\          - ADC_CH_5
 604:../firmware/n32g430_std_periph_driver/src/n32g430_adc.c **** *\*\          - ADC_CH_6
 605:../firmware/n32g430_std_periph_driver/src/n32g430_adc.c **** *\*\          - ADC_CH_7
 606:../firmware/n32g430_std_periph_driver/src/n32g430_adc.c **** *\*\          - ADC_CH_8
 607:../firmware/n32g430_std_periph_driver/src/n32g430_adc.c **** *\*\          - ADC_CH_9
 608:../firmware/n32g430_std_periph_driver/src/n32g430_adc.c **** *\*\          - ADC_CH_10
 609:../firmware/n32g430_std_periph_driver/src/n32g430_adc.c **** *\*\          - ADC_CH_11
 610:../firmware/n32g430_std_periph_driver/src/n32g430_adc.c **** *\*\          - ADC_CH_12
 611:../firmware/n32g430_std_periph_driver/src/n32g430_adc.c **** *\*\          - ADC_CH_13
 612:../firmware/n32g430_std_periph_driver/src/n32g430_adc.c **** *\*\          - ADC_CH_14
 613:../firmware/n32g430_std_periph_driver/src/n32g430_adc.c **** *\*\          - ADC_CH_15
 614:../firmware/n32g430_std_periph_driver/src/n32g430_adc.c **** *\*\          - ADC_CH_16
 615:../firmware/n32g430_std_periph_driver/src/n32g430_adc.c **** *\*\          - ADC_CH_17
 616:../firmware/n32g430_std_periph_driver/src/n32g430_adc.c **** *\*\          - ADC_CH_18
 617:../firmware/n32g430_std_periph_driver/src/n32g430_adc.c **** *\*\param   number :
 618:../firmware/n32g430_std_periph_driver/src/n32g430_adc.c **** *\*\          - ADC_REGULAR_NUMBER_1
 619:../firmware/n32g430_std_periph_driver/src/n32g430_adc.c **** *\*\          - ADC_REGULAR_NUMBER_2
 620:../firmware/n32g430_std_periph_driver/src/n32g430_adc.c **** *\*\          - ADC_REGULAR_NUMBER_3
 621:../firmware/n32g430_std_periph_driver/src/n32g430_adc.c **** *\*\          - ADC_REGULAR_NUMBER_4
ARM GAS  C:\Users\ZShuai\AppData\Local\Temp\ccI2BPXx.s 			page 38


 622:../firmware/n32g430_std_periph_driver/src/n32g430_adc.c **** *\*\          - ADC_REGULAR_NUMBER_5
 623:../firmware/n32g430_std_periph_driver/src/n32g430_adc.c **** *\*\          - ADC_REGULAR_NUMBER_6
 624:../firmware/n32g430_std_periph_driver/src/n32g430_adc.c **** *\*\          - ADC_REGULAR_NUMBER_7
 625:../firmware/n32g430_std_periph_driver/src/n32g430_adc.c **** *\*\          - ADC_REGULAR_NUMBER_8
 626:../firmware/n32g430_std_periph_driver/src/n32g430_adc.c **** *\*\          - ADC_REGULAR_NUMBER_9
 627:../firmware/n32g430_std_periph_driver/src/n32g430_adc.c **** *\*\          - ADC_REGULAR_NUMBER_10
 628:../firmware/n32g430_std_periph_driver/src/n32g430_adc.c **** *\*\          - ADC_REGULAR_NUMBER_11
 629:../firmware/n32g430_std_periph_driver/src/n32g430_adc.c **** *\*\          - ADC_REGULAR_NUMBER_12
 630:../firmware/n32g430_std_periph_driver/src/n32g430_adc.c **** *\*\          - ADC_REGULAR_NUMBER_13
 631:../firmware/n32g430_std_periph_driver/src/n32g430_adc.c **** *\*\          - ADC_REGULAR_NUMBER_14
 632:../firmware/n32g430_std_periph_driver/src/n32g430_adc.c **** *\*\          - ADC_REGULAR_NUMBER_15
 633:../firmware/n32g430_std_periph_driver/src/n32g430_adc.c **** *\*\          - ADC_REGULAR_NUMBER_16
 634:../firmware/n32g430_std_periph_driver/src/n32g430_adc.c **** *\*\return  none
 635:../firmware/n32g430_std_periph_driver/src/n32g430_adc.c **** **/
 636:../firmware/n32g430_std_periph_driver/src/n32g430_adc.c **** void ADC_Regular_Sequence_Conversion_Number_Config(uint8_t channel, uint8_t number)
 637:../firmware/n32g430_std_periph_driver/src/n32g430_adc.c **** {
 1504              		.loc 1 637 1
 1505              		.cfi_startproc
 1506              		@ args = 0, pretend = 0, frame = 8
 1507              		@ frame_needed = 1, uses_anonymous_args = 0
 1508              		@ link register save eliminated.
 1509 0000 80B4     		push	{r7}
 1510              	.LCFI107:
 1511              		.cfi_def_cfa_offset 4
 1512              		.cfi_offset 7, -4
 1513 0002 83B0     		sub	sp, sp, #12
 1514              	.LCFI108:
 1515              		.cfi_def_cfa_offset 16
 1516 0004 00AF     		add	r7, sp, #0
 1517              	.LCFI109:
 1518              		.cfi_def_cfa_register 7
 1519 0006 0346     		mov	r3, r0
 1520 0008 0A46     		mov	r2, r1
 1521 000a FB71     		strb	r3, [r7, #7]
 1522 000c 1346     		mov	r3, r2
 1523 000e BB71     		strb	r3, [r7, #6]
 638:../firmware/n32g430_std_periph_driver/src/n32g430_adc.c ****     /* ADC regular sequence register3 configures channel1 to channel6 */
 639:../firmware/n32g430_std_periph_driver/src/n32g430_adc.c ****     if(number <= ADC_REG_SEQ_NUM_OFFSET1)
 1524              		.loc 1 639 7
 1525 0010 BB79     		ldrb	r3, [r7, #6]	@ zero_extendqisi2
 1526 0012 052B     		cmp	r3, #5
 1527 0014 19D8     		bhi	.L94
 640:../firmware/n32g430_std_periph_driver/src/n32g430_adc.c ****     {
 641:../firmware/n32g430_std_periph_driver/src/n32g430_adc.c ****         ADC->RSEQ3 &= ADC_REGULAR_NUMBER_MASK(number);
 1528              		.loc 1 641 12
 1529 0016 2E4B     		ldr	r3, .L98
 1530 0018 596B     		ldr	r1, [r3, #52]
 1531              		.loc 1 641 23
 1532 001a BA79     		ldrb	r2, [r7, #6]	@ zero_extendqisi2
 1533 001c 1346     		mov	r3, r2
 1534 001e 9B00     		lsls	r3, r3, #2
 1535 0020 1344     		add	r3, r3, r2
 1536 0022 1F22     		movs	r2, #31
 1537 0024 02FA03F3 		lsl	r3, r2, r3
 1538 0028 DB43     		mvns	r3, r3
 1539              		.loc 1 641 12
 1540 002a 294A     		ldr	r2, .L98
ARM GAS  C:\Users\ZShuai\AppData\Local\Temp\ccI2BPXx.s 			page 39


 1541              		.loc 1 641 20
 1542 002c 0B40     		ands	r3, r3, r1
 1543 002e 5363     		str	r3, [r2, #52]
 642:../firmware/n32g430_std_periph_driver/src/n32g430_adc.c ****         ADC->RSEQ3 |= ADC_REGULAR_NUMBER_SET(channel, number);
 1544              		.loc 1 642 12
 1545 0030 274B     		ldr	r3, .L98
 1546 0032 596B     		ldr	r1, [r3, #52]
 1547              		.loc 1 642 23
 1548 0034 F879     		ldrb	r0, [r7, #7]	@ zero_extendqisi2
 1549 0036 BA79     		ldrb	r2, [r7, #6]	@ zero_extendqisi2
 1550 0038 1346     		mov	r3, r2
 1551 003a 9B00     		lsls	r3, r3, #2
 1552 003c 1344     		add	r3, r3, r2
 1553 003e 00FA03F3 		lsl	r3, r0, r3
 1554              		.loc 1 642 12
 1555 0042 234A     		ldr	r2, .L98
 1556              		.loc 1 642 20
 1557 0044 0B43     		orrs	r3, r3, r1
 1558 0046 5363     		str	r3, [r2, #52]
 643:../firmware/n32g430_std_periph_driver/src/n32g430_adc.c ****     }
 644:../firmware/n32g430_std_periph_driver/src/n32g430_adc.c ****     /* ADC regular sequence register2 configures channel7 to channel12 */
 645:../firmware/n32g430_std_periph_driver/src/n32g430_adc.c ****     else if(number <= ADC_REG_SEQ_NUM_OFFSET2)
 646:../firmware/n32g430_std_periph_driver/src/n32g430_adc.c ****     {
 647:../firmware/n32g430_std_periph_driver/src/n32g430_adc.c ****         ADC->RSEQ2 &= ADC_REGULAR_NUMBER_MASK((number - ADC_REG_SEQ_NUM_OFFSET3));
 648:../firmware/n32g430_std_periph_driver/src/n32g430_adc.c ****         ADC->RSEQ2 |= ADC_REGULAR_NUMBER_SET(channel, (number - ADC_REG_SEQ_NUM_OFFSET3));
 649:../firmware/n32g430_std_periph_driver/src/n32g430_adc.c ****     }
 650:../firmware/n32g430_std_periph_driver/src/n32g430_adc.c ****     /* ADC regular sequence register1 configures channel13 to channel16 */
 651:../firmware/n32g430_std_periph_driver/src/n32g430_adc.c ****     else
 652:../firmware/n32g430_std_periph_driver/src/n32g430_adc.c ****     {
 653:../firmware/n32g430_std_periph_driver/src/n32g430_adc.c ****         ADC->RSEQ1 &= ADC_REGULAR_NUMBER_MASK((number - ADC_REG_SEQ_NUM_OFFSET4));
 654:../firmware/n32g430_std_periph_driver/src/n32g430_adc.c ****         ADC->RSEQ1 |= ADC_REGULAR_NUMBER_SET(channel, (number - ADC_REG_SEQ_NUM_OFFSET4));
 655:../firmware/n32g430_std_periph_driver/src/n32g430_adc.c ****     }
 656:../firmware/n32g430_std_periph_driver/src/n32g430_adc.c **** }
 1559              		.loc 1 656 1
 1560 0048 3BE0     		b	.L97
 1561              	.L94:
 645:../firmware/n32g430_std_periph_driver/src/n32g430_adc.c ****     {
 1562              		.loc 1 645 12
 1563 004a BB79     		ldrb	r3, [r7, #6]	@ zero_extendqisi2
 1564 004c 0B2B     		cmp	r3, #11
 1565 004e 1BD8     		bhi	.L96
 647:../firmware/n32g430_std_periph_driver/src/n32g430_adc.c ****         ADC->RSEQ2 |= ADC_REGULAR_NUMBER_SET(channel, (number - ADC_REG_SEQ_NUM_OFFSET3));
 1566              		.loc 1 647 12
 1567 0050 1F4B     		ldr	r3, .L98
 1568 0052 196B     		ldr	r1, [r3, #48]
 647:../firmware/n32g430_std_periph_driver/src/n32g430_adc.c ****         ADC->RSEQ2 |= ADC_REGULAR_NUMBER_SET(channel, (number - ADC_REG_SEQ_NUM_OFFSET3));
 1569              		.loc 1 647 23
 1570 0054 BB79     		ldrb	r3, [r7, #6]	@ zero_extendqisi2
 1571 0056 9A1F     		subs	r2, r3, #6
 1572 0058 1346     		mov	r3, r2
 1573 005a 9B00     		lsls	r3, r3, #2
 1574 005c 1344     		add	r3, r3, r2
 1575 005e 1F22     		movs	r2, #31
 1576 0060 02FA03F3 		lsl	r3, r2, r3
 1577 0064 DB43     		mvns	r3, r3
 647:../firmware/n32g430_std_periph_driver/src/n32g430_adc.c ****         ADC->RSEQ2 |= ADC_REGULAR_NUMBER_SET(channel, (number - ADC_REG_SEQ_NUM_OFFSET3));
 1578              		.loc 1 647 12
ARM GAS  C:\Users\ZShuai\AppData\Local\Temp\ccI2BPXx.s 			page 40


 1579 0066 1A4A     		ldr	r2, .L98
 647:../firmware/n32g430_std_periph_driver/src/n32g430_adc.c ****         ADC->RSEQ2 |= ADC_REGULAR_NUMBER_SET(channel, (number - ADC_REG_SEQ_NUM_OFFSET3));
 1580              		.loc 1 647 20
 1581 0068 0B40     		ands	r3, r3, r1
 1582 006a 1363     		str	r3, [r2, #48]
 648:../firmware/n32g430_std_periph_driver/src/n32g430_adc.c ****     }
 1583              		.loc 1 648 12
 1584 006c 184B     		ldr	r3, .L98
 1585 006e 196B     		ldr	r1, [r3, #48]
 648:../firmware/n32g430_std_periph_driver/src/n32g430_adc.c ****     }
 1586              		.loc 1 648 23
 1587 0070 F879     		ldrb	r0, [r7, #7]	@ zero_extendqisi2
 1588 0072 BB79     		ldrb	r3, [r7, #6]	@ zero_extendqisi2
 1589 0074 9A1F     		subs	r2, r3, #6
 1590 0076 1346     		mov	r3, r2
 1591 0078 9B00     		lsls	r3, r3, #2
 1592 007a 1344     		add	r3, r3, r2
 1593 007c 00FA03F3 		lsl	r3, r0, r3
 648:../firmware/n32g430_std_periph_driver/src/n32g430_adc.c ****     }
 1594              		.loc 1 648 12
 1595 0080 134A     		ldr	r2, .L98
 648:../firmware/n32g430_std_periph_driver/src/n32g430_adc.c ****     }
 1596              		.loc 1 648 20
 1597 0082 0B43     		orrs	r3, r3, r1
 1598 0084 1363     		str	r3, [r2, #48]
 1599              		.loc 1 656 1
 1600 0086 1CE0     		b	.L97
 1601              	.L96:
 653:../firmware/n32g430_std_periph_driver/src/n32g430_adc.c ****         ADC->RSEQ1 |= ADC_REGULAR_NUMBER_SET(channel, (number - ADC_REG_SEQ_NUM_OFFSET4));
 1602              		.loc 1 653 12
 1603 0088 114B     		ldr	r3, .L98
 1604 008a D96A     		ldr	r1, [r3, #44]
 653:../firmware/n32g430_std_periph_driver/src/n32g430_adc.c ****         ADC->RSEQ1 |= ADC_REGULAR_NUMBER_SET(channel, (number - ADC_REG_SEQ_NUM_OFFSET4));
 1605              		.loc 1 653 23
 1606 008c BB79     		ldrb	r3, [r7, #6]	@ zero_extendqisi2
 1607 008e A3F10C02 		sub	r2, r3, #12
 1608 0092 1346     		mov	r3, r2
 1609 0094 9B00     		lsls	r3, r3, #2
 1610 0096 1344     		add	r3, r3, r2
 1611 0098 1F22     		movs	r2, #31
 1612 009a 02FA03F3 		lsl	r3, r2, r3
 1613 009e DB43     		mvns	r3, r3
 653:../firmware/n32g430_std_periph_driver/src/n32g430_adc.c ****         ADC->RSEQ1 |= ADC_REGULAR_NUMBER_SET(channel, (number - ADC_REG_SEQ_NUM_OFFSET4));
 1614              		.loc 1 653 12
 1615 00a0 0B4A     		ldr	r2, .L98
 653:../firmware/n32g430_std_periph_driver/src/n32g430_adc.c ****         ADC->RSEQ1 |= ADC_REGULAR_NUMBER_SET(channel, (number - ADC_REG_SEQ_NUM_OFFSET4));
 1616              		.loc 1 653 20
 1617 00a2 0B40     		ands	r3, r3, r1
 1618 00a4 D362     		str	r3, [r2, #44]
 654:../firmware/n32g430_std_periph_driver/src/n32g430_adc.c ****     }
 1619              		.loc 1 654 12
 1620 00a6 0A4B     		ldr	r3, .L98
 1621 00a8 D96A     		ldr	r1, [r3, #44]
 654:../firmware/n32g430_std_periph_driver/src/n32g430_adc.c ****     }
 1622              		.loc 1 654 23
 1623 00aa F879     		ldrb	r0, [r7, #7]	@ zero_extendqisi2
 1624 00ac BB79     		ldrb	r3, [r7, #6]	@ zero_extendqisi2
ARM GAS  C:\Users\ZShuai\AppData\Local\Temp\ccI2BPXx.s 			page 41


 1625 00ae A3F10C02 		sub	r2, r3, #12
 1626 00b2 1346     		mov	r3, r2
 1627 00b4 9B00     		lsls	r3, r3, #2
 1628 00b6 1344     		add	r3, r3, r2
 1629 00b8 00FA03F3 		lsl	r3, r0, r3
 654:../firmware/n32g430_std_periph_driver/src/n32g430_adc.c ****     }
 1630              		.loc 1 654 12
 1631 00bc 044A     		ldr	r2, .L98
 654:../firmware/n32g430_std_periph_driver/src/n32g430_adc.c ****     }
 1632              		.loc 1 654 20
 1633 00be 0B43     		orrs	r3, r3, r1
 1634 00c0 D362     		str	r3, [r2, #44]
 1635              	.L97:
 1636              		.loc 1 656 1
 1637 00c2 00BF     		nop
 1638 00c4 0C37     		adds	r7, r7, #12
 1639              	.LCFI110:
 1640              		.cfi_def_cfa_offset 4
 1641 00c6 BD46     		mov	sp, r7
 1642              	.LCFI111:
 1643              		.cfi_def_cfa_register 13
 1644              		@ sp needed
 1645 00c8 5DF8047B 		ldr	r7, [sp], #4
 1646              	.LCFI112:
 1647              		.cfi_restore 7
 1648              		.cfi_def_cfa_offset 0
 1649 00cc 7047     		bx	lr
 1650              	.L99:
 1651 00ce 00BF     		.align	2
 1652              	.L98:
 1653 00d0 00080240 		.word	1073874944
 1654              		.cfi_endproc
 1655              	.LFE152:
 1657              		.section	.text.ADC_External_Trigger_Conversion_Config,"ax",%progbits
 1658              		.align	1
 1659              		.global	ADC_External_Trigger_Conversion_Config
 1660              		.syntax unified
 1661              		.thumb
 1662              		.thumb_func
 1664              	ADC_External_Trigger_Conversion_Config:
 1665              	.LFB153:
 657:../firmware/n32g430_std_periph_driver/src/n32g430_adc.c **** 
 658:../firmware/n32g430_std_periph_driver/src/n32g430_adc.c **** /**
 659:../firmware/n32g430_std_periph_driver/src/n32g430_adc.c **** *\*\name    ADC_External_Trigger_Conversion_Config.
 660:../firmware/n32g430_std_periph_driver/src/n32g430_adc.c **** *\*\fun     ADC conversion through external trigger enable.
 661:../firmware/n32g430_std_periph_driver/src/n32g430_adc.c **** *\*\param   group_operation :
 662:../firmware/n32g430_std_periph_driver/src/n32g430_adc.c **** *\*\          - ADC_EXTTRIGCONV_REGULAR_ENABLE
 663:../firmware/n32g430_std_periph_driver/src/n32g430_adc.c **** *\*\          - ADC_EXTTRIGCONV_REGULAR_DISABLE
 664:../firmware/n32g430_std_periph_driver/src/n32g430_adc.c **** *\*\          - ADC_EXTTRIGCONV_INJECTED_ENABLE
 665:../firmware/n32g430_std_periph_driver/src/n32g430_adc.c **** *\*\          - ADC_EXTTRIGCONV_INJECTED_DISABLE
 666:../firmware/n32g430_std_periph_driver/src/n32g430_adc.c **** *\*\return  none
 667:../firmware/n32g430_std_periph_driver/src/n32g430_adc.c **** **/
 668:../firmware/n32g430_std_periph_driver/src/n32g430_adc.c **** void ADC_External_Trigger_Conversion_Config(uint32_t group_operation)
 669:../firmware/n32g430_std_periph_driver/src/n32g430_adc.c **** {
 1666              		.loc 1 669 1
 1667              		.cfi_startproc
 1668              		@ args = 0, pretend = 0, frame = 8
ARM GAS  C:\Users\ZShuai\AppData\Local\Temp\ccI2BPXx.s 			page 42


 1669              		@ frame_needed = 1, uses_anonymous_args = 0
 1670              		@ link register save eliminated.
 1671 0000 80B4     		push	{r7}
 1672              	.LCFI113:
 1673              		.cfi_def_cfa_offset 4
 1674              		.cfi_offset 7, -4
 1675 0002 83B0     		sub	sp, sp, #12
 1676              	.LCFI114:
 1677              		.cfi_def_cfa_offset 16
 1678 0004 00AF     		add	r7, sp, #0
 1679              	.LCFI115:
 1680              		.cfi_def_cfa_register 7
 1681 0006 7860     		str	r0, [r7, #4]
 670:../firmware/n32g430_std_periph_driver/src/n32g430_adc.c ****     if(group_operation == ADC_EXTTRIGCONV_REGULAR_ENABLE)
 1682              		.loc 1 670 7
 1683 0008 7B68     		ldr	r3, [r7, #4]
 1684 000a B3F5801F 		cmp	r3, #1048576
 1685 000e 06D1     		bne	.L101
 671:../firmware/n32g430_std_periph_driver/src/n32g430_adc.c ****     {
 672:../firmware/n32g430_std_periph_driver/src/n32g430_adc.c ****         /* Enable ADC regular group channels conversion on external event */
 673:../firmware/n32g430_std_periph_driver/src/n32g430_adc.c ****         ADC->CTRL2 |= group_operation;
 1686              		.loc 1 673 12
 1687 0010 174B     		ldr	r3, .L106
 1688 0012 9A68     		ldr	r2, [r3, #8]
 1689 0014 1649     		ldr	r1, .L106
 1690              		.loc 1 673 20
 1691 0016 7B68     		ldr	r3, [r7, #4]
 1692 0018 1343     		orrs	r3, r3, r2
 1693 001a 8B60     		str	r3, [r1, #8]
 674:../firmware/n32g430_std_periph_driver/src/n32g430_adc.c ****     }
 675:../firmware/n32g430_std_periph_driver/src/n32g430_adc.c ****     else if(group_operation == ADC_EXTTRIGCONV_REGULAR_DISABLE)
 676:../firmware/n32g430_std_periph_driver/src/n32g430_adc.c ****     {
 677:../firmware/n32g430_std_periph_driver/src/n32g430_adc.c ****         /* Disables ADC regular group channels conversion on external event */
 678:../firmware/n32g430_std_periph_driver/src/n32g430_adc.c ****         ADC->CTRL2 &= group_operation;
 679:../firmware/n32g430_std_periph_driver/src/n32g430_adc.c ****     }
 680:../firmware/n32g430_std_periph_driver/src/n32g430_adc.c ****     else if(group_operation == ADC_EXTTRIGCONV_INJECTED_ENABLE)
 681:../firmware/n32g430_std_periph_driver/src/n32g430_adc.c ****     {
 682:../firmware/n32g430_std_periph_driver/src/n32g430_adc.c ****         /* Enables ADC injected group channels conversion on external event */
 683:../firmware/n32g430_std_periph_driver/src/n32g430_adc.c ****         ADC->CTRL2 |= group_operation;
 684:../firmware/n32g430_std_periph_driver/src/n32g430_adc.c ****     }
 685:../firmware/n32g430_std_periph_driver/src/n32g430_adc.c ****     else if(group_operation == ADC_EXTTRIGCONV_INJECTED_DISABLE)
 686:../firmware/n32g430_std_periph_driver/src/n32g430_adc.c ****     {
 687:../firmware/n32g430_std_periph_driver/src/n32g430_adc.c ****         /* Disables ADC injected group channels conversion on external event */
 688:../firmware/n32g430_std_periph_driver/src/n32g430_adc.c ****         ADC->CTRL2 &= group_operation;
 689:../firmware/n32g430_std_periph_driver/src/n32g430_adc.c ****     }
 690:../firmware/n32g430_std_periph_driver/src/n32g430_adc.c **** }
 1694              		.loc 1 690 1
 1695 001c 21E0     		b	.L105
 1696              	.L101:
 675:../firmware/n32g430_std_periph_driver/src/n32g430_adc.c ****     {
 1697              		.loc 1 675 12
 1698 001e 7B68     		ldr	r3, [r7, #4]
 1699 0020 6FF48012 		mvn	r2, #1048576
 1700 0024 9342     		cmp	r3, r2
 1701 0026 06D1     		bne	.L103
 678:../firmware/n32g430_std_periph_driver/src/n32g430_adc.c ****     }
 1702              		.loc 1 678 12
ARM GAS  C:\Users\ZShuai\AppData\Local\Temp\ccI2BPXx.s 			page 43


 1703 0028 114B     		ldr	r3, .L106
 1704 002a 9A68     		ldr	r2, [r3, #8]
 1705 002c 1049     		ldr	r1, .L106
 678:../firmware/n32g430_std_periph_driver/src/n32g430_adc.c ****     }
 1706              		.loc 1 678 20
 1707 002e 7B68     		ldr	r3, [r7, #4]
 1708 0030 1340     		ands	r3, r3, r2
 1709 0032 8B60     		str	r3, [r1, #8]
 1710              		.loc 1 690 1
 1711 0034 15E0     		b	.L105
 1712              	.L103:
 680:../firmware/n32g430_std_periph_driver/src/n32g430_adc.c ****     {
 1713              		.loc 1 680 12
 1714 0036 7B68     		ldr	r3, [r7, #4]
 1715 0038 B3F5004F 		cmp	r3, #32768
 1716 003c 06D1     		bne	.L104
 683:../firmware/n32g430_std_periph_driver/src/n32g430_adc.c ****     }
 1717              		.loc 1 683 12
 1718 003e 0C4B     		ldr	r3, .L106
 1719 0040 9A68     		ldr	r2, [r3, #8]
 1720 0042 0B49     		ldr	r1, .L106
 683:../firmware/n32g430_std_periph_driver/src/n32g430_adc.c ****     }
 1721              		.loc 1 683 20
 1722 0044 7B68     		ldr	r3, [r7, #4]
 1723 0046 1343     		orrs	r3, r3, r2
 1724 0048 8B60     		str	r3, [r1, #8]
 1725              		.loc 1 690 1
 1726 004a 0AE0     		b	.L105
 1727              	.L104:
 685:../firmware/n32g430_std_periph_driver/src/n32g430_adc.c ****     {
 1728              		.loc 1 685 12
 1729 004c 7B68     		ldr	r3, [r7, #4]
 1730 004e 6FF40042 		mvn	r2, #32768
 1731 0052 9342     		cmp	r3, r2
 1732 0054 05D1     		bne	.L105
 688:../firmware/n32g430_std_periph_driver/src/n32g430_adc.c ****     }
 1733              		.loc 1 688 12
 1734 0056 064B     		ldr	r3, .L106
 1735 0058 9A68     		ldr	r2, [r3, #8]
 1736 005a 0549     		ldr	r1, .L106
 688:../firmware/n32g430_std_periph_driver/src/n32g430_adc.c ****     }
 1737              		.loc 1 688 20
 1738 005c 7B68     		ldr	r3, [r7, #4]
 1739 005e 1340     		ands	r3, r3, r2
 1740 0060 8B60     		str	r3, [r1, #8]
 1741              	.L105:
 1742              		.loc 1 690 1
 1743 0062 00BF     		nop
 1744 0064 0C37     		adds	r7, r7, #12
 1745              	.LCFI116:
 1746              		.cfi_def_cfa_offset 4
 1747 0066 BD46     		mov	sp, r7
 1748              	.LCFI117:
 1749              		.cfi_def_cfa_register 13
 1750              		@ sp needed
 1751 0068 5DF8047B 		ldr	r7, [sp], #4
 1752              	.LCFI118:
ARM GAS  C:\Users\ZShuai\AppData\Local\Temp\ccI2BPXx.s 			page 44


 1753              		.cfi_restore 7
 1754              		.cfi_def_cfa_offset 0
 1755 006c 7047     		bx	lr
 1756              	.L107:
 1757 006e 00BF     		.align	2
 1758              	.L106:
 1759 0070 00080240 		.word	1073874944
 1760              		.cfi_endproc
 1761              	.LFE153:
 1763              		.section	.text.ADC_Regular_Group_Conversion_Data_Get,"ax",%progbits
 1764              		.align	1
 1765              		.global	ADC_Regular_Group_Conversion_Data_Get
 1766              		.syntax unified
 1767              		.thumb
 1768              		.thumb_func
 1770              	ADC_Regular_Group_Conversion_Data_Get:
 1771              	.LFB154:
 691:../firmware/n32g430_std_periph_driver/src/n32g430_adc.c **** 
 692:../firmware/n32g430_std_periph_driver/src/n32g430_adc.c **** /**
 693:../firmware/n32g430_std_periph_driver/src/n32g430_adc.c **** *\*\name    ADC_Regular_Group_Conversion_Data_Get.
 694:../firmware/n32g430_std_periph_driver/src/n32g430_adc.c **** *\*\fun     Get ADC regular group conversion data.
 695:../firmware/n32g430_std_periph_driver/src/n32g430_adc.c **** *\*\return  ADC regular group conversion data.
 696:../firmware/n32g430_std_periph_driver/src/n32g430_adc.c **** **/
 697:../firmware/n32g430_std_periph_driver/src/n32g430_adc.c **** uint16_t ADC_Regular_Group_Conversion_Data_Get(void)
 698:../firmware/n32g430_std_periph_driver/src/n32g430_adc.c **** {
 1772              		.loc 1 698 1
 1773              		.cfi_startproc
 1774              		@ args = 0, pretend = 0, frame = 0
 1775              		@ frame_needed = 1, uses_anonymous_args = 0
 1776              		@ link register save eliminated.
 1777 0000 80B4     		push	{r7}
 1778              	.LCFI119:
 1779              		.cfi_def_cfa_offset 4
 1780              		.cfi_offset 7, -4
 1781 0002 00AF     		add	r7, sp, #0
 1782              	.LCFI120:
 1783              		.cfi_def_cfa_register 7
 699:../firmware/n32g430_std_periph_driver/src/n32g430_adc.c ****     /* Return the conversion value */
 700:../firmware/n32g430_std_periph_driver/src/n32g430_adc.c ****     return (uint16_t)ADC->DAT;
 1784              		.loc 1 700 25
 1785 0004 034B     		ldr	r3, .L110
 1786 0006 DB6C     		ldr	r3, [r3, #76]
 1787              		.loc 1 700 12
 1788 0008 9BB2     		uxth	r3, r3
 701:../firmware/n32g430_std_periph_driver/src/n32g430_adc.c **** }
 1789              		.loc 1 701 1
 1790 000a 1846     		mov	r0, r3
 1791 000c BD46     		mov	sp, r7
 1792              	.LCFI121:
 1793              		.cfi_def_cfa_register 13
 1794              		@ sp needed
 1795 000e 5DF8047B 		ldr	r7, [sp], #4
 1796              	.LCFI122:
 1797              		.cfi_restore 7
 1798              		.cfi_def_cfa_offset 0
 1799 0012 7047     		bx	lr
 1800              	.L111:
ARM GAS  C:\Users\ZShuai\AppData\Local\Temp\ccI2BPXx.s 			page 45


 1801              		.align	2
 1802              	.L110:
 1803 0014 00080240 		.word	1073874944
 1804              		.cfi_endproc
 1805              	.LFE154:
 1807              		.section	.text.ADC_Injected_Group_Autoconversion_Enable,"ax",%progbits
 1808              		.align	1
 1809              		.global	ADC_Injected_Group_Autoconversion_Enable
 1810              		.syntax unified
 1811              		.thumb
 1812              		.thumb_func
 1814              	ADC_Injected_Group_Autoconversion_Enable:
 1815              	.LFB155:
 702:../firmware/n32g430_std_periph_driver/src/n32g430_adc.c **** 
 703:../firmware/n32g430_std_periph_driver/src/n32g430_adc.c **** /**
 704:../firmware/n32g430_std_periph_driver/src/n32g430_adc.c **** *\*\name    ADC_Injected_Group_Autoconversion_Enable.
 705:../firmware/n32g430_std_periph_driver/src/n32g430_adc.c **** *\*\fun     Enable ADC injected group auto conversion mode.
 706:../firmware/n32g430_std_periph_driver/src/n32g430_adc.c **** *\*\return  none
 707:../firmware/n32g430_std_periph_driver/src/n32g430_adc.c **** **/
 708:../firmware/n32g430_std_periph_driver/src/n32g430_adc.c **** void ADC_Injected_Group_Autoconversion_Enable(void)
 709:../firmware/n32g430_std_periph_driver/src/n32g430_adc.c **** {
 1816              		.loc 1 709 1
 1817              		.cfi_startproc
 1818              		@ args = 0, pretend = 0, frame = 0
 1819              		@ frame_needed = 1, uses_anonymous_args = 0
 1820              		@ link register save eliminated.
 1821 0000 80B4     		push	{r7}
 1822              	.LCFI123:
 1823              		.cfi_def_cfa_offset 4
 1824              		.cfi_offset 7, -4
 1825 0002 00AF     		add	r7, sp, #0
 1826              	.LCFI124:
 1827              		.cfi_def_cfa_register 7
 710:../firmware/n32g430_std_periph_driver/src/n32g430_adc.c ****     /* Set the ADC_CTRL1 AUTOJC bit to enable ADC injected group auto conversion mode */
 711:../firmware/n32g430_std_periph_driver/src/n32g430_adc.c ****     ADC->CTRL1 |= ADC_INJECTED_AUTOCONV_ENABLE;
 1828              		.loc 1 711 8
 1829 0004 054B     		ldr	r3, .L113
 1830 0006 5B68     		ldr	r3, [r3, #4]
 1831 0008 044A     		ldr	r2, .L113
 1832              		.loc 1 711 16
 1833 000a 43F48063 		orr	r3, r3, #1024
 1834 000e 5360     		str	r3, [r2, #4]
 712:../firmware/n32g430_std_periph_driver/src/n32g430_adc.c **** }
 1835              		.loc 1 712 1
 1836 0010 00BF     		nop
 1837 0012 BD46     		mov	sp, r7
 1838              	.LCFI125:
 1839              		.cfi_def_cfa_register 13
 1840              		@ sp needed
 1841 0014 5DF8047B 		ldr	r7, [sp], #4
 1842              	.LCFI126:
 1843              		.cfi_restore 7
 1844              		.cfi_def_cfa_offset 0
 1845 0018 7047     		bx	lr
 1846              	.L114:
 1847 001a 00BF     		.align	2
 1848              	.L113:
ARM GAS  C:\Users\ZShuai\AppData\Local\Temp\ccI2BPXx.s 			page 46


 1849 001c 00080240 		.word	1073874944
 1850              		.cfi_endproc
 1851              	.LFE155:
 1853              		.section	.text.ADC_Injected_Group_Autoconversion_Disable,"ax",%progbits
 1854              		.align	1
 1855              		.global	ADC_Injected_Group_Autoconversion_Disable
 1856              		.syntax unified
 1857              		.thumb
 1858              		.thumb_func
 1860              	ADC_Injected_Group_Autoconversion_Disable:
 1861              	.LFB156:
 713:../firmware/n32g430_std_periph_driver/src/n32g430_adc.c **** 
 714:../firmware/n32g430_std_periph_driver/src/n32g430_adc.c **** /**
 715:../firmware/n32g430_std_periph_driver/src/n32g430_adc.c **** *\*\name    ADC_Injected_Group_Autoconversion_Disable.
 716:../firmware/n32g430_std_periph_driver/src/n32g430_adc.c **** *\*\fun     Disable ADC injected group auto conversion mode.
 717:../firmware/n32g430_std_periph_driver/src/n32g430_adc.c **** *\*\return  none
 718:../firmware/n32g430_std_periph_driver/src/n32g430_adc.c **** **/
 719:../firmware/n32g430_std_periph_driver/src/n32g430_adc.c **** void ADC_Injected_Group_Autoconversion_Disable(void)
 720:../firmware/n32g430_std_periph_driver/src/n32g430_adc.c **** {
 1862              		.loc 1 720 1
 1863              		.cfi_startproc
 1864              		@ args = 0, pretend = 0, frame = 0
 1865              		@ frame_needed = 1, uses_anonymous_args = 0
 1866              		@ link register save eliminated.
 1867 0000 80B4     		push	{r7}
 1868              	.LCFI127:
 1869              		.cfi_def_cfa_offset 4
 1870              		.cfi_offset 7, -4
 1871 0002 00AF     		add	r7, sp, #0
 1872              	.LCFI128:
 1873              		.cfi_def_cfa_register 7
 721:../firmware/n32g430_std_periph_driver/src/n32g430_adc.c ****     /* Clean the ADC_CTRL1 AUTOJC bit to disable ADC injected group auto conversion mode */
 722:../firmware/n32g430_std_periph_driver/src/n32g430_adc.c ****     ADC->CTRL1 &= ADC_INJECTED_AUTOCONV_DISABLE;
 1874              		.loc 1 722 8
 1875 0004 054B     		ldr	r3, .L116
 1876 0006 5B68     		ldr	r3, [r3, #4]
 1877 0008 044A     		ldr	r2, .L116
 1878              		.loc 1 722 16
 1879 000a 23F48063 		bic	r3, r3, #1024
 1880 000e 5360     		str	r3, [r2, #4]
 723:../firmware/n32g430_std_periph_driver/src/n32g430_adc.c **** }
 1881              		.loc 1 723 1
 1882 0010 00BF     		nop
 1883 0012 BD46     		mov	sp, r7
 1884              	.LCFI129:
 1885              		.cfi_def_cfa_register 13
 1886              		@ sp needed
 1887 0014 5DF8047B 		ldr	r7, [sp], #4
 1888              	.LCFI130:
 1889              		.cfi_restore 7
 1890              		.cfi_def_cfa_offset 0
 1891 0018 7047     		bx	lr
 1892              	.L117:
 1893 001a 00BF     		.align	2
 1894              	.L116:
 1895 001c 00080240 		.word	1073874944
 1896              		.cfi_endproc
ARM GAS  C:\Users\ZShuai\AppData\Local\Temp\ccI2BPXx.s 			page 47


 1897              	.LFE156:
 1899              		.section	.text.ADC_Injected_Group_External_Trigger_Source_Config,"ax",%progbits
 1900              		.align	1
 1901              		.global	ADC_Injected_Group_External_Trigger_Source_Config
 1902              		.syntax unified
 1903              		.thumb
 1904              		.thumb_func
 1906              	ADC_Injected_Group_External_Trigger_Source_Config:
 1907              	.LFB157:
 724:../firmware/n32g430_std_periph_driver/src/n32g430_adc.c **** 
 725:../firmware/n32g430_std_periph_driver/src/n32g430_adc.c **** /**
 726:../firmware/n32g430_std_periph_driver/src/n32g430_adc.c **** *\*\name    ADC_Injected_Group_External_Trigger_Source_Config.
 727:../firmware/n32g430_std_periph_driver/src/n32g430_adc.c **** *\*\fun     Configures the ADC external trigger for injected group channels.
 728:../firmware/n32g430_std_periph_driver/src/n32g430_adc.c **** *\*\param   external_trigger_sources :
 729:../firmware/n32g430_std_periph_driver/src/n32g430_adc.c **** *\*\          - ADC_EXT_TRIGCONV_INJECTED_T1_TRGO           
 730:../firmware/n32g430_std_periph_driver/src/n32g430_adc.c **** *\*\          - ADC_EXT_TRIGCONV_INJECTED_T1_CC4            
 731:../firmware/n32g430_std_periph_driver/src/n32g430_adc.c **** *\*\          - ADC_EXT_TRIGCONV_INJECTED_T2_TRGO            
 732:../firmware/n32g430_std_periph_driver/src/n32g430_adc.c **** *\*\          - ADC_EXT_TRIGCONV_INJECTED_T2_CC1            
 733:../firmware/n32g430_std_periph_driver/src/n32g430_adc.c **** *\*\          - ADC_EXT_TRIGCONV_INJECTED_T3_CC4            
 734:../firmware/n32g430_std_periph_driver/src/n32g430_adc.c **** *\*\          - ADC_EXT_TRIGCONV_INJECTED_T4_TRGO          
 735:../firmware/n32g430_std_periph_driver/src/n32g430_adc.c **** *\*\          - ADC_EXT_TRIGCONV_INJECTED_EXT_INT15_TIM8_CC4 
 736:../firmware/n32g430_std_periph_driver/src/n32g430_adc.c **** *\*\          - ADC_EXT_TRIGCONV_INJECTED_SWSTRJCH          
 737:../firmware/n32g430_std_periph_driver/src/n32g430_adc.c **** *\*\return  none
 738:../firmware/n32g430_std_periph_driver/src/n32g430_adc.c **** **/
 739:../firmware/n32g430_std_periph_driver/src/n32g430_adc.c **** void ADC_Injected_Group_External_Trigger_Source_Config(uint32_t external_trigger_sources)
 740:../firmware/n32g430_std_periph_driver/src/n32g430_adc.c **** {
 1908              		.loc 1 740 1
 1909              		.cfi_startproc
 1910              		@ args = 0, pretend = 0, frame = 8
 1911              		@ frame_needed = 1, uses_anonymous_args = 0
 1912              		@ link register save eliminated.
 1913 0000 80B4     		push	{r7}
 1914              	.LCFI131:
 1915              		.cfi_def_cfa_offset 4
 1916              		.cfi_offset 7, -4
 1917 0002 83B0     		sub	sp, sp, #12
 1918              	.LCFI132:
 1919              		.cfi_def_cfa_offset 16
 1920 0004 00AF     		add	r7, sp, #0
 1921              	.LCFI133:
 1922              		.cfi_def_cfa_register 7
 1923 0006 7860     		str	r0, [r7, #4]
 741:../firmware/n32g430_std_periph_driver/src/n32g430_adc.c ****     /* Clear ADC_CTRL2 EXTJSEL[2:0] bit */
 742:../firmware/n32g430_std_periph_driver/src/n32g430_adc.c ****     ADC->CTRL2 &= ADC_EXT_TRIGCONV_INJECTED_MASK;
 1924              		.loc 1 742 8
 1925 0008 084B     		ldr	r3, .L119
 1926 000a 9B68     		ldr	r3, [r3, #8]
 1927 000c 074A     		ldr	r2, .L119
 1928              		.loc 1 742 16
 1929 000e 23F4E043 		bic	r3, r3, #28672
 1930 0012 9360     		str	r3, [r2, #8]
 743:../firmware/n32g430_std_periph_driver/src/n32g430_adc.c ****     /* Set ADC_CTRL2 EXTJSEL[2:0] bit */
 744:../firmware/n32g430_std_periph_driver/src/n32g430_adc.c ****     ADC->CTRL2 |= external_trigger_sources;
 1931              		.loc 1 744 8
 1932 0014 054B     		ldr	r3, .L119
 1933 0016 9A68     		ldr	r2, [r3, #8]
 1934 0018 0449     		ldr	r1, .L119
ARM GAS  C:\Users\ZShuai\AppData\Local\Temp\ccI2BPXx.s 			page 48


 1935              		.loc 1 744 16
 1936 001a 7B68     		ldr	r3, [r7, #4]
 1937 001c 1343     		orrs	r3, r3, r2
 1938 001e 8B60     		str	r3, [r1, #8]
 745:../firmware/n32g430_std_periph_driver/src/n32g430_adc.c **** }
 1939              		.loc 1 745 1
 1940 0020 00BF     		nop
 1941 0022 0C37     		adds	r7, r7, #12
 1942              	.LCFI134:
 1943              		.cfi_def_cfa_offset 4
 1944 0024 BD46     		mov	sp, r7
 1945              	.LCFI135:
 1946              		.cfi_def_cfa_register 13
 1947              		@ sp needed
 1948 0026 5DF8047B 		ldr	r7, [sp], #4
 1949              	.LCFI136:
 1950              		.cfi_restore 7
 1951              		.cfi_def_cfa_offset 0
 1952 002a 7047     		bx	lr
 1953              	.L120:
 1954              		.align	2
 1955              	.L119:
 1956 002c 00080240 		.word	1073874944
 1957              		.cfi_endproc
 1958              	.LFE157:
 1960              		.section	.text.ADC_Injected_Channels_Software_Conversion_Operation,"ax",%progbits
 1961              		.align	1
 1962              		.global	ADC_Injected_Channels_Software_Conversion_Operation
 1963              		.syntax unified
 1964              		.thumb
 1965              		.thumb_func
 1967              	ADC_Injected_Channels_Software_Conversion_Operation:
 1968              	.LFB158:
 746:../firmware/n32g430_std_periph_driver/src/n32g430_adc.c **** 
 747:../firmware/n32g430_std_periph_driver/src/n32g430_adc.c **** /**
 748:../firmware/n32g430_std_periph_driver/src/n32g430_adc.c **** *\*\name    ADC_Injected_Channels_Software_Conversion_Operation.
 749:../firmware/n32g430_std_periph_driver/src/n32g430_adc.c **** *\*\fun     Configures ADC injected channels software conversion.
 750:../firmware/n32g430_std_periph_driver/src/n32g430_adc.c **** *\*\param   conversion_operation :
 751:../firmware/n32g430_std_periph_driver/src/n32g430_adc.c **** *\*\          - ADC_EXTJTRIG_SWSTRJCH_ENABLE
 752:../firmware/n32g430_std_periph_driver/src/n32g430_adc.c **** *\*\          - ADC_EXTJTRIG_SWSTRJCH_DISABLE
 753:../firmware/n32g430_std_periph_driver/src/n32g430_adc.c **** *\*\          - ADC_EXTJTRIG_SWSTRJCH_GET_STS
 754:../firmware/n32g430_std_periph_driver/src/n32g430_adc.c **** *\*\return  FlagStatus:
 755:../firmware/n32g430_std_periph_driver/src/n32g430_adc.c **** *\*\          - SET
 756:../firmware/n32g430_std_periph_driver/src/n32g430_adc.c **** *\*\          - RESET
 757:../firmware/n32g430_std_periph_driver/src/n32g430_adc.c **** **/
 758:../firmware/n32g430_std_periph_driver/src/n32g430_adc.c **** FlagStatus ADC_Injected_Channels_Software_Conversion_Operation(uint32_t conversion_operation)
 759:../firmware/n32g430_std_periph_driver/src/n32g430_adc.c **** {
 1969              		.loc 1 759 1
 1970              		.cfi_startproc
 1971              		@ args = 0, pretend = 0, frame = 8
 1972              		@ frame_needed = 1, uses_anonymous_args = 0
 1973              		@ link register save eliminated.
 1974 0000 80B4     		push	{r7}
 1975              	.LCFI137:
 1976              		.cfi_def_cfa_offset 4
 1977              		.cfi_offset 7, -4
 1978 0002 83B0     		sub	sp, sp, #12
ARM GAS  C:\Users\ZShuai\AppData\Local\Temp\ccI2BPXx.s 			page 49


 1979              	.LCFI138:
 1980              		.cfi_def_cfa_offset 16
 1981 0004 00AF     		add	r7, sp, #0
 1982              	.LCFI139:
 1983              		.cfi_def_cfa_register 7
 1984 0006 7860     		str	r0, [r7, #4]
 760:../firmware/n32g430_std_periph_driver/src/n32g430_adc.c ****     if(conversion_operation == ADC_EXTJTRIG_SWSTRJCH_ENABLE)
 1985              		.loc 1 760 7
 1986 0008 7B68     		ldr	r3, [r7, #4]
 1987 000a B3F5021F 		cmp	r3, #2129920
 1988 000e 06D1     		bne	.L122
 761:../firmware/n32g430_std_periph_driver/src/n32g430_adc.c ****     {
 762:../firmware/n32g430_std_periph_driver/src/n32g430_adc.c ****         /* Enable the ADC external trigger conversion mode for injected channels */
 763:../firmware/n32g430_std_periph_driver/src/n32g430_adc.c ****         ADC->CTRL2 |= conversion_operation;
 1989              		.loc 1 763 12
 1990 0010 134B     		ldr	r3, .L127
 1991 0012 9A68     		ldr	r2, [r3, #8]
 1992 0014 1249     		ldr	r1, .L127
 1993              		.loc 1 763 20
 1994 0016 7B68     		ldr	r3, [r7, #4]
 1995 0018 1343     		orrs	r3, r3, r2
 1996 001a 8B60     		str	r3, [r1, #8]
 1997 001c 19E0     		b	.L123
 1998              	.L122:
 764:../firmware/n32g430_std_periph_driver/src/n32g430_adc.c ****     }
 765:../firmware/n32g430_std_periph_driver/src/n32g430_adc.c ****     else if(conversion_operation == ADC_EXTJTRIG_SWSTRJCH_DISABLE)
 1999              		.loc 1 765 12
 2000 001e 7B68     		ldr	r3, [r7, #4]
 2001 0020 6FF40212 		mvn	r2, #2129920
 2002 0024 9342     		cmp	r3, r2
 2003 0026 06D1     		bne	.L124
 766:../firmware/n32g430_std_periph_driver/src/n32g430_adc.c ****     {
 767:../firmware/n32g430_std_periph_driver/src/n32g430_adc.c ****         /* Disable the ADC external trigger conversion mode for injected channels */
 768:../firmware/n32g430_std_periph_driver/src/n32g430_adc.c ****         ADC->CTRL2 &= conversion_operation;
 2004              		.loc 1 768 12
 2005 0028 0D4B     		ldr	r3, .L127
 2006 002a 9A68     		ldr	r2, [r3, #8]
 2007 002c 0C49     		ldr	r1, .L127
 2008              		.loc 1 768 20
 2009 002e 7B68     		ldr	r3, [r7, #4]
 2010 0030 1340     		ands	r3, r3, r2
 2011 0032 8B60     		str	r3, [r1, #8]
 2012 0034 0DE0     		b	.L123
 2013              	.L124:
 769:../firmware/n32g430_std_periph_driver/src/n32g430_adc.c ****     }
 770:../firmware/n32g430_std_periph_driver/src/n32g430_adc.c ****     else if(conversion_operation == ADC_EXTJTRIG_SWSTRJCH_GET_STS)
 2014              		.loc 1 770 12
 2015 0036 7B68     		ldr	r3, [r7, #4]
 2016 0038 B3F5001F 		cmp	r3, #2097152
 2017 003c 09D1     		bne	.L123
 771:../firmware/n32g430_std_periph_driver/src/n32g430_adc.c ****     {
 772:../firmware/n32g430_std_periph_driver/src/n32g430_adc.c ****         /* Get ADC_CTRL2 SWSTRJCH bit */
 773:../firmware/n32g430_std_periph_driver/src/n32g430_adc.c ****         if ((ADC->CTRL2 & conversion_operation) != (uint32_t)RESET)
 2018              		.loc 1 773 17
 2019 003e 084B     		ldr	r3, .L127
 2020 0040 9A68     		ldr	r2, [r3, #8]
 2021              		.loc 1 773 25
ARM GAS  C:\Users\ZShuai\AppData\Local\Temp\ccI2BPXx.s 			page 50


 2022 0042 7B68     		ldr	r3, [r7, #4]
 2023 0044 1340     		ands	r3, r3, r2
 2024              		.loc 1 773 12
 2025 0046 002B     		cmp	r3, #0
 2026 0048 01D0     		beq	.L125
 774:../firmware/n32g430_std_periph_driver/src/n32g430_adc.c ****         {
 775:../firmware/n32g430_std_periph_driver/src/n32g430_adc.c ****             return SET;
 2027              		.loc 1 775 20
 2028 004a 0123     		movs	r3, #1
 2029 004c 02E0     		b	.L126
 2030              	.L125:
 776:../firmware/n32g430_std_periph_driver/src/n32g430_adc.c ****         }
 777:../firmware/n32g430_std_periph_driver/src/n32g430_adc.c ****         else
 778:../firmware/n32g430_std_periph_driver/src/n32g430_adc.c ****         {
 779:../firmware/n32g430_std_periph_driver/src/n32g430_adc.c ****             return RESET;
 2031              		.loc 1 779 20
 2032 004e 0023     		movs	r3, #0
 2033 0050 00E0     		b	.L126
 2034              	.L123:
 780:../firmware/n32g430_std_periph_driver/src/n32g430_adc.c ****         }
 781:../firmware/n32g430_std_periph_driver/src/n32g430_adc.c ****     }
 782:../firmware/n32g430_std_periph_driver/src/n32g430_adc.c ****     return RESET;
 2035              		.loc 1 782 12
 2036 0052 0023     		movs	r3, #0
 2037              	.L126:
 783:../firmware/n32g430_std_periph_driver/src/n32g430_adc.c **** }
 2038              		.loc 1 783 1
 2039 0054 1846     		mov	r0, r3
 2040 0056 0C37     		adds	r7, r7, #12
 2041              	.LCFI140:
 2042              		.cfi_def_cfa_offset 4
 2043 0058 BD46     		mov	sp, r7
 2044              	.LCFI141:
 2045              		.cfi_def_cfa_register 13
 2046              		@ sp needed
 2047 005a 5DF8047B 		ldr	r7, [sp], #4
 2048              	.LCFI142:
 2049              		.cfi_restore 7
 2050              		.cfi_def_cfa_offset 0
 2051 005e 7047     		bx	lr
 2052              	.L128:
 2053              		.align	2
 2054              	.L127:
 2055 0060 00080240 		.word	1073874944
 2056              		.cfi_endproc
 2057              	.LFE158:
 2059              		.section	.text.ADC_Injected_Sequence_Conversion_Number_Config,"ax",%progbits
 2060              		.align	1
 2061              		.global	ADC_Injected_Sequence_Conversion_Number_Config
 2062              		.syntax unified
 2063              		.thumb
 2064              		.thumb_func
 2066              	ADC_Injected_Sequence_Conversion_Number_Config:
 2067              	.LFB159:
 784:../firmware/n32g430_std_periph_driver/src/n32g430_adc.c **** 
 785:../firmware/n32g430_std_periph_driver/src/n32g430_adc.c **** /**
 786:../firmware/n32g430_std_periph_driver/src/n32g430_adc.c **** *\*\name    ADC_Injected_Sequence_Conversion_Number_Config.
ARM GAS  C:\Users\ZShuai\AppData\Local\Temp\ccI2BPXx.s 			page 51


 787:../firmware/n32g430_std_periph_driver/src/n32g430_adc.c **** *\*\fun     Configures ADC channel conversion number in injected sequence.
 788:../firmware/n32g430_std_periph_driver/src/n32g430_adc.c **** *\*\param   channel :
 789:../firmware/n32g430_std_periph_driver/src/n32g430_adc.c **** *\*\          - ADC_CH_0
 790:../firmware/n32g430_std_periph_driver/src/n32g430_adc.c **** *\*\          - ADC_CH_1
 791:../firmware/n32g430_std_periph_driver/src/n32g430_adc.c **** *\*\          - ADC_CH_2
 792:../firmware/n32g430_std_periph_driver/src/n32g430_adc.c **** *\*\          - ADC_CH_3
 793:../firmware/n32g430_std_periph_driver/src/n32g430_adc.c **** *\*\          - ADC_CH_4
 794:../firmware/n32g430_std_periph_driver/src/n32g430_adc.c **** *\*\          - ADC_CH_5
 795:../firmware/n32g430_std_periph_driver/src/n32g430_adc.c **** *\*\          - ADC_CH_6
 796:../firmware/n32g430_std_periph_driver/src/n32g430_adc.c **** *\*\          - ADC_CH_7
 797:../firmware/n32g430_std_periph_driver/src/n32g430_adc.c **** *\*\          - ADC_CH_8
 798:../firmware/n32g430_std_periph_driver/src/n32g430_adc.c **** *\*\          - ADC_CH_9
 799:../firmware/n32g430_std_periph_driver/src/n32g430_adc.c **** *\*\          - ADC_CH_10
 800:../firmware/n32g430_std_periph_driver/src/n32g430_adc.c **** *\*\          - ADC_CH_11
 801:../firmware/n32g430_std_periph_driver/src/n32g430_adc.c **** *\*\          - ADC_CH_12
 802:../firmware/n32g430_std_periph_driver/src/n32g430_adc.c **** *\*\          - ADC_CH_13
 803:../firmware/n32g430_std_periph_driver/src/n32g430_adc.c **** *\*\          - ADC_CH_14
 804:../firmware/n32g430_std_periph_driver/src/n32g430_adc.c **** *\*\          - ADC_CH_15
 805:../firmware/n32g430_std_periph_driver/src/n32g430_adc.c **** *\*\          - ADC_CH_16
 806:../firmware/n32g430_std_periph_driver/src/n32g430_adc.c **** *\*\          - ADC_CH_17
 807:../firmware/n32g430_std_periph_driver/src/n32g430_adc.c **** *\*\          - ADC_CH_18
 808:../firmware/n32g430_std_periph_driver/src/n32g430_adc.c **** *\*\param   number :
 809:../firmware/n32g430_std_periph_driver/src/n32g430_adc.c **** *\*\          - ADC_INJECTED_NUMBER_1
 810:../firmware/n32g430_std_periph_driver/src/n32g430_adc.c **** *\*\          - ADC_INJECTED_NUMBER_2
 811:../firmware/n32g430_std_periph_driver/src/n32g430_adc.c **** *\*\          - ADC_INJECTED_NUMBER_3
 812:../firmware/n32g430_std_periph_driver/src/n32g430_adc.c **** *\*\          - ADC_INJECTED_NUMBER_4
 813:../firmware/n32g430_std_periph_driver/src/n32g430_adc.c **** *\*\return  none
 814:../firmware/n32g430_std_periph_driver/src/n32g430_adc.c **** **/
 815:../firmware/n32g430_std_periph_driver/src/n32g430_adc.c **** void ADC_Injected_Sequence_Conversion_Number_Config(uint8_t channel, uint8_t number)
 816:../firmware/n32g430_std_periph_driver/src/n32g430_adc.c **** {
 2068              		.loc 1 816 1
 2069              		.cfi_startproc
 2070              		@ args = 0, pretend = 0, frame = 8
 2071              		@ frame_needed = 1, uses_anonymous_args = 0
 2072              		@ link register save eliminated.
 2073 0000 80B4     		push	{r7}
 2074              	.LCFI143:
 2075              		.cfi_def_cfa_offset 4
 2076              		.cfi_offset 7, -4
 2077 0002 83B0     		sub	sp, sp, #12
 2078              	.LCFI144:
 2079              		.cfi_def_cfa_offset 16
 2080 0004 00AF     		add	r7, sp, #0
 2081              	.LCFI145:
 2082              		.cfi_def_cfa_register 7
 2083 0006 0346     		mov	r3, r0
 2084 0008 0A46     		mov	r2, r1
 2085 000a FB71     		strb	r3, [r7, #7]
 2086 000c 1346     		mov	r3, r2
 2087 000e BB71     		strb	r3, [r7, #6]
 817:../firmware/n32g430_std_periph_driver/src/n32g430_adc.c ****     /* ADC Injected sequence register configures conversion sequence*/
 818:../firmware/n32g430_std_periph_driver/src/n32g430_adc.c ****     ADC->JSEQ &= ADC_INJECTED_NUMBER_MASK(number);
 2088              		.loc 1 818 8
 2089 0010 0F4B     		ldr	r3, .L130
 2090 0012 996B     		ldr	r1, [r3, #56]
 2091              		.loc 1 818 18
 2092 0014 BA79     		ldrb	r2, [r7, #6]	@ zero_extendqisi2
ARM GAS  C:\Users\ZShuai\AppData\Local\Temp\ccI2BPXx.s 			page 52


 2093 0016 1346     		mov	r3, r2
 2094 0018 9B00     		lsls	r3, r3, #2
 2095 001a 1344     		add	r3, r3, r2
 2096 001c 1F22     		movs	r2, #31
 2097 001e 02FA03F3 		lsl	r3, r2, r3
 2098 0022 DB43     		mvns	r3, r3
 2099              		.loc 1 818 8
 2100 0024 0A4A     		ldr	r2, .L130
 2101              		.loc 1 818 15
 2102 0026 0B40     		ands	r3, r3, r1
 2103 0028 9363     		str	r3, [r2, #56]
 819:../firmware/n32g430_std_periph_driver/src/n32g430_adc.c ****     ADC->JSEQ |= ADC_INJECTED_NUMBER_SET(channel, number);
 2104              		.loc 1 819 8
 2105 002a 094B     		ldr	r3, .L130
 2106 002c 996B     		ldr	r1, [r3, #56]
 2107              		.loc 1 819 18
 2108 002e F879     		ldrb	r0, [r7, #7]	@ zero_extendqisi2
 2109 0030 BA79     		ldrb	r2, [r7, #6]	@ zero_extendqisi2
 2110 0032 1346     		mov	r3, r2
 2111 0034 9B00     		lsls	r3, r3, #2
 2112 0036 1344     		add	r3, r3, r2
 2113 0038 00FA03F3 		lsl	r3, r0, r3
 2114              		.loc 1 819 8
 2115 003c 044A     		ldr	r2, .L130
 2116              		.loc 1 819 15
 2117 003e 0B43     		orrs	r3, r3, r1
 2118 0040 9363     		str	r3, [r2, #56]
 820:../firmware/n32g430_std_periph_driver/src/n32g430_adc.c **** }
 2119              		.loc 1 820 1
 2120 0042 00BF     		nop
 2121 0044 0C37     		adds	r7, r7, #12
 2122              	.LCFI146:
 2123              		.cfi_def_cfa_offset 4
 2124 0046 BD46     		mov	sp, r7
 2125              	.LCFI147:
 2126              		.cfi_def_cfa_register 13
 2127              		@ sp needed
 2128 0048 5DF8047B 		ldr	r7, [sp], #4
 2129              	.LCFI148:
 2130              		.cfi_restore 7
 2131              		.cfi_def_cfa_offset 0
 2132 004c 7047     		bx	lr
 2133              	.L131:
 2134 004e 00BF     		.align	2
 2135              	.L130:
 2136 0050 00080240 		.word	1073874944
 2137              		.cfi_endproc
 2138              	.LFE159:
 2140              		.section	.text.ADC_Injected_Channels_Number_Config,"ax",%progbits
 2141              		.align	1
 2142              		.global	ADC_Injected_Channels_Number_Config
 2143              		.syntax unified
 2144              		.thumb
 2145              		.thumb_func
 2147              	ADC_Injected_Channels_Number_Config:
 2148              	.LFB160:
 821:../firmware/n32g430_std_periph_driver/src/n32g430_adc.c **** 
ARM GAS  C:\Users\ZShuai\AppData\Local\Temp\ccI2BPXx.s 			page 53


 822:../firmware/n32g430_std_periph_driver/src/n32g430_adc.c **** /**
 823:../firmware/n32g430_std_periph_driver/src/n32g430_adc.c **** *\*\name    ADC_Injected_Channels_Number_Config.
 824:../firmware/n32g430_std_periph_driver/src/n32g430_adc.c **** *\*\fun     Configures the number of ADC channels that will be converted
 825:../firmware/n32g430_std_periph_driver/src/n32g430_adc.c **** *\*\        using the sequencer for Injected channel group.
 826:../firmware/n32g430_std_periph_driver/src/n32g430_adc.c **** *\*\param   channels_number :
 827:../firmware/n32g430_std_periph_driver/src/n32g430_adc.c **** *\*\          - ADC_INJECTED_LEN_1
 828:../firmware/n32g430_std_periph_driver/src/n32g430_adc.c **** *\*\          - ADC_INJECTED_LEN_2
 829:../firmware/n32g430_std_periph_driver/src/n32g430_adc.c **** *\*\          - ADC_INJECTED_LEN_3
 830:../firmware/n32g430_std_periph_driver/src/n32g430_adc.c **** *\*\          - ADC_INJECTED_LEN_4
 831:../firmware/n32g430_std_periph_driver/src/n32g430_adc.c **** *\*\return  none
 832:../firmware/n32g430_std_periph_driver/src/n32g430_adc.c **** **/
 833:../firmware/n32g430_std_periph_driver/src/n32g430_adc.c **** void ADC_Injected_Channels_Number_Config(uint32_t channels_number)
 834:../firmware/n32g430_std_periph_driver/src/n32g430_adc.c **** {
 2149              		.loc 1 834 1
 2150              		.cfi_startproc
 2151              		@ args = 0, pretend = 0, frame = 8
 2152              		@ frame_needed = 1, uses_anonymous_args = 0
 2153              		@ link register save eliminated.
 2154 0000 80B4     		push	{r7}
 2155              	.LCFI149:
 2156              		.cfi_def_cfa_offset 4
 2157              		.cfi_offset 7, -4
 2158 0002 83B0     		sub	sp, sp, #12
 2159              	.LCFI150:
 2160              		.cfi_def_cfa_offset 16
 2161 0004 00AF     		add	r7, sp, #0
 2162              	.LCFI151:
 2163              		.cfi_def_cfa_register 7
 2164 0006 7860     		str	r0, [r7, #4]
 835:../firmware/n32g430_std_periph_driver/src/n32g430_adc.c ****     /* Clear ADC_JSEQ LEN[3:0] bit */
 836:../firmware/n32g430_std_periph_driver/src/n32g430_adc.c ****     ADC->JSEQ &= ADC_INJECTED_LEN_MSAK;
 2165              		.loc 1 836 8
 2166 0008 084B     		ldr	r3, .L133
 2167 000a 9B6B     		ldr	r3, [r3, #56]
 2168 000c 074A     		ldr	r2, .L133
 2169              		.loc 1 836 15
 2170 000e 23F44013 		bic	r3, r3, #3145728
 2171 0012 9363     		str	r3, [r2, #56]
 837:../firmware/n32g430_std_periph_driver/src/n32g430_adc.c ****     /* Set ADC_RSEQ1 LEN[3:0] bit */
 838:../firmware/n32g430_std_periph_driver/src/n32g430_adc.c ****     ADC->JSEQ |= channels_number;
 2172              		.loc 1 838 8
 2173 0014 054B     		ldr	r3, .L133
 2174 0016 9A6B     		ldr	r2, [r3, #56]
 2175 0018 0449     		ldr	r1, .L133
 2176              		.loc 1 838 15
 2177 001a 7B68     		ldr	r3, [r7, #4]
 2178 001c 1343     		orrs	r3, r3, r2
 2179 001e 8B63     		str	r3, [r1, #56]
 839:../firmware/n32g430_std_periph_driver/src/n32g430_adc.c **** }
 2180              		.loc 1 839 1
 2181 0020 00BF     		nop
 2182 0022 0C37     		adds	r7, r7, #12
 2183              	.LCFI152:
 2184              		.cfi_def_cfa_offset 4
 2185 0024 BD46     		mov	sp, r7
 2186              	.LCFI153:
 2187              		.cfi_def_cfa_register 13
ARM GAS  C:\Users\ZShuai\AppData\Local\Temp\ccI2BPXx.s 			page 54


 2188              		@ sp needed
 2189 0026 5DF8047B 		ldr	r7, [sp], #4
 2190              	.LCFI154:
 2191              		.cfi_restore 7
 2192              		.cfi_def_cfa_offset 0
 2193 002a 7047     		bx	lr
 2194              	.L134:
 2195              		.align	2
 2196              	.L133:
 2197 002c 00080240 		.word	1073874944
 2198              		.cfi_endproc
 2199              	.LFE160:
 2201              		.section	.text.ADC_Injected_Channels_Offset_Config,"ax",%progbits
 2202              		.align	1
 2203              		.global	ADC_Injected_Channels_Offset_Config
 2204              		.syntax unified
 2205              		.thumb
 2206              		.thumb_func
 2208              	ADC_Injected_Channels_Offset_Config:
 2209              	.LFB161:
 840:../firmware/n32g430_std_periph_driver/src/n32g430_adc.c **** 
 841:../firmware/n32g430_std_periph_driver/src/n32g430_adc.c **** /**
 842:../firmware/n32g430_std_periph_driver/src/n32g430_adc.c **** *\*\name    ADC_Injected_Channels_Offset_Config.
 843:../firmware/n32g430_std_periph_driver/src/n32g430_adc.c **** *\*\fun     Configures the injected channels conversion value offset.
 844:../firmware/n32g430_std_periph_driver/src/n32g430_adc.c **** *\*\param   channels_number :
 845:../firmware/n32g430_std_periph_driver/src/n32g430_adc.c **** *\*\          - ADC_INJECTED_DATA_REG_1
 846:../firmware/n32g430_std_periph_driver/src/n32g430_adc.c **** *\*\          - ADC_INJECTED_DATA_REG_2
 847:../firmware/n32g430_std_periph_driver/src/n32g430_adc.c **** *\*\          - ADC_INJECTED_DATA_REG_3
 848:../firmware/n32g430_std_periph_driver/src/n32g430_adc.c **** *\*\          - ADC_INJECTED_DATA_REG_4
 849:../firmware/n32g430_std_periph_driver/src/n32g430_adc.c **** *\*\param   Offset_data : 12bit offset value(0 ~ 0xFFF)
 850:../firmware/n32g430_std_periph_driver/src/n32g430_adc.c **** *\*\return  none
 851:../firmware/n32g430_std_periph_driver/src/n32g430_adc.c **** **/
 852:../firmware/n32g430_std_periph_driver/src/n32g430_adc.c **** void ADC_Injected_Channels_Offset_Config(uint8_t injected_channel, uint16_t offset_data)
 853:../firmware/n32g430_std_periph_driver/src/n32g430_adc.c **** {
 2210              		.loc 1 853 1
 2211              		.cfi_startproc
 2212              		@ args = 0, pretend = 0, frame = 16
 2213              		@ frame_needed = 1, uses_anonymous_args = 0
 2214              		@ link register save eliminated.
 2215 0000 80B4     		push	{r7}
 2216              	.LCFI155:
 2217              		.cfi_def_cfa_offset 4
 2218              		.cfi_offset 7, -4
 2219 0002 85B0     		sub	sp, sp, #20
 2220              	.LCFI156:
 2221              		.cfi_def_cfa_offset 24
 2222 0004 00AF     		add	r7, sp, #0
 2223              	.LCFI157:
 2224              		.cfi_def_cfa_register 7
 2225 0006 0346     		mov	r3, r0
 2226 0008 0A46     		mov	r2, r1
 2227 000a FB71     		strb	r3, [r7, #7]
 2228 000c 1346     		mov	r3, r2	@ movhi
 2229 000e BB80     		strh	r3, [r7, #4]	@ movhi
 854:../firmware/n32g430_std_periph_driver/src/n32g430_adc.c ****     __IO uint32_t temp_value = 0;
 2230              		.loc 1 854 19
 2231 0010 0023     		movs	r3, #0
ARM GAS  C:\Users\ZShuai\AppData\Local\Temp\ccI2BPXx.s 			page 55


 2232 0012 FB60     		str	r3, [r7, #12]
 855:../firmware/n32g430_std_periph_driver/src/n32g430_adc.c **** 
 856:../firmware/n32g430_std_periph_driver/src/n32g430_adc.c ****     temp_value = (uint32_t)ADC;
 2233              		.loc 1 856 16
 2234 0014 074B     		ldr	r3, .L136
 2235 0016 FB60     		str	r3, [r7, #12]
 857:../firmware/n32g430_std_periph_driver/src/n32g430_adc.c ****     temp_value += injected_channel;
 2236              		.loc 1 857 16
 2237 0018 FA79     		ldrb	r2, [r7, #7]	@ zero_extendqisi2
 2238 001a FB68     		ldr	r3, [r7, #12]
 2239 001c 1344     		add	r3, r3, r2
 2240 001e FB60     		str	r3, [r7, #12]
 858:../firmware/n32g430_std_periph_driver/src/n32g430_adc.c **** 
 859:../firmware/n32g430_std_periph_driver/src/n32g430_adc.c ****     /* Set the selected injected channel data offset */
 860:../firmware/n32g430_std_periph_driver/src/n32g430_adc.c ****     *(__IO uint32_t*)temp_value = (uint32_t)offset_data;
 2241              		.loc 1 860 6
 2242 0020 FB68     		ldr	r3, [r7, #12]
 2243 0022 1A46     		mov	r2, r3
 2244              		.loc 1 860 35
 2245 0024 BB88     		ldrh	r3, [r7, #4]
 2246              		.loc 1 860 33
 2247 0026 1360     		str	r3, [r2]
 861:../firmware/n32g430_std_periph_driver/src/n32g430_adc.c **** }
 2248              		.loc 1 861 1
 2249 0028 00BF     		nop
 2250 002a 1437     		adds	r7, r7, #20
 2251              	.LCFI158:
 2252              		.cfi_def_cfa_offset 4
 2253 002c BD46     		mov	sp, r7
 2254              	.LCFI159:
 2255              		.cfi_def_cfa_register 13
 2256              		@ sp needed
 2257 002e 5DF8047B 		ldr	r7, [sp], #4
 2258              	.LCFI160:
 2259              		.cfi_restore 7
 2260              		.cfi_def_cfa_offset 0
 2261 0032 7047     		bx	lr
 2262              	.L137:
 2263              		.align	2
 2264              	.L136:
 2265 0034 00080240 		.word	1073874944
 2266              		.cfi_endproc
 2267              	.LFE161:
 2269              		.section	.text.ADC_Injected_Group_Conversion_Data_Get,"ax",%progbits
 2270              		.align	1
 2271              		.global	ADC_Injected_Group_Conversion_Data_Get
 2272              		.syntax unified
 2273              		.thumb
 2274              		.thumb_func
 2276              	ADC_Injected_Group_Conversion_Data_Get:
 2277              	.LFB162:
 862:../firmware/n32g430_std_periph_driver/src/n32g430_adc.c **** 
 863:../firmware/n32g430_std_periph_driver/src/n32g430_adc.c **** /**
 864:../firmware/n32g430_std_periph_driver/src/n32g430_adc.c **** *\*\name    ADC_Injected_Group_Conversion_Data_Get.
 865:../firmware/n32g430_std_periph_driver/src/n32g430_adc.c **** *\*\fun     Get ADC injected group conversion data.
 866:../firmware/n32g430_std_periph_driver/src/n32g430_adc.c **** *\*\param   channels_number :
 867:../firmware/n32g430_std_periph_driver/src/n32g430_adc.c **** *\*\          - ADC_INJECTED_DATA_REG_1
ARM GAS  C:\Users\ZShuai\AppData\Local\Temp\ccI2BPXx.s 			page 56


 868:../firmware/n32g430_std_periph_driver/src/n32g430_adc.c **** *\*\          - ADC_INJECTED_DATA_REG_2
 869:../firmware/n32g430_std_periph_driver/src/n32g430_adc.c **** *\*\          - ADC_INJECTED_DATA_REG_3
 870:../firmware/n32g430_std_periph_driver/src/n32g430_adc.c **** *\*\          - ADC_INJECTED_DATA_REG_4
 871:../firmware/n32g430_std_periph_driver/src/n32g430_adc.c **** *\*\return  ADC injected group conversion data.
 872:../firmware/n32g430_std_periph_driver/src/n32g430_adc.c **** **/
 873:../firmware/n32g430_std_periph_driver/src/n32g430_adc.c **** uint16_t ADC_Injected_Group_Conversion_Data_Get(uint8_t reg_offset)
 874:../firmware/n32g430_std_periph_driver/src/n32g430_adc.c **** {
 2278              		.loc 1 874 1
 2279              		.cfi_startproc
 2280              		@ args = 0, pretend = 0, frame = 16
 2281              		@ frame_needed = 1, uses_anonymous_args = 0
 2282              		@ link register save eliminated.
 2283 0000 80B4     		push	{r7}
 2284              	.LCFI161:
 2285              		.cfi_def_cfa_offset 4
 2286              		.cfi_offset 7, -4
 2287 0002 85B0     		sub	sp, sp, #20
 2288              	.LCFI162:
 2289              		.cfi_def_cfa_offset 24
 2290 0004 00AF     		add	r7, sp, #0
 2291              	.LCFI163:
 2292              		.cfi_def_cfa_register 7
 2293 0006 0346     		mov	r3, r0
 2294 0008 FB71     		strb	r3, [r7, #7]
 875:../firmware/n32g430_std_periph_driver/src/n32g430_adc.c ****     __IO uint32_t temp_value = 0;
 2295              		.loc 1 875 19
 2296 000a 0023     		movs	r3, #0
 2297 000c FB60     		str	r3, [r7, #12]
 876:../firmware/n32g430_std_periph_driver/src/n32g430_adc.c **** 
 877:../firmware/n32g430_std_periph_driver/src/n32g430_adc.c ****     temp_value = (uint32_t)ADC;
 2298              		.loc 1 877 16
 2299 000e 084B     		ldr	r3, .L140
 2300 0010 FB60     		str	r3, [r7, #12]
 878:../firmware/n32g430_std_periph_driver/src/n32g430_adc.c ****     temp_value += reg_offset + ADC_JDAT_REG_OFFSET;
 2301              		.loc 1 878 16
 2302 0012 FA79     		ldrb	r2, [r7, #7]	@ zero_extendqisi2
 2303 0014 FB68     		ldr	r3, [r7, #12]
 2304 0016 1344     		add	r3, r3, r2
 2305 0018 2833     		adds	r3, r3, #40
 2306 001a FB60     		str	r3, [r7, #12]
 879:../firmware/n32g430_std_periph_driver/src/n32g430_adc.c **** 
 880:../firmware/n32g430_std_periph_driver/src/n32g430_adc.c ****     /* Return the injected group conversion data */
 881:../firmware/n32g430_std_periph_driver/src/n32g430_adc.c ****     return (uint16_t)(*(__IO uint32_t*)temp_value);
 2307              		.loc 1 881 24
 2308 001c FB68     		ldr	r3, [r7, #12]
 2309              		.loc 1 881 23
 2310 001e 1B68     		ldr	r3, [r3]
 2311              		.loc 1 881 12
 2312 0020 9BB2     		uxth	r3, r3
 882:../firmware/n32g430_std_periph_driver/src/n32g430_adc.c **** }
 2313              		.loc 1 882 1
 2314 0022 1846     		mov	r0, r3
 2315 0024 1437     		adds	r7, r7, #20
 2316              	.LCFI164:
 2317              		.cfi_def_cfa_offset 4
 2318 0026 BD46     		mov	sp, r7
 2319              	.LCFI165:
ARM GAS  C:\Users\ZShuai\AppData\Local\Temp\ccI2BPXx.s 			page 57


 2320              		.cfi_def_cfa_register 13
 2321              		@ sp needed
 2322 0028 5DF8047B 		ldr	r7, [sp], #4
 2323              	.LCFI166:
 2324              		.cfi_restore 7
 2325              		.cfi_def_cfa_offset 0
 2326 002c 7047     		bx	lr
 2327              	.L141:
 2328 002e 00BF     		.align	2
 2329              	.L140:
 2330 0030 00080240 		.word	1073874944
 2331              		.cfi_endproc
 2332              	.LFE162:
 2334              		.section	.text.ADC_Analog_Watchdog_Mode_Channel_Config,"ax",%progbits
 2335              		.align	1
 2336              		.global	ADC_Analog_Watchdog_Mode_Channel_Config
 2337              		.syntax unified
 2338              		.thumb
 2339              		.thumb_func
 2341              	ADC_Analog_Watchdog_Mode_Channel_Config:
 2342              	.LFB163:
 883:../firmware/n32g430_std_periph_driver/src/n32g430_adc.c **** 
 884:../firmware/n32g430_std_periph_driver/src/n32g430_adc.c **** /**
 885:../firmware/n32g430_std_periph_driver/src/n32g430_adc.c **** *\*\name    ADC_Analog_Watchdog_Mode_Channel_Config.
 886:../firmware/n32g430_std_periph_driver/src/n32g430_adc.c **** *\*\fun     Configures ADC analog watchdog single mode or scan mode,
 887:../firmware/n32g430_std_periph_driver/src/n32g430_adc.c **** *\*\        and single mode channel operation.
 888:../firmware/n32g430_std_periph_driver/src/n32g430_adc.c **** *\*\param   mode :
 889:../firmware/n32g430_std_periph_driver/src/n32g430_adc.c **** *\*\          - ADC_ANALOG_WTDG_SINGLE_MODE
 890:../firmware/n32g430_std_periph_driver/src/n32g430_adc.c **** *\*\          - ADC_ANALOG_WTDG_SCAN_MODE
 891:../firmware/n32g430_std_periph_driver/src/n32g430_adc.c **** *\*\param   channel :
 892:../firmware/n32g430_std_periph_driver/src/n32g430_adc.c **** *\*\          - ADC_ANALOG_WTDG_SINGLE_CH0
 893:../firmware/n32g430_std_periph_driver/src/n32g430_adc.c **** *\*\          - ADC_ANALOG_WTDG_SINGLE_CH1
 894:../firmware/n32g430_std_periph_driver/src/n32g430_adc.c **** *\*\          - ADC_ANALOG_WTDG_SINGLE_CH2
 895:../firmware/n32g430_std_periph_driver/src/n32g430_adc.c **** *\*\          - ADC_ANALOG_WTDG_SINGLE_CH3
 896:../firmware/n32g430_std_periph_driver/src/n32g430_adc.c **** *\*\          - ADC_ANALOG_WTDG_SINGLE_CH4
 897:../firmware/n32g430_std_periph_driver/src/n32g430_adc.c **** *\*\          - ADC_ANALOG_WTDG_SINGLE_CH5
 898:../firmware/n32g430_std_periph_driver/src/n32g430_adc.c **** *\*\          - ADC_ANALOG_WTDG_SINGLE_CH6
 899:../firmware/n32g430_std_periph_driver/src/n32g430_adc.c **** *\*\          - ADC_ANALOG_WTDG_SINGLE_CH7
 900:../firmware/n32g430_std_periph_driver/src/n32g430_adc.c **** *\*\          - ADC_ANALOG_WTDG_SINGLE_CH8
 901:../firmware/n32g430_std_periph_driver/src/n32g430_adc.c **** *\*\          - ADC_ANALOG_WTDG_SINGLE_CH9
 902:../firmware/n32g430_std_periph_driver/src/n32g430_adc.c **** *\*\          - ADC_ANALOG_WTDG_SINGLE_CH10
 903:../firmware/n32g430_std_periph_driver/src/n32g430_adc.c **** *\*\          - ADC_ANALOG_WTDG_SINGLE_CH11
 904:../firmware/n32g430_std_periph_driver/src/n32g430_adc.c **** *\*\          - ADC_ANALOG_WTDG_SINGLE_CH12
 905:../firmware/n32g430_std_periph_driver/src/n32g430_adc.c **** *\*\          - ADC_ANALOG_WTDG_SINGLE_CH13
 906:../firmware/n32g430_std_periph_driver/src/n32g430_adc.c **** *\*\          - ADC_ANALOG_WTDG_SINGLE_CH14
 907:../firmware/n32g430_std_periph_driver/src/n32g430_adc.c **** *\*\          - ADC_ANALOG_WTDG_SINGLE_CH15
 908:../firmware/n32g430_std_periph_driver/src/n32g430_adc.c **** *\*\          - ADC_ANALOG_WTDG_SINGLE_CH16
 909:../firmware/n32g430_std_periph_driver/src/n32g430_adc.c **** *\*\          - ADC_ANALOG_WTDG_SINGLE_CH17
 910:../firmware/n32g430_std_periph_driver/src/n32g430_adc.c **** *\*\          - ADC_ANALOG_WTDG_SINGLE_CH18
 911:../firmware/n32g430_std_periph_driver/src/n32g430_adc.c **** *\*\return  none
 912:../firmware/n32g430_std_periph_driver/src/n32g430_adc.c **** **/
 913:../firmware/n32g430_std_periph_driver/src/n32g430_adc.c **** void ADC_Analog_Watchdog_Mode_Channel_Config(uint32_t mode, uint8_t channel)
 914:../firmware/n32g430_std_periph_driver/src/n32g430_adc.c **** {
 2343              		.loc 1 914 1
 2344              		.cfi_startproc
 2345              		@ args = 0, pretend = 0, frame = 8
 2346              		@ frame_needed = 1, uses_anonymous_args = 0
ARM GAS  C:\Users\ZShuai\AppData\Local\Temp\ccI2BPXx.s 			page 58


 2347              		@ link register save eliminated.
 2348 0000 80B4     		push	{r7}
 2349              	.LCFI167:
 2350              		.cfi_def_cfa_offset 4
 2351              		.cfi_offset 7, -4
 2352 0002 83B0     		sub	sp, sp, #12
 2353              	.LCFI168:
 2354              		.cfi_def_cfa_offset 16
 2355 0004 00AF     		add	r7, sp, #0
 2356              	.LCFI169:
 2357              		.cfi_def_cfa_register 7
 2358 0006 7860     		str	r0, [r7, #4]
 2359 0008 0B46     		mov	r3, r1
 2360 000a FB70     		strb	r3, [r7, #3]
 915:../firmware/n32g430_std_periph_driver/src/n32g430_adc.c ****     /* ADC analog watchdog single mode */
 916:../firmware/n32g430_std_periph_driver/src/n32g430_adc.c ****     if(mode == ADC_ANALOG_WTDG_SINGLE_MODE)
 2361              		.loc 1 916 7
 2362 000c 7B68     		ldr	r3, [r7, #4]
 2363 000e B3F5007F 		cmp	r3, #512
 2364 0012 12D1     		bne	.L143
 917:../firmware/n32g430_std_periph_driver/src/n32g430_adc.c ****     {
 918:../firmware/n32g430_std_periph_driver/src/n32g430_adc.c ****         ADC->CTRL1 |= mode;
 2365              		.loc 1 918 12
 2366 0014 0F4B     		ldr	r3, .L146
 2367 0016 5A68     		ldr	r2, [r3, #4]
 2368 0018 0E49     		ldr	r1, .L146
 2369              		.loc 1 918 20
 2370 001a 7B68     		ldr	r3, [r7, #4]
 2371 001c 1343     		orrs	r3, r3, r2
 2372 001e 4B60     		str	r3, [r1, #4]
 919:../firmware/n32g430_std_periph_driver/src/n32g430_adc.c ****         /* Clear ADC analog watchdog single mode channel */
 920:../firmware/n32g430_std_periph_driver/src/n32g430_adc.c ****         ADC->CTRL1 &= ADC_ANALOG_WTDG_SINGLE_CH_MASK;
 2373              		.loc 1 920 12
 2374 0020 0C4B     		ldr	r3, .L146
 2375 0022 5B68     		ldr	r3, [r3, #4]
 2376 0024 0B4A     		ldr	r2, .L146
 2377              		.loc 1 920 20
 2378 0026 23F01F03 		bic	r3, r3, #31
 2379 002a 5360     		str	r3, [r2, #4]
 921:../firmware/n32g430_std_periph_driver/src/n32g430_adc.c ****         /* Select ADC analog watchdog single mode channel */
 922:../firmware/n32g430_std_periph_driver/src/n32g430_adc.c ****         ADC->CTRL1 |= (uint32_t)channel;
 2380              		.loc 1 922 12
 2381 002c 094B     		ldr	r3, .L146
 2382 002e 5A68     		ldr	r2, [r3, #4]
 2383              		.loc 1 922 23
 2384 0030 FB78     		ldrb	r3, [r7, #3]	@ zero_extendqisi2
 2385              		.loc 1 922 12
 2386 0032 0849     		ldr	r1, .L146
 2387              		.loc 1 922 20
 2388 0034 1343     		orrs	r3, r3, r2
 2389 0036 4B60     		str	r3, [r1, #4]
 923:../firmware/n32g430_std_periph_driver/src/n32g430_adc.c ****     }
 924:../firmware/n32g430_std_periph_driver/src/n32g430_adc.c ****     /* ADC analog watchdog scan mode */
 925:../firmware/n32g430_std_periph_driver/src/n32g430_adc.c ****     else
 926:../firmware/n32g430_std_periph_driver/src/n32g430_adc.c ****     {
 927:../firmware/n32g430_std_periph_driver/src/n32g430_adc.c ****         ADC->CTRL1 &= ADC_ANALOG_WTDG_MODE_MASK;
 928:../firmware/n32g430_std_periph_driver/src/n32g430_adc.c ****     }
ARM GAS  C:\Users\ZShuai\AppData\Local\Temp\ccI2BPXx.s 			page 59


 929:../firmware/n32g430_std_periph_driver/src/n32g430_adc.c **** }
 2390              		.loc 1 929 1
 2391 0038 05E0     		b	.L145
 2392              	.L143:
 927:../firmware/n32g430_std_periph_driver/src/n32g430_adc.c ****     }
 2393              		.loc 1 927 12
 2394 003a 064B     		ldr	r3, .L146
 2395 003c 5B68     		ldr	r3, [r3, #4]
 2396 003e 054A     		ldr	r2, .L146
 927:../firmware/n32g430_std_periph_driver/src/n32g430_adc.c ****     }
 2397              		.loc 1 927 20
 2398 0040 23F40073 		bic	r3, r3, #512
 2399 0044 5360     		str	r3, [r2, #4]
 2400              	.L145:
 2401              		.loc 1 929 1
 2402 0046 00BF     		nop
 2403 0048 0C37     		adds	r7, r7, #12
 2404              	.LCFI170:
 2405              		.cfi_def_cfa_offset 4
 2406 004a BD46     		mov	sp, r7
 2407              	.LCFI171:
 2408              		.cfi_def_cfa_register 13
 2409              		@ sp needed
 2410 004c 5DF8047B 		ldr	r7, [sp], #4
 2411              	.LCFI172:
 2412              		.cfi_restore 7
 2413              		.cfi_def_cfa_offset 0
 2414 0050 7047     		bx	lr
 2415              	.L147:
 2416 0052 00BF     		.align	2
 2417              	.L146:
 2418 0054 00080240 		.word	1073874944
 2419              		.cfi_endproc
 2420              	.LFE163:
 2422              		.section	.text.ADC_Analog_Watchdog_Enable,"ax",%progbits
 2423              		.align	1
 2424              		.global	ADC_Analog_Watchdog_Enable
 2425              		.syntax unified
 2426              		.thumb
 2427              		.thumb_func
 2429              	ADC_Analog_Watchdog_Enable:
 2430              	.LFB164:
 930:../firmware/n32g430_std_periph_driver/src/n32g430_adc.c **** 
 931:../firmware/n32g430_std_periph_driver/src/n32g430_adc.c **** /**
 932:../firmware/n32g430_std_periph_driver/src/n32g430_adc.c **** *\*\name    ADC_Analog_Watchdog_Enable.
 933:../firmware/n32g430_std_periph_driver/src/n32g430_adc.c **** *\*\fun     Enable ADC Analog watchdog.
 934:../firmware/n32g430_std_periph_driver/src/n32g430_adc.c **** *\*\param   wcdg_mode :
 935:../firmware/n32g430_std_periph_driver/src/n32g430_adc.c **** *\*\          - ADC_ANALOG_WTDG_REGULAR
 936:../firmware/n32g430_std_periph_driver/src/n32g430_adc.c **** *\*\          - ADC_ANALOG_WTDG_INJECTED
 937:../firmware/n32g430_std_periph_driver/src/n32g430_adc.c **** *\*\return  none
 938:../firmware/n32g430_std_periph_driver/src/n32g430_adc.c **** **/
 939:../firmware/n32g430_std_periph_driver/src/n32g430_adc.c **** void ADC_Analog_Watchdog_Enable(uint32_t wcdg_mode)
 940:../firmware/n32g430_std_periph_driver/src/n32g430_adc.c **** {
 2431              		.loc 1 940 1
 2432              		.cfi_startproc
 2433              		@ args = 0, pretend = 0, frame = 8
 2434              		@ frame_needed = 1, uses_anonymous_args = 0
ARM GAS  C:\Users\ZShuai\AppData\Local\Temp\ccI2BPXx.s 			page 60


 2435              		@ link register save eliminated.
 2436 0000 80B4     		push	{r7}
 2437              	.LCFI173:
 2438              		.cfi_def_cfa_offset 4
 2439              		.cfi_offset 7, -4
 2440 0002 83B0     		sub	sp, sp, #12
 2441              	.LCFI174:
 2442              		.cfi_def_cfa_offset 16
 2443 0004 00AF     		add	r7, sp, #0
 2444              	.LCFI175:
 2445              		.cfi_def_cfa_register 7
 2446 0006 7860     		str	r0, [r7, #4]
 941:../firmware/n32g430_std_periph_driver/src/n32g430_adc.c ****     /* Set the ADC_CTRL1 AWDGERCH bit */
 942:../firmware/n32g430_std_periph_driver/src/n32g430_adc.c ****     ADC->CTRL1 |= wcdg_mode;
 2447              		.loc 1 942 8
 2448 0008 054B     		ldr	r3, .L149
 2449 000a 5A68     		ldr	r2, [r3, #4]
 2450 000c 0449     		ldr	r1, .L149
 2451              		.loc 1 942 16
 2452 000e 7B68     		ldr	r3, [r7, #4]
 2453 0010 1343     		orrs	r3, r3, r2
 2454 0012 4B60     		str	r3, [r1, #4]
 943:../firmware/n32g430_std_periph_driver/src/n32g430_adc.c **** }
 2455              		.loc 1 943 1
 2456 0014 00BF     		nop
 2457 0016 0C37     		adds	r7, r7, #12
 2458              	.LCFI176:
 2459              		.cfi_def_cfa_offset 4
 2460 0018 BD46     		mov	sp, r7
 2461              	.LCFI177:
 2462              		.cfi_def_cfa_register 13
 2463              		@ sp needed
 2464 001a 5DF8047B 		ldr	r7, [sp], #4
 2465              	.LCFI178:
 2466              		.cfi_restore 7
 2467              		.cfi_def_cfa_offset 0
 2468 001e 7047     		bx	lr
 2469              	.L150:
 2470              		.align	2
 2471              	.L149:
 2472 0020 00080240 		.word	1073874944
 2473              		.cfi_endproc
 2474              	.LFE164:
 2476              		.section	.text.ADC_Analog_Watchdog_Disable,"ax",%progbits
 2477              		.align	1
 2478              		.global	ADC_Analog_Watchdog_Disable
 2479              		.syntax unified
 2480              		.thumb
 2481              		.thumb_func
 2483              	ADC_Analog_Watchdog_Disable:
 2484              	.LFB165:
 944:../firmware/n32g430_std_periph_driver/src/n32g430_adc.c **** 
 945:../firmware/n32g430_std_periph_driver/src/n32g430_adc.c **** /**
 946:../firmware/n32g430_std_periph_driver/src/n32g430_adc.c **** *\*\name    ADC_Analog_Watchdog_Disable.
 947:../firmware/n32g430_std_periph_driver/src/n32g430_adc.c **** *\*\fun     Disable ADC Analog watchdog.
 948:../firmware/n32g430_std_periph_driver/src/n32g430_adc.c **** *\*\param   wcdg_mode :
 949:../firmware/n32g430_std_periph_driver/src/n32g430_adc.c **** *\*\          - ADC_ANALOG_WTDG_REGULAR
ARM GAS  C:\Users\ZShuai\AppData\Local\Temp\ccI2BPXx.s 			page 61


 950:../firmware/n32g430_std_periph_driver/src/n32g430_adc.c **** *\*\          - ADC_ANALOG_WTDG_INJECTED
 951:../firmware/n32g430_std_periph_driver/src/n32g430_adc.c **** *\*\return  none
 952:../firmware/n32g430_std_periph_driver/src/n32g430_adc.c **** **/
 953:../firmware/n32g430_std_periph_driver/src/n32g430_adc.c **** void ADC_Analog_Watchdog_Disable(uint32_t wcdg_mode)
 954:../firmware/n32g430_std_periph_driver/src/n32g430_adc.c **** {
 2485              		.loc 1 954 1
 2486              		.cfi_startproc
 2487              		@ args = 0, pretend = 0, frame = 8
 2488              		@ frame_needed = 1, uses_anonymous_args = 0
 2489              		@ link register save eliminated.
 2490 0000 80B4     		push	{r7}
 2491              	.LCFI179:
 2492              		.cfi_def_cfa_offset 4
 2493              		.cfi_offset 7, -4
 2494 0002 83B0     		sub	sp, sp, #12
 2495              	.LCFI180:
 2496              		.cfi_def_cfa_offset 16
 2497 0004 00AF     		add	r7, sp, #0
 2498              	.LCFI181:
 2499              		.cfi_def_cfa_register 7
 2500 0006 7860     		str	r0, [r7, #4]
 955:../firmware/n32g430_std_periph_driver/src/n32g430_adc.c ****     /* Clean the ADC_CTRL1 AWDGERCH bit */
 956:../firmware/n32g430_std_periph_driver/src/n32g430_adc.c ****     ADC->CTRL1 &= (~wcdg_mode);
 2501              		.loc 1 956 8
 2502 0008 064B     		ldr	r3, .L152
 2503 000a 5A68     		ldr	r2, [r3, #4]
 2504              		.loc 1 956 20
 2505 000c 7B68     		ldr	r3, [r7, #4]
 2506 000e DB43     		mvns	r3, r3
 2507              		.loc 1 956 8
 2508 0010 0449     		ldr	r1, .L152
 2509              		.loc 1 956 16
 2510 0012 1340     		ands	r3, r3, r2
 2511 0014 4B60     		str	r3, [r1, #4]
 957:../firmware/n32g430_std_periph_driver/src/n32g430_adc.c **** }
 2512              		.loc 1 957 1
 2513 0016 00BF     		nop
 2514 0018 0C37     		adds	r7, r7, #12
 2515              	.LCFI182:
 2516              		.cfi_def_cfa_offset 4
 2517 001a BD46     		mov	sp, r7
 2518              	.LCFI183:
 2519              		.cfi_def_cfa_register 13
 2520              		@ sp needed
 2521 001c 5DF8047B 		ldr	r7, [sp], #4
 2522              	.LCFI184:
 2523              		.cfi_restore 7
 2524              		.cfi_def_cfa_offset 0
 2525 0020 7047     		bx	lr
 2526              	.L153:
 2527 0022 00BF     		.align	2
 2528              	.L152:
 2529 0024 00080240 		.word	1073874944
 2530              		.cfi_endproc
 2531              	.LFE165:
 2533              		.section	.text.ADC_Analog_Watchdog_HighThresholds_Config,"ax",%progbits
 2534              		.align	1
ARM GAS  C:\Users\ZShuai\AppData\Local\Temp\ccI2BPXx.s 			page 62


 2535              		.global	ADC_Analog_Watchdog_HighThresholds_Config
 2536              		.syntax unified
 2537              		.thumb
 2538              		.thumb_func
 2540              	ADC_Analog_Watchdog_HighThresholds_Config:
 2541              	.LFB166:
 958:../firmware/n32g430_std_periph_driver/src/n32g430_adc.c **** 
 959:../firmware/n32g430_std_periph_driver/src/n32g430_adc.c **** 
 960:../firmware/n32g430_std_periph_driver/src/n32g430_adc.c **** /**
 961:../firmware/n32g430_std_periph_driver/src/n32g430_adc.c **** *\*\name    ADC_Analog_Watchdog_HighThresholds_Config.
 962:../firmware/n32g430_std_periph_driver/src/n32g430_adc.c **** *\*\fun     Configures the high thresholds of the analog watchdog.
 963:../firmware/n32g430_std_periph_driver/src/n32g430_adc.c **** *\*\param   high_thresholds : 12bit high thresholds value(0 ~ 0xFFF)
 964:../firmware/n32g430_std_periph_driver/src/n32g430_adc.c **** *\*\return  none
 965:../firmware/n32g430_std_periph_driver/src/n32g430_adc.c **** **/
 966:../firmware/n32g430_std_periph_driver/src/n32g430_adc.c **** void ADC_Analog_Watchdog_HighThresholds_Config(uint16_t high_thresholds)
 967:../firmware/n32g430_std_periph_driver/src/n32g430_adc.c **** {
 2542              		.loc 1 967 1
 2543              		.cfi_startproc
 2544              		@ args = 0, pretend = 0, frame = 8
 2545              		@ frame_needed = 1, uses_anonymous_args = 0
 2546              		@ link register save eliminated.
 2547 0000 80B4     		push	{r7}
 2548              	.LCFI185:
 2549              		.cfi_def_cfa_offset 4
 2550              		.cfi_offset 7, -4
 2551 0002 83B0     		sub	sp, sp, #12
 2552              	.LCFI186:
 2553              		.cfi_def_cfa_offset 16
 2554 0004 00AF     		add	r7, sp, #0
 2555              	.LCFI187:
 2556              		.cfi_def_cfa_register 7
 2557 0006 0346     		mov	r3, r0
 2558 0008 FB80     		strh	r3, [r7, #6]	@ movhi
 968:../firmware/n32g430_std_periph_driver/src/n32g430_adc.c ****     /* Set the ADC high thresholds */
 969:../firmware/n32g430_std_periph_driver/src/n32g430_adc.c ****     ADC->WDGHIGH = high_thresholds;
 2559              		.loc 1 969 8
 2560 000a 044A     		ldr	r2, .L155
 2561              		.loc 1 969 18
 2562 000c FB88     		ldrh	r3, [r7, #6]
 2563 000e 5362     		str	r3, [r2, #36]
 970:../firmware/n32g430_std_periph_driver/src/n32g430_adc.c **** }
 2564              		.loc 1 970 1
 2565 0010 00BF     		nop
 2566 0012 0C37     		adds	r7, r7, #12
 2567              	.LCFI188:
 2568              		.cfi_def_cfa_offset 4
 2569 0014 BD46     		mov	sp, r7
 2570              	.LCFI189:
 2571              		.cfi_def_cfa_register 13
 2572              		@ sp needed
 2573 0016 5DF8047B 		ldr	r7, [sp], #4
 2574              	.LCFI190:
 2575              		.cfi_restore 7
 2576              		.cfi_def_cfa_offset 0
 2577 001a 7047     		bx	lr
 2578              	.L156:
 2579              		.align	2
ARM GAS  C:\Users\ZShuai\AppData\Local\Temp\ccI2BPXx.s 			page 63


 2580              	.L155:
 2581 001c 00080240 		.word	1073874944
 2582              		.cfi_endproc
 2583              	.LFE166:
 2585              		.section	.text.ADC_Analog_Watchdog_LowThresholds_Config,"ax",%progbits
 2586              		.align	1
 2587              		.global	ADC_Analog_Watchdog_LowThresholds_Config
 2588              		.syntax unified
 2589              		.thumb
 2590              		.thumb_func
 2592              	ADC_Analog_Watchdog_LowThresholds_Config:
 2593              	.LFB167:
 971:../firmware/n32g430_std_periph_driver/src/n32g430_adc.c **** 
 972:../firmware/n32g430_std_periph_driver/src/n32g430_adc.c **** /**
 973:../firmware/n32g430_std_periph_driver/src/n32g430_adc.c **** *\*\name    ADC_Analog_Watchdog_LowThresholds_Config.
 974:../firmware/n32g430_std_periph_driver/src/n32g430_adc.c **** *\*\fun     Configures the low thresholds of the analog watchdog.
 975:../firmware/n32g430_std_periph_driver/src/n32g430_adc.c **** *\*\param   low_thresholds : 12bit low thresholds value(0 ~ 0xFFF)
 976:../firmware/n32g430_std_periph_driver/src/n32g430_adc.c **** *\*\return  none
 977:../firmware/n32g430_std_periph_driver/src/n32g430_adc.c **** **/
 978:../firmware/n32g430_std_periph_driver/src/n32g430_adc.c **** void ADC_Analog_Watchdog_LowThresholds_Config(uint16_t low_thresholds)
 979:../firmware/n32g430_std_periph_driver/src/n32g430_adc.c **** {
 2594              		.loc 1 979 1
 2595              		.cfi_startproc
 2596              		@ args = 0, pretend = 0, frame = 8
 2597              		@ frame_needed = 1, uses_anonymous_args = 0
 2598              		@ link register save eliminated.
 2599 0000 80B4     		push	{r7}
 2600              	.LCFI191:
 2601              		.cfi_def_cfa_offset 4
 2602              		.cfi_offset 7, -4
 2603 0002 83B0     		sub	sp, sp, #12
 2604              	.LCFI192:
 2605              		.cfi_def_cfa_offset 16
 2606 0004 00AF     		add	r7, sp, #0
 2607              	.LCFI193:
 2608              		.cfi_def_cfa_register 7
 2609 0006 0346     		mov	r3, r0
 2610 0008 FB80     		strh	r3, [r7, #6]	@ movhi
 980:../firmware/n32g430_std_periph_driver/src/n32g430_adc.c ****     /* Set the ADC low thresholds */
 981:../firmware/n32g430_std_periph_driver/src/n32g430_adc.c ****     ADC->WDGLOW = low_thresholds;
 2611              		.loc 1 981 8
 2612 000a 044A     		ldr	r2, .L158
 2613              		.loc 1 981 17
 2614 000c FB88     		ldrh	r3, [r7, #6]
 2615 000e 9362     		str	r3, [r2, #40]
 982:../firmware/n32g430_std_periph_driver/src/n32g430_adc.c **** }
 2616              		.loc 1 982 1
 2617 0010 00BF     		nop
 2618 0012 0C37     		adds	r7, r7, #12
 2619              	.LCFI194:
 2620              		.cfi_def_cfa_offset 4
 2621 0014 BD46     		mov	sp, r7
 2622              	.LCFI195:
 2623              		.cfi_def_cfa_register 13
 2624              		@ sp needed
 2625 0016 5DF8047B 		ldr	r7, [sp], #4
 2626              	.LCFI196:
ARM GAS  C:\Users\ZShuai\AppData\Local\Temp\ccI2BPXx.s 			page 64


 2627              		.cfi_restore 7
 2628              		.cfi_def_cfa_offset 0
 2629 001a 7047     		bx	lr
 2630              	.L159:
 2631              		.align	2
 2632              	.L158:
 2633 001c 00080240 		.word	1073874944
 2634              		.cfi_endproc
 2635              	.LFE167:
 2637              		.section	.text.ADC_Temperature_Sensor_And_Vrefint_Channel_Enable,"ax",%progbits
 2638              		.align	1
 2639              		.global	ADC_Temperature_Sensor_And_Vrefint_Channel_Enable
 2640              		.syntax unified
 2641              		.thumb
 2642              		.thumb_func
 2644              	ADC_Temperature_Sensor_And_Vrefint_Channel_Enable:
 2645              	.LFB168:
 983:../firmware/n32g430_std_periph_driver/src/n32g430_adc.c **** 
 984:../firmware/n32g430_std_periph_driver/src/n32g430_adc.c **** /**
 985:../firmware/n32g430_std_periph_driver/src/n32g430_adc.c **** *\*\name    ADC_Temperature_Sensor_And_Vrefint_Channel_Enable.
 986:../firmware/n32g430_std_periph_driver/src/n32g430_adc.c **** *\*\fun     Enable ADC Temperature sensor and VREFINT channel.
 987:../firmware/n32g430_std_periph_driver/src/n32g430_adc.c **** *\*\return  none
 988:../firmware/n32g430_std_periph_driver/src/n32g430_adc.c **** **/
 989:../firmware/n32g430_std_periph_driver/src/n32g430_adc.c **** void ADC_Temperature_Sensor_And_Vrefint_Channel_Enable(void)
 990:../firmware/n32g430_std_periph_driver/src/n32g430_adc.c **** {
 2646              		.loc 1 990 1
 2647              		.cfi_startproc
 2648              		@ args = 0, pretend = 0, frame = 0
 2649              		@ frame_needed = 1, uses_anonymous_args = 0
 2650              		@ link register save eliminated.
 2651 0000 80B4     		push	{r7}
 2652              	.LCFI197:
 2653              		.cfi_def_cfa_offset 4
 2654              		.cfi_offset 7, -4
 2655 0002 00AF     		add	r7, sp, #0
 2656              	.LCFI198:
 2657              		.cfi_def_cfa_register 7
 991:../firmware/n32g430_std_periph_driver/src/n32g430_adc.c ****     /* Enable the temperature sensor and Vrefint channel*/
 992:../firmware/n32g430_std_periph_driver/src/n32g430_adc.c ****     ADC->CTRL2 |= ADC_TS_VREFINT_CHANNEL_ENABLE;
 2658              		.loc 1 992 8
 2659 0004 084B     		ldr	r3, .L161
 2660 0006 9B68     		ldr	r3, [r3, #8]
 2661 0008 074A     		ldr	r2, .L161
 2662              		.loc 1 992 16
 2663 000a 43F40003 		orr	r3, r3, #8388608
 2664 000e 9360     		str	r3, [r2, #8]
 993:../firmware/n32g430_std_periph_driver/src/n32g430_adc.c ****     /* Enable the temperature sensor and Vrefint in AEFC register */
 994:../firmware/n32g430_std_periph_driver/src/n32g430_adc.c ****     _EnVref1p2()
 2665              		.loc 1 994 5
 2666 0010 064B     		ldr	r3, .L161+4
 2667 0012 1B68     		ldr	r3, [r3]
 2668 0014 054A     		ldr	r2, .L161+4
 2669 0016 43F48063 		orr	r3, r3, #1024
 2670 001a 1360     		str	r3, [r2]
 995:../firmware/n32g430_std_periph_driver/src/n32g430_adc.c **** }
 2671              		.loc 1 995 1
 2672 001c 00BF     		nop
ARM GAS  C:\Users\ZShuai\AppData\Local\Temp\ccI2BPXx.s 			page 65


 2673 001e BD46     		mov	sp, r7
 2674              	.LCFI199:
 2675              		.cfi_def_cfa_register 13
 2676              		@ sp needed
 2677 0020 5DF8047B 		ldr	r7, [sp], #4
 2678              	.LCFI200:
 2679              		.cfi_restore 7
 2680              		.cfi_def_cfa_offset 0
 2681 0024 7047     		bx	lr
 2682              	.L162:
 2683 0026 00BF     		.align	2
 2684              	.L161:
 2685 0028 00080240 		.word	1073874944
 2686 002c 20180040 		.word	1073748000
 2687              		.cfi_endproc
 2688              	.LFE168:
 2690              		.section	.text.ADC_Temperature_Sensor_And_Vrefint_Channel_Disable,"ax",%progbits
 2691              		.align	1
 2692              		.global	ADC_Temperature_Sensor_And_Vrefint_Channel_Disable
 2693              		.syntax unified
 2694              		.thumb
 2695              		.thumb_func
 2697              	ADC_Temperature_Sensor_And_Vrefint_Channel_Disable:
 2698              	.LFB169:
 996:../firmware/n32g430_std_periph_driver/src/n32g430_adc.c **** 
 997:../firmware/n32g430_std_periph_driver/src/n32g430_adc.c **** /**
 998:../firmware/n32g430_std_periph_driver/src/n32g430_adc.c **** *\*\name    ADC_Temperature_Sensor_And_Vrefint_Channel_Disable.
 999:../firmware/n32g430_std_periph_driver/src/n32g430_adc.c **** *\*\fun     Disable ADC Temperature sensor and VREFINT channel.
1000:../firmware/n32g430_std_periph_driver/src/n32g430_adc.c **** *\*\return  none
1001:../firmware/n32g430_std_periph_driver/src/n32g430_adc.c **** **/
1002:../firmware/n32g430_std_periph_driver/src/n32g430_adc.c **** void ADC_Temperature_Sensor_And_Vrefint_Channel_Disable(void)
1003:../firmware/n32g430_std_periph_driver/src/n32g430_adc.c **** {
 2699              		.loc 1 1003 1
 2700              		.cfi_startproc
 2701              		@ args = 0, pretend = 0, frame = 0
 2702              		@ frame_needed = 1, uses_anonymous_args = 0
 2703              		@ link register save eliminated.
 2704 0000 80B4     		push	{r7}
 2705              	.LCFI201:
 2706              		.cfi_def_cfa_offset 4
 2707              		.cfi_offset 7, -4
 2708 0002 00AF     		add	r7, sp, #0
 2709              	.LCFI202:
 2710              		.cfi_def_cfa_register 7
1004:../firmware/n32g430_std_periph_driver/src/n32g430_adc.c ****     /* Disable the temperature sensor and Vrefint channel*/
1005:../firmware/n32g430_std_periph_driver/src/n32g430_adc.c ****     ADC->CTRL2 &= ADC_TS_VREFINT_CHANNEL_DISABLE;
 2711              		.loc 1 1005 8
 2712 0004 084B     		ldr	r3, .L164
 2713 0006 9B68     		ldr	r3, [r3, #8]
 2714 0008 074A     		ldr	r2, .L164
 2715              		.loc 1 1005 16
 2716 000a 23F40003 		bic	r3, r3, #8388608
 2717 000e 9360     		str	r3, [r2, #8]
1006:../firmware/n32g430_std_periph_driver/src/n32g430_adc.c ****     /* Disable the temperature sensor and Vrefint in AEFC register */
1007:../firmware/n32g430_std_periph_driver/src/n32g430_adc.c ****     _DisVref1p2()
 2718              		.loc 1 1007 5
 2719 0010 064B     		ldr	r3, .L164+4
ARM GAS  C:\Users\ZShuai\AppData\Local\Temp\ccI2BPXx.s 			page 66


 2720 0012 1B68     		ldr	r3, [r3]
 2721 0014 054A     		ldr	r2, .L164+4
 2722 0016 23F48063 		bic	r3, r3, #1024
 2723 001a 1360     		str	r3, [r2]
1008:../firmware/n32g430_std_periph_driver/src/n32g430_adc.c **** }
 2724              		.loc 1 1008 1
 2725 001c 00BF     		nop
 2726 001e BD46     		mov	sp, r7
 2727              	.LCFI203:
 2728              		.cfi_def_cfa_register 13
 2729              		@ sp needed
 2730 0020 5DF8047B 		ldr	r7, [sp], #4
 2731              	.LCFI204:
 2732              		.cfi_restore 7
 2733              		.cfi_def_cfa_offset 0
 2734 0024 7047     		bx	lr
 2735              	.L165:
 2736 0026 00BF     		.align	2
 2737              	.L164:
 2738 0028 00080240 		.word	1073874944
 2739 002c 20180040 		.word	1073748000
 2740              		.cfi_endproc
 2741              	.LFE169:
 2743              		.section	.text.ADC_INTFlag_Status_Get,"ax",%progbits
 2744              		.align	1
 2745              		.global	ADC_INTFlag_Status_Get
 2746              		.syntax unified
 2747              		.thumb
 2748              		.thumb_func
 2750              	ADC_INTFlag_Status_Get:
 2751              	.LFB170:
1009:../firmware/n32g430_std_periph_driver/src/n32g430_adc.c **** 
1010:../firmware/n32g430_std_periph_driver/src/n32g430_adc.c **** /**
1011:../firmware/n32g430_std_periph_driver/src/n32g430_adc.c **** *\*\name    ADC_INTFlag_Status_Get.
1012:../firmware/n32g430_std_periph_driver/src/n32g430_adc.c **** *\*\fun     Get ADC flag Status.
1013:../firmware/n32g430_std_periph_driver/src/n32g430_adc.c **** *\*\param   adc_flag :
1014:../firmware/n32g430_std_periph_driver/src/n32g430_adc.c **** *\*\          - ADC_INT_FLAG_AWDG
1015:../firmware/n32g430_std_periph_driver/src/n32g430_adc.c **** *\*\          - ADC_INT_FLAG_ENDC
1016:../firmware/n32g430_std_periph_driver/src/n32g430_adc.c **** *\*\          - ADC_INT_FLAG_JENDC
1017:../firmware/n32g430_std_periph_driver/src/n32g430_adc.c **** *\*\          - ADC_INT_FLAG_ENDCA
1018:../firmware/n32g430_std_periph_driver/src/n32g430_adc.c **** *\*\          - ADC_INT_FLAG_JENDCA
1019:../firmware/n32g430_std_periph_driver/src/n32g430_adc.c **** *\*\return  SET or RESET
1020:../firmware/n32g430_std_periph_driver/src/n32g430_adc.c **** **/
1021:../firmware/n32g430_std_periph_driver/src/n32g430_adc.c **** FlagStatus ADC_INTFlag_Status_Get(uint8_t adc_flag)
1022:../firmware/n32g430_std_periph_driver/src/n32g430_adc.c **** {
 2752              		.loc 1 1022 1
 2753              		.cfi_startproc
 2754              		@ args = 0, pretend = 0, frame = 8
 2755              		@ frame_needed = 1, uses_anonymous_args = 0
 2756              		@ link register save eliminated.
 2757 0000 80B4     		push	{r7}
 2758              	.LCFI205:
 2759              		.cfi_def_cfa_offset 4
 2760              		.cfi_offset 7, -4
 2761 0002 83B0     		sub	sp, sp, #12
 2762              	.LCFI206:
 2763              		.cfi_def_cfa_offset 16
ARM GAS  C:\Users\ZShuai\AppData\Local\Temp\ccI2BPXx.s 			page 67


 2764 0004 00AF     		add	r7, sp, #0
 2765              	.LCFI207:
 2766              		.cfi_def_cfa_register 7
 2767 0006 0346     		mov	r3, r0
 2768 0008 FB71     		strb	r3, [r7, #7]
1023:../firmware/n32g430_std_periph_driver/src/n32g430_adc.c ****     /* Check the status of ADC flag */
1024:../firmware/n32g430_std_periph_driver/src/n32g430_adc.c ****     if ((ADC->STS & adc_flag) != (uint8_t)RESET)
 2769              		.loc 1 1024 13
 2770 000a 074B     		ldr	r3, .L169
 2771 000c 1A68     		ldr	r2, [r3]
 2772              		.loc 1 1024 19
 2773 000e FB79     		ldrb	r3, [r7, #7]	@ zero_extendqisi2
 2774 0010 1340     		ands	r3, r3, r2
 2775              		.loc 1 1024 8
 2776 0012 002B     		cmp	r3, #0
 2777 0014 01D0     		beq	.L167
1025:../firmware/n32g430_std_periph_driver/src/n32g430_adc.c ****     {
1026:../firmware/n32g430_std_periph_driver/src/n32g430_adc.c ****         /* ADC_FLAG is set */
1027:../firmware/n32g430_std_periph_driver/src/n32g430_adc.c ****         return SET;
 2778              		.loc 1 1027 16
 2779 0016 0123     		movs	r3, #1
 2780 0018 00E0     		b	.L168
 2781              	.L167:
1028:../firmware/n32g430_std_periph_driver/src/n32g430_adc.c ****     }
1029:../firmware/n32g430_std_periph_driver/src/n32g430_adc.c ****     else
1030:../firmware/n32g430_std_periph_driver/src/n32g430_adc.c ****     {
1031:../firmware/n32g430_std_periph_driver/src/n32g430_adc.c ****         /* ADC_FLAG is reset */
1032:../firmware/n32g430_std_periph_driver/src/n32g430_adc.c ****         return RESET;
 2782              		.loc 1 1032 16
 2783 001a 0023     		movs	r3, #0
 2784              	.L168:
1033:../firmware/n32g430_std_periph_driver/src/n32g430_adc.c ****     }
1034:../firmware/n32g430_std_periph_driver/src/n32g430_adc.c **** }
 2785              		.loc 1 1034 1
 2786 001c 1846     		mov	r0, r3
 2787 001e 0C37     		adds	r7, r7, #12
 2788              	.LCFI208:
 2789              		.cfi_def_cfa_offset 4
 2790 0020 BD46     		mov	sp, r7
 2791              	.LCFI209:
 2792              		.cfi_def_cfa_register 13
 2793              		@ sp needed
 2794 0022 5DF8047B 		ldr	r7, [sp], #4
 2795              	.LCFI210:
 2796              		.cfi_restore 7
 2797              		.cfi_def_cfa_offset 0
 2798 0026 7047     		bx	lr
 2799              	.L170:
 2800              		.align	2
 2801              	.L169:
 2802 0028 00080240 		.word	1073874944
 2803              		.cfi_endproc
 2804              	.LFE170:
 2806              		.section	.text.ADC_Flag_Status_Get,"ax",%progbits
 2807              		.align	1
 2808              		.global	ADC_Flag_Status_Get
 2809              		.syntax unified
ARM GAS  C:\Users\ZShuai\AppData\Local\Temp\ccI2BPXx.s 			page 68


 2810              		.thumb
 2811              		.thumb_func
 2813              	ADC_Flag_Status_Get:
 2814              	.LFB171:
1035:../firmware/n32g430_std_periph_driver/src/n32g430_adc.c **** 
1036:../firmware/n32g430_std_periph_driver/src/n32g430_adc.c **** /**
1037:../firmware/n32g430_std_periph_driver/src/n32g430_adc.c **** *\*\name    ADC_Flag_Status_Get.
1038:../firmware/n32g430_std_periph_driver/src/n32g430_adc.c **** *\*\fun     Get ADC flag Status.
1039:../firmware/n32g430_std_periph_driver/src/n32g430_adc.c **** *\*\param   selflag :
1040:../firmware/n32g430_std_periph_driver/src/n32g430_adc.c **** *\*\          - ADC_RUN_FLAG
1041:../firmware/n32g430_std_periph_driver/src/n32g430_adc.c **** *\*\          - ADC_RD_FLAG
1042:../firmware/n32g430_std_periph_driver/src/n32g430_adc.c **** *\*\param   adc_runflag :
1043:../firmware/n32g430_std_periph_driver/src/n32g430_adc.c **** *\*\          - ADC_FLAG_AWDG
1044:../firmware/n32g430_std_periph_driver/src/n32g430_adc.c **** *\*\          - ADC_FLAG_ENDC
1045:../firmware/n32g430_std_periph_driver/src/n32g430_adc.c **** *\*\          - ADC_FLAG_JENDC
1046:../firmware/n32g430_std_periph_driver/src/n32g430_adc.c **** *\*\          - ADC_FLAG_JSTR
1047:../firmware/n32g430_std_periph_driver/src/n32g430_adc.c **** *\*\          - ADC_FLAG_STR
1048:../firmware/n32g430_std_periph_driver/src/n32g430_adc.c **** *\*\          - ADC_FLAG_ENDCA
1049:../firmware/n32g430_std_periph_driver/src/n32g430_adc.c **** *\*\          - ADC_FLAG_JENDCA
1050:../firmware/n32g430_std_periph_driver/src/n32g430_adc.c **** *\*\param   adc_rdflag :
1051:../firmware/n32g430_std_periph_driver/src/n32g430_adc.c **** *\*\          - ADC_FLAG_RDY
1052:../firmware/n32g430_std_periph_driver/src/n32g430_adc.c **** *\*\          - ADC_FLAG_PD_RDY
1053:../firmware/n32g430_std_periph_driver/src/n32g430_adc.c **** *\*\return  SET or RESET
1054:../firmware/n32g430_std_periph_driver/src/n32g430_adc.c **** **/
1055:../firmware/n32g430_std_periph_driver/src/n32g430_adc.c **** FlagStatus ADC_Flag_Status_Get(uint8_t selflag, uint8_t adc_runflag, uint8_t adc_rdflag)
1056:../firmware/n32g430_std_periph_driver/src/n32g430_adc.c **** {
 2815              		.loc 1 1056 1
 2816              		.cfi_startproc
 2817              		@ args = 0, pretend = 0, frame = 8
 2818              		@ frame_needed = 1, uses_anonymous_args = 0
 2819              		@ link register save eliminated.
 2820 0000 80B4     		push	{r7}
 2821              	.LCFI211:
 2822              		.cfi_def_cfa_offset 4
 2823              		.cfi_offset 7, -4
 2824 0002 83B0     		sub	sp, sp, #12
 2825              	.LCFI212:
 2826              		.cfi_def_cfa_offset 16
 2827 0004 00AF     		add	r7, sp, #0
 2828              	.LCFI213:
 2829              		.cfi_def_cfa_register 7
 2830 0006 0346     		mov	r3, r0
 2831 0008 FB71     		strb	r3, [r7, #7]
 2832 000a 0B46     		mov	r3, r1
 2833 000c BB71     		strb	r3, [r7, #6]
 2834 000e 1346     		mov	r3, r2
 2835 0010 7B71     		strb	r3, [r7, #5]
1057:../firmware/n32g430_std_periph_driver/src/n32g430_adc.c ****     if(selflag == ADC_RUN_FLAG)
 2836              		.loc 1 1057 7
 2837 0012 FB79     		ldrb	r3, [r7, #7]	@ zero_extendqisi2
 2838 0014 012B     		cmp	r3, #1
 2839 0016 09D1     		bne	.L172
1058:../firmware/n32g430_std_periph_driver/src/n32g430_adc.c ****     {    
1059:../firmware/n32g430_std_periph_driver/src/n32g430_adc.c ****         /* Check the status of ADC flag */
1060:../firmware/n32g430_std_periph_driver/src/n32g430_adc.c ****         if ((ADC->STS & adc_runflag) != (uint8_t)RESET)
 2840              		.loc 1 1060 17
 2841 0018 0C4B     		ldr	r3, .L176
ARM GAS  C:\Users\ZShuai\AppData\Local\Temp\ccI2BPXx.s 			page 69


 2842 001a 1A68     		ldr	r2, [r3]
 2843              		.loc 1 1060 23
 2844 001c BB79     		ldrb	r3, [r7, #6]	@ zero_extendqisi2
 2845 001e 1340     		ands	r3, r3, r2
 2846              		.loc 1 1060 12
 2847 0020 002B     		cmp	r3, #0
 2848 0022 01D0     		beq	.L173
1061:../firmware/n32g430_std_periph_driver/src/n32g430_adc.c ****         {
1062:../firmware/n32g430_std_periph_driver/src/n32g430_adc.c ****             /* ADC_FLAG is set */
1063:../firmware/n32g430_std_periph_driver/src/n32g430_adc.c ****             return SET;
 2849              		.loc 1 1063 20
 2850 0024 0123     		movs	r3, #1
 2851 0026 0AE0     		b	.L174
 2852              	.L173:
1064:../firmware/n32g430_std_periph_driver/src/n32g430_adc.c ****         }
1065:../firmware/n32g430_std_periph_driver/src/n32g430_adc.c ****         else
1066:../firmware/n32g430_std_periph_driver/src/n32g430_adc.c ****         {
1067:../firmware/n32g430_std_periph_driver/src/n32g430_adc.c ****             /* ADC_FLAG is reset */
1068:../firmware/n32g430_std_periph_driver/src/n32g430_adc.c ****             return RESET;
 2853              		.loc 1 1068 20
 2854 0028 0023     		movs	r3, #0
 2855 002a 08E0     		b	.L174
 2856              	.L172:
1069:../firmware/n32g430_std_periph_driver/src/n32g430_adc.c ****         }
1070:../firmware/n32g430_std_periph_driver/src/n32g430_adc.c ****     }
1071:../firmware/n32g430_std_periph_driver/src/n32g430_adc.c ****     else
1072:../firmware/n32g430_std_periph_driver/src/n32g430_adc.c ****     {
1073:../firmware/n32g430_std_periph_driver/src/n32g430_adc.c ****         if ((ADC->CTRL3 & adc_rdflag) != (uint8_t)RESET)
 2857              		.loc 1 1073 17
 2858 002c 074B     		ldr	r3, .L176
 2859 002e 9A6D     		ldr	r2, [r3, #88]
 2860              		.loc 1 1073 25
 2861 0030 7B79     		ldrb	r3, [r7, #5]	@ zero_extendqisi2
 2862 0032 1340     		ands	r3, r3, r2
 2863              		.loc 1 1073 12
 2864 0034 002B     		cmp	r3, #0
 2865 0036 01D0     		beq	.L175
1074:../firmware/n32g430_std_periph_driver/src/n32g430_adc.c ****         {
1075:../firmware/n32g430_std_periph_driver/src/n32g430_adc.c ****             /* ADC_FLAG is set */
1076:../firmware/n32g430_std_periph_driver/src/n32g430_adc.c ****             return SET;
 2866              		.loc 1 1076 20
 2867 0038 0123     		movs	r3, #1
 2868 003a 00E0     		b	.L174
 2869              	.L175:
1077:../firmware/n32g430_std_periph_driver/src/n32g430_adc.c ****         }
1078:../firmware/n32g430_std_periph_driver/src/n32g430_adc.c ****         else
1079:../firmware/n32g430_std_periph_driver/src/n32g430_adc.c ****         {
1080:../firmware/n32g430_std_periph_driver/src/n32g430_adc.c ****             /* ADC_FLAG is reset */
1081:../firmware/n32g430_std_periph_driver/src/n32g430_adc.c ****             return RESET;
 2870              		.loc 1 1081 20
 2871 003c 0023     		movs	r3, #0
 2872              	.L174:
1082:../firmware/n32g430_std_periph_driver/src/n32g430_adc.c ****         }
1083:../firmware/n32g430_std_periph_driver/src/n32g430_adc.c ****     }
1084:../firmware/n32g430_std_periph_driver/src/n32g430_adc.c **** }
 2873              		.loc 1 1084 1
 2874 003e 1846     		mov	r0, r3
ARM GAS  C:\Users\ZShuai\AppData\Local\Temp\ccI2BPXx.s 			page 70


 2875 0040 0C37     		adds	r7, r7, #12
 2876              	.LCFI214:
 2877              		.cfi_def_cfa_offset 4
 2878 0042 BD46     		mov	sp, r7
 2879              	.LCFI215:
 2880              		.cfi_def_cfa_register 13
 2881              		@ sp needed
 2882 0044 5DF8047B 		ldr	r7, [sp], #4
 2883              	.LCFI216:
 2884              		.cfi_restore 7
 2885              		.cfi_def_cfa_offset 0
 2886 0048 7047     		bx	lr
 2887              	.L177:
 2888 004a 00BF     		.align	2
 2889              	.L176:
 2890 004c 00080240 		.word	1073874944
 2891              		.cfi_endproc
 2892              	.LFE171:
 2894              		.section	.text.ADC_INTFlag_Status_Clear,"ax",%progbits
 2895              		.align	1
 2896              		.global	ADC_INTFlag_Status_Clear
 2897              		.syntax unified
 2898              		.thumb
 2899              		.thumb_func
 2901              	ADC_INTFlag_Status_Clear:
 2902              	.LFB172:
1085:../firmware/n32g430_std_periph_driver/src/n32g430_adc.c **** 
1086:../firmware/n32g430_std_periph_driver/src/n32g430_adc.c **** 
1087:../firmware/n32g430_std_periph_driver/src/n32g430_adc.c **** /**
1088:../firmware/n32g430_std_periph_driver/src/n32g430_adc.c **** *\*\name    ADC_INTFlag_Status_Clear.
1089:../firmware/n32g430_std_periph_driver/src/n32g430_adc.c **** *\*\fun     Clear ADC flag Status.
1090:../firmware/n32g430_std_periph_driver/src/n32g430_adc.c **** *\*\param   adc_flag :
1091:../firmware/n32g430_std_periph_driver/src/n32g430_adc.c **** *\*\          - ADC_INT_FLAG_AWDG
1092:../firmware/n32g430_std_periph_driver/src/n32g430_adc.c **** *\*\          - ADC_INT_FLAG_ENDC
1093:../firmware/n32g430_std_periph_driver/src/n32g430_adc.c **** *\*\          - ADC_INT_FLAG_JENDC
1094:../firmware/n32g430_std_periph_driver/src/n32g430_adc.c **** *\*\          - ADC_INT_FLAG_ENDCA
1095:../firmware/n32g430_std_periph_driver/src/n32g430_adc.c **** *\*\          - ADC_INT_FLAG_JENDCA
1096:../firmware/n32g430_std_periph_driver/src/n32g430_adc.c **** *\*\return  none
1097:../firmware/n32g430_std_periph_driver/src/n32g430_adc.c **** **/
1098:../firmware/n32g430_std_periph_driver/src/n32g430_adc.c **** void ADC_INTFlag_Status_Clear(uint8_t adc_flag)
1099:../firmware/n32g430_std_periph_driver/src/n32g430_adc.c **** {
 2903              		.loc 1 1099 1
 2904              		.cfi_startproc
 2905              		@ args = 0, pretend = 0, frame = 8
 2906              		@ frame_needed = 1, uses_anonymous_args = 0
 2907              		@ link register save eliminated.
 2908 0000 80B4     		push	{r7}
 2909              	.LCFI217:
 2910              		.cfi_def_cfa_offset 4
 2911              		.cfi_offset 7, -4
 2912 0002 83B0     		sub	sp, sp, #12
 2913              	.LCFI218:
 2914              		.cfi_def_cfa_offset 16
 2915 0004 00AF     		add	r7, sp, #0
 2916              	.LCFI219:
 2917              		.cfi_def_cfa_register 7
 2918 0006 0346     		mov	r3, r0
ARM GAS  C:\Users\ZShuai\AppData\Local\Temp\ccI2BPXx.s 			page 71


 2919 0008 FB71     		strb	r3, [r7, #7]
1100:../firmware/n32g430_std_periph_driver/src/n32g430_adc.c ****     /* Clear the selected ADC flag Status */
1101:../firmware/n32g430_std_periph_driver/src/n32g430_adc.c ****     ADC->STS &= ~(uint32_t)adc_flag;
 2920              		.loc 1 1101 8
 2921 000a 064B     		ldr	r3, .L179
 2922 000c 1A68     		ldr	r2, [r3]
 2923              		.loc 1 1101 18
 2924 000e FB79     		ldrb	r3, [r7, #7]	@ zero_extendqisi2
 2925              		.loc 1 1101 17
 2926 0010 DB43     		mvns	r3, r3
 2927              		.loc 1 1101 8
 2928 0012 0449     		ldr	r1, .L179
 2929              		.loc 1 1101 14
 2930 0014 1340     		ands	r3, r3, r2
 2931 0016 0B60     		str	r3, [r1]
1102:../firmware/n32g430_std_periph_driver/src/n32g430_adc.c **** }
 2932              		.loc 1 1102 1
 2933 0018 00BF     		nop
 2934 001a 0C37     		adds	r7, r7, #12
 2935              	.LCFI220:
 2936              		.cfi_def_cfa_offset 4
 2937 001c BD46     		mov	sp, r7
 2938              	.LCFI221:
 2939              		.cfi_def_cfa_register 13
 2940              		@ sp needed
 2941 001e 5DF8047B 		ldr	r7, [sp], #4
 2942              	.LCFI222:
 2943              		.cfi_restore 7
 2944              		.cfi_def_cfa_offset 0
 2945 0022 7047     		bx	lr
 2946              	.L180:
 2947              		.align	2
 2948              	.L179:
 2949 0024 00080240 		.word	1073874944
 2950              		.cfi_endproc
 2951              	.LFE172:
 2953              		.section	.text.ADC_Flag_Status_Clear,"ax",%progbits
 2954              		.align	1
 2955              		.global	ADC_Flag_Status_Clear
 2956              		.syntax unified
 2957              		.thumb
 2958              		.thumb_func
 2960              	ADC_Flag_Status_Clear:
 2961              	.LFB173:
1103:../firmware/n32g430_std_periph_driver/src/n32g430_adc.c **** 
1104:../firmware/n32g430_std_periph_driver/src/n32g430_adc.c **** /**
1105:../firmware/n32g430_std_periph_driver/src/n32g430_adc.c **** *\*\name    ADC_Flag_Status_Clear.
1106:../firmware/n32g430_std_periph_driver/src/n32g430_adc.c **** *\*\fun     Clear ADC flag Status.
1107:../firmware/n32g430_std_periph_driver/src/n32g430_adc.c **** *\*\param   adc_flag :
1108:../firmware/n32g430_std_periph_driver/src/n32g430_adc.c **** *\*\          - ADC_FLAG_AWDG
1109:../firmware/n32g430_std_periph_driver/src/n32g430_adc.c **** *\*\          - ADC_FLAG_ENDC
1110:../firmware/n32g430_std_periph_driver/src/n32g430_adc.c **** *\*\          - ADC_FLAG_JENDC
1111:../firmware/n32g430_std_periph_driver/src/n32g430_adc.c **** *\*\          - ADC_FLAG_JSTR
1112:../firmware/n32g430_std_periph_driver/src/n32g430_adc.c **** *\*\          - ADC_FLAG_STR
1113:../firmware/n32g430_std_periph_driver/src/n32g430_adc.c **** *\*\          - ADC_FLAG_ENDCA
1114:../firmware/n32g430_std_periph_driver/src/n32g430_adc.c **** *\*\          - ADC_FLAG_JENDCA
1115:../firmware/n32g430_std_periph_driver/src/n32g430_adc.c **** *\*\return  none
ARM GAS  C:\Users\ZShuai\AppData\Local\Temp\ccI2BPXx.s 			page 72


1116:../firmware/n32g430_std_periph_driver/src/n32g430_adc.c **** **/
1117:../firmware/n32g430_std_periph_driver/src/n32g430_adc.c **** void ADC_Flag_Status_Clear(uint8_t adc_flag)
1118:../firmware/n32g430_std_periph_driver/src/n32g430_adc.c **** {
 2962              		.loc 1 1118 1
 2963              		.cfi_startproc
 2964              		@ args = 0, pretend = 0, frame = 8
 2965              		@ frame_needed = 1, uses_anonymous_args = 0
 2966              		@ link register save eliminated.
 2967 0000 80B4     		push	{r7}
 2968              	.LCFI223:
 2969              		.cfi_def_cfa_offset 4
 2970              		.cfi_offset 7, -4
 2971 0002 83B0     		sub	sp, sp, #12
 2972              	.LCFI224:
 2973              		.cfi_def_cfa_offset 16
 2974 0004 00AF     		add	r7, sp, #0
 2975              	.LCFI225:
 2976              		.cfi_def_cfa_register 7
 2977 0006 0346     		mov	r3, r0
 2978 0008 FB71     		strb	r3, [r7, #7]
1119:../firmware/n32g430_std_periph_driver/src/n32g430_adc.c ****     /* Clear the selected ADC flag Status */
1120:../firmware/n32g430_std_periph_driver/src/n32g430_adc.c ****     ADC->STS &= ~(uint32_t)adc_flag;
 2979              		.loc 1 1120 8
 2980 000a 064B     		ldr	r3, .L182
 2981 000c 1A68     		ldr	r2, [r3]
 2982              		.loc 1 1120 18
 2983 000e FB79     		ldrb	r3, [r7, #7]	@ zero_extendqisi2
 2984              		.loc 1 1120 17
 2985 0010 DB43     		mvns	r3, r3
 2986              		.loc 1 1120 8
 2987 0012 0449     		ldr	r1, .L182
 2988              		.loc 1 1120 14
 2989 0014 1340     		ands	r3, r3, r2
 2990 0016 0B60     		str	r3, [r1]
1121:../firmware/n32g430_std_periph_driver/src/n32g430_adc.c **** }
 2991              		.loc 1 1121 1
 2992 0018 00BF     		nop
 2993 001a 0C37     		adds	r7, r7, #12
 2994              	.LCFI226:
 2995              		.cfi_def_cfa_offset 4
 2996 001c BD46     		mov	sp, r7
 2997              	.LCFI227:
 2998              		.cfi_def_cfa_register 13
 2999              		@ sp needed
 3000 001e 5DF8047B 		ldr	r7, [sp], #4
 3001              	.LCFI228:
 3002              		.cfi_restore 7
 3003              		.cfi_def_cfa_offset 0
 3004 0022 7047     		bx	lr
 3005              	.L183:
 3006              		.align	2
 3007              	.L182:
 3008 0024 00080240 		.word	1073874944
 3009              		.cfi_endproc
 3010              	.LFE173:
 3012              		.section	.text.ADC_Vbat_Monitor_Enable,"ax",%progbits
 3013              		.align	1
ARM GAS  C:\Users\ZShuai\AppData\Local\Temp\ccI2BPXx.s 			page 73


 3014              		.global	ADC_Vbat_Monitor_Enable
 3015              		.syntax unified
 3016              		.thumb
 3017              		.thumb_func
 3019              	ADC_Vbat_Monitor_Enable:
 3020              	.LFB174:
1122:../firmware/n32g430_std_periph_driver/src/n32g430_adc.c **** /**
1123:../firmware/n32g430_std_periph_driver/src/n32g430_adc.c **** *\*\name    ADC_Vbat_Monitor_Enable.
1124:../firmware/n32g430_std_periph_driver/src/n32g430_adc.c **** *\*\fun     Enable ADC Vbat monitor.
1125:../firmware/n32g430_std_periph_driver/src/n32g430_adc.c **** *\*\return  none
1126:../firmware/n32g430_std_periph_driver/src/n32g430_adc.c **** **/
1127:../firmware/n32g430_std_periph_driver/src/n32g430_adc.c **** void ADC_Vbat_Monitor_Enable(void)
1128:../firmware/n32g430_std_periph_driver/src/n32g430_adc.c **** {
 3021              		.loc 1 1128 1
 3022              		.cfi_startproc
 3023              		@ args = 0, pretend = 0, frame = 0
 3024              		@ frame_needed = 1, uses_anonymous_args = 0
 3025              		@ link register save eliminated.
 3026 0000 80B4     		push	{r7}
 3027              	.LCFI229:
 3028              		.cfi_def_cfa_offset 4
 3029              		.cfi_offset 7, -4
 3030 0002 00AF     		add	r7, sp, #0
 3031              	.LCFI230:
 3032              		.cfi_def_cfa_register 7
1129:../firmware/n32g430_std_periph_driver/src/n32g430_adc.c ****     /* Enable Vbat monitor */
1130:../firmware/n32g430_std_periph_driver/src/n32g430_adc.c ****     ADC->CTRL3 |= ADC_VBAT_MONITOR_ENABLE;
 3033              		.loc 1 1130 8
 3034 0004 084B     		ldr	r3, .L185
 3035 0006 9B6D     		ldr	r3, [r3, #88]
 3036 0008 074A     		ldr	r2, .L185
 3037              		.loc 1 1130 16
 3038 000a 43F40063 		orr	r3, r3, #2048
 3039 000e 9365     		str	r3, [r2, #88]
1131:../firmware/n32g430_std_periph_driver/src/n32g430_adc.c ****     /* Enable Vbat monitor in AFEC register */
1132:../firmware/n32g430_std_periph_driver/src/n32g430_adc.c ****     _EnVref1p2()
 3040              		.loc 1 1132 5
 3041 0010 064B     		ldr	r3, .L185+4
 3042 0012 1B68     		ldr	r3, [r3]
 3043 0014 054A     		ldr	r2, .L185+4
 3044 0016 43F48063 		orr	r3, r3, #1024
 3045 001a 1360     		str	r3, [r2]
1133:../firmware/n32g430_std_periph_driver/src/n32g430_adc.c **** }
 3046              		.loc 1 1133 1
 3047 001c 00BF     		nop
 3048 001e BD46     		mov	sp, r7
 3049              	.LCFI231:
 3050              		.cfi_def_cfa_register 13
 3051              		@ sp needed
 3052 0020 5DF8047B 		ldr	r7, [sp], #4
 3053              	.LCFI232:
 3054              		.cfi_restore 7
 3055              		.cfi_def_cfa_offset 0
 3056 0024 7047     		bx	lr
 3057              	.L186:
 3058 0026 00BF     		.align	2
 3059              	.L185:
ARM GAS  C:\Users\ZShuai\AppData\Local\Temp\ccI2BPXx.s 			page 74


 3060 0028 00080240 		.word	1073874944
 3061 002c 20180040 		.word	1073748000
 3062              		.cfi_endproc
 3063              	.LFE174:
 3065              		.section	.text.ADC_Vbat_Monitor_Disable,"ax",%progbits
 3066              		.align	1
 3067              		.global	ADC_Vbat_Monitor_Disable
 3068              		.syntax unified
 3069              		.thumb
 3070              		.thumb_func
 3072              	ADC_Vbat_Monitor_Disable:
 3073              	.LFB175:
1134:../firmware/n32g430_std_periph_driver/src/n32g430_adc.c **** 
1135:../firmware/n32g430_std_periph_driver/src/n32g430_adc.c **** /**
1136:../firmware/n32g430_std_periph_driver/src/n32g430_adc.c **** *\*\name    ADC_Vbat_Monitor_Disable.
1137:../firmware/n32g430_std_periph_driver/src/n32g430_adc.c **** *\*\fun     Disable ADC Vbat monitor.
1138:../firmware/n32g430_std_periph_driver/src/n32g430_adc.c **** *\*\return  none
1139:../firmware/n32g430_std_periph_driver/src/n32g430_adc.c **** **/
1140:../firmware/n32g430_std_periph_driver/src/n32g430_adc.c **** void ADC_Vbat_Monitor_Disable(void)
1141:../firmware/n32g430_std_periph_driver/src/n32g430_adc.c **** {
 3074              		.loc 1 1141 1
 3075              		.cfi_startproc
 3076              		@ args = 0, pretend = 0, frame = 0
 3077              		@ frame_needed = 1, uses_anonymous_args = 0
 3078              		@ link register save eliminated.
 3079 0000 80B4     		push	{r7}
 3080              	.LCFI233:
 3081              		.cfi_def_cfa_offset 4
 3082              		.cfi_offset 7, -4
 3083 0002 00AF     		add	r7, sp, #0
 3084              	.LCFI234:
 3085              		.cfi_def_cfa_register 7
1142:../firmware/n32g430_std_periph_driver/src/n32g430_adc.c ****     /* Disable Vbat monitor */
1143:../firmware/n32g430_std_periph_driver/src/n32g430_adc.c ****     ADC->CTRL3 &= ADC_VBAT_MONITOR_DISABLE;
 3086              		.loc 1 1143 8
 3087 0004 084B     		ldr	r3, .L188
 3088 0006 9B6D     		ldr	r3, [r3, #88]
 3089 0008 074A     		ldr	r2, .L188
 3090              		.loc 1 1143 16
 3091 000a 23F40063 		bic	r3, r3, #2048
 3092 000e 9365     		str	r3, [r2, #88]
1144:../firmware/n32g430_std_periph_driver/src/n32g430_adc.c ****     /* Disable Vbat monitor in AFEC register */
1145:../firmware/n32g430_std_periph_driver/src/n32g430_adc.c ****     _DisVref1p2()
 3093              		.loc 1 1145 5
 3094 0010 064B     		ldr	r3, .L188+4
 3095 0012 1B68     		ldr	r3, [r3]
 3096 0014 054A     		ldr	r2, .L188+4
 3097 0016 23F48063 		bic	r3, r3, #1024
 3098 001a 1360     		str	r3, [r2]
1146:../firmware/n32g430_std_periph_driver/src/n32g430_adc.c **** }
 3099              		.loc 1 1146 1
 3100 001c 00BF     		nop
 3101 001e BD46     		mov	sp, r7
 3102              	.LCFI235:
 3103              		.cfi_def_cfa_register 13
 3104              		@ sp needed
 3105 0020 5DF8047B 		ldr	r7, [sp], #4
ARM GAS  C:\Users\ZShuai\AppData\Local\Temp\ccI2BPXx.s 			page 75


 3106              	.LCFI236:
 3107              		.cfi_restore 7
 3108              		.cfi_def_cfa_offset 0
 3109 0024 7047     		bx	lr
 3110              	.L189:
 3111 0026 00BF     		.align	2
 3112              	.L188:
 3113 0028 00080240 		.word	1073874944
 3114 002c 20180040 		.word	1073748000
 3115              		.cfi_endproc
 3116              	.LFE175:
 3118              		.section	.text.ADC_Deep_Power_Mode_Enable,"ax",%progbits
 3119              		.align	1
 3120              		.global	ADC_Deep_Power_Mode_Enable
 3121              		.syntax unified
 3122              		.thumb
 3123              		.thumb_func
 3125              	ADC_Deep_Power_Mode_Enable:
 3126              	.LFB176:
1147:../firmware/n32g430_std_periph_driver/src/n32g430_adc.c **** 
1148:../firmware/n32g430_std_periph_driver/src/n32g430_adc.c **** /**
1149:../firmware/n32g430_std_periph_driver/src/n32g430_adc.c **** *\*\name    ADC_Deep_Power_Mode_Enable.
1150:../firmware/n32g430_std_periph_driver/src/n32g430_adc.c **** *\*\fun     Enable ADC deep power mode.
1151:../firmware/n32g430_std_periph_driver/src/n32g430_adc.c **** *\*\return  none
1152:../firmware/n32g430_std_periph_driver/src/n32g430_adc.c **** **/
1153:../firmware/n32g430_std_periph_driver/src/n32g430_adc.c **** void ADC_Deep_Power_Mode_Enable(void)
1154:../firmware/n32g430_std_periph_driver/src/n32g430_adc.c **** {   
 3127              		.loc 1 1154 1
 3128              		.cfi_startproc
 3129              		@ args = 0, pretend = 0, frame = 0
 3130              		@ frame_needed = 1, uses_anonymous_args = 0
 3131              		@ link register save eliminated.
 3132 0000 80B4     		push	{r7}
 3133              	.LCFI237:
 3134              		.cfi_def_cfa_offset 4
 3135              		.cfi_offset 7, -4
 3136 0002 00AF     		add	r7, sp, #0
 3137              	.LCFI238:
 3138              		.cfi_def_cfa_register 7
1155:../firmware/n32g430_std_periph_driver/src/n32g430_adc.c ****     /* Set the ADC_CTRL3 DPWMOD bit to enable ADC deep power mode */
1156:../firmware/n32g430_std_periph_driver/src/n32g430_adc.c ****     ADC->CTRL3 |= ADC_DEEP_POWER_ENABLE;
 3139              		.loc 1 1156 8
 3140 0004 054B     		ldr	r3, .L191
 3141 0006 9B6D     		ldr	r3, [r3, #88]
 3142 0008 044A     		ldr	r2, .L191
 3143              		.loc 1 1156 16
 3144 000a 43F48063 		orr	r3, r3, #1024
 3145 000e 9365     		str	r3, [r2, #88]
1157:../firmware/n32g430_std_periph_driver/src/n32g430_adc.c **** }
 3146              		.loc 1 1157 1
 3147 0010 00BF     		nop
 3148 0012 BD46     		mov	sp, r7
 3149              	.LCFI239:
 3150              		.cfi_def_cfa_register 13
 3151              		@ sp needed
 3152 0014 5DF8047B 		ldr	r7, [sp], #4
 3153              	.LCFI240:
ARM GAS  C:\Users\ZShuai\AppData\Local\Temp\ccI2BPXx.s 			page 76


 3154              		.cfi_restore 7
 3155              		.cfi_def_cfa_offset 0
 3156 0018 7047     		bx	lr
 3157              	.L192:
 3158 001a 00BF     		.align	2
 3159              	.L191:
 3160 001c 00080240 		.word	1073874944
 3161              		.cfi_endproc
 3162              	.LFE176:
 3164              		.section	.text.ADC_Deep_Power_Mode_Disable,"ax",%progbits
 3165              		.align	1
 3166              		.global	ADC_Deep_Power_Mode_Disable
 3167              		.syntax unified
 3168              		.thumb
 3169              		.thumb_func
 3171              	ADC_Deep_Power_Mode_Disable:
 3172              	.LFB177:
1158:../firmware/n32g430_std_periph_driver/src/n32g430_adc.c **** 
1159:../firmware/n32g430_std_periph_driver/src/n32g430_adc.c **** /**
1160:../firmware/n32g430_std_periph_driver/src/n32g430_adc.c **** *\*\name    ADC_Deep_Power_Mode_Disable.
1161:../firmware/n32g430_std_periph_driver/src/n32g430_adc.c **** *\*\fun     Disable ADC deep power mode.
1162:../firmware/n32g430_std_periph_driver/src/n32g430_adc.c **** *\*\return  none
1163:../firmware/n32g430_std_periph_driver/src/n32g430_adc.c **** **/
1164:../firmware/n32g430_std_periph_driver/src/n32g430_adc.c **** void ADC_Deep_Power_Mode_Disable(void)
1165:../firmware/n32g430_std_periph_driver/src/n32g430_adc.c **** {   
 3173              		.loc 1 1165 1
 3174              		.cfi_startproc
 3175              		@ args = 0, pretend = 0, frame = 0
 3176              		@ frame_needed = 1, uses_anonymous_args = 0
 3177              		@ link register save eliminated.
 3178 0000 80B4     		push	{r7}
 3179              	.LCFI241:
 3180              		.cfi_def_cfa_offset 4
 3181              		.cfi_offset 7, -4
 3182 0002 00AF     		add	r7, sp, #0
 3183              	.LCFI242:
 3184              		.cfi_def_cfa_register 7
1166:../firmware/n32g430_std_periph_driver/src/n32g430_adc.c ****     /* Clear the ADC_CTRL3 DPWMOD bit to disable ADC deep power mode */
1167:../firmware/n32g430_std_periph_driver/src/n32g430_adc.c ****     ADC->CTRL3 &= ADC_DEEP_POWER_DISABLE;
 3185              		.loc 1 1167 8
 3186 0004 054B     		ldr	r3, .L194
 3187 0006 9B6D     		ldr	r3, [r3, #88]
 3188 0008 044A     		ldr	r2, .L194
 3189              		.loc 1 1167 16
 3190 000a 23F48063 		bic	r3, r3, #1024
 3191 000e 9365     		str	r3, [r2, #88]
1168:../firmware/n32g430_std_periph_driver/src/n32g430_adc.c **** }
 3192              		.loc 1 1168 1
 3193 0010 00BF     		nop
 3194 0012 BD46     		mov	sp, r7
 3195              	.LCFI243:
 3196              		.cfi_def_cfa_register 13
 3197              		@ sp needed
 3198 0014 5DF8047B 		ldr	r7, [sp], #4
 3199              	.LCFI244:
 3200              		.cfi_restore 7
 3201              		.cfi_def_cfa_offset 0
ARM GAS  C:\Users\ZShuai\AppData\Local\Temp\ccI2BPXx.s 			page 77


 3202 0018 7047     		bx	lr
 3203              	.L195:
 3204 001a 00BF     		.align	2
 3205              	.L194:
 3206 001c 00080240 		.word	1073874944
 3207              		.cfi_endproc
 3208              	.LFE177:
 3210              		.section	.text.ADC_AHB_Clock_Mode_Config,"ax",%progbits
 3211              		.align	1
 3212              		.global	ADC_AHB_Clock_Mode_Config
 3213              		.syntax unified
 3214              		.thumb
 3215              		.thumb_func
 3217              	ADC_AHB_Clock_Mode_Config:
 3218              	.LFB178:
1169:../firmware/n32g430_std_periph_driver/src/n32g430_adc.c **** 
1170:../firmware/n32g430_std_periph_driver/src/n32g430_adc.c **** /**
1171:../firmware/n32g430_std_periph_driver/src/n32g430_adc.c **** *\*\name    ADC_AHB_Clock_Mode_Config.
1172:../firmware/n32g430_std_periph_driver/src/n32g430_adc.c **** *\*\fun     Configures the ADC AHB clock mode.
1173:../firmware/n32g430_std_periph_driver/src/n32g430_adc.c **** *\*\return  none
1174:../firmware/n32g430_std_periph_driver/src/n32g430_adc.c **** **/
1175:../firmware/n32g430_std_periph_driver/src/n32g430_adc.c **** void ADC_AHB_Clock_Mode_Config(void)
1176:../firmware/n32g430_std_periph_driver/src/n32g430_adc.c **** {   
 3219              		.loc 1 1176 1
 3220              		.cfi_startproc
 3221              		@ args = 0, pretend = 0, frame = 0
 3222              		@ frame_needed = 1, uses_anonymous_args = 0
 3223              		@ link register save eliminated.
 3224 0000 80B4     		push	{r7}
 3225              	.LCFI245:
 3226              		.cfi_def_cfa_offset 4
 3227              		.cfi_offset 7, -4
 3228 0002 00AF     		add	r7, sp, #0
 3229              	.LCFI246:
 3230              		.cfi_def_cfa_register 7
1177:../firmware/n32g430_std_periph_driver/src/n32g430_adc.c ****     /* Clear the ADC_CTRL3 CKMOD bit */
1178:../firmware/n32g430_std_periph_driver/src/n32g430_adc.c ****     ADC->CTRL3 &= ADC_CLOCK_AHB;  
 3231              		.loc 1 1178 8
 3232 0004 054B     		ldr	r3, .L197
 3233 0006 9B6D     		ldr	r3, [r3, #88]
 3234 0008 044A     		ldr	r2, .L197
 3235              		.loc 1 1178 16
 3236 000a 23F01003 		bic	r3, r3, #16
 3237 000e 9365     		str	r3, [r2, #88]
1179:../firmware/n32g430_std_periph_driver/src/n32g430_adc.c **** }
 3238              		.loc 1 1179 1
 3239 0010 00BF     		nop
 3240 0012 BD46     		mov	sp, r7
 3241              	.LCFI247:
 3242              		.cfi_def_cfa_register 13
 3243              		@ sp needed
 3244 0014 5DF8047B 		ldr	r7, [sp], #4
 3245              	.LCFI248:
 3246              		.cfi_restore 7
 3247              		.cfi_def_cfa_offset 0
 3248 0018 7047     		bx	lr
 3249              	.L198:
ARM GAS  C:\Users\ZShuai\AppData\Local\Temp\ccI2BPXx.s 			page 78


 3250 001a 00BF     		.align	2
 3251              	.L197:
 3252 001c 00080240 		.word	1073874944
 3253              		.cfi_endproc
 3254              	.LFE178:
 3256              		.section	.text.ADC_PLL_Clock_Mode_Config,"ax",%progbits
 3257              		.align	1
 3258              		.global	ADC_PLL_Clock_Mode_Config
 3259              		.syntax unified
 3260              		.thumb
 3261              		.thumb_func
 3263              	ADC_PLL_Clock_Mode_Config:
 3264              	.LFB179:
1180:../firmware/n32g430_std_periph_driver/src/n32g430_adc.c **** 
1181:../firmware/n32g430_std_periph_driver/src/n32g430_adc.c **** /**
1182:../firmware/n32g430_std_periph_driver/src/n32g430_adc.c **** *\*\name    ADC_PLL_Clock_Mode_Config.
1183:../firmware/n32g430_std_periph_driver/src/n32g430_adc.c **** *\*\fun     Configures the ADC PLL clock mode.
1184:../firmware/n32g430_std_periph_driver/src/n32g430_adc.c **** *\*\return  none
1185:../firmware/n32g430_std_periph_driver/src/n32g430_adc.c **** **/
1186:../firmware/n32g430_std_periph_driver/src/n32g430_adc.c **** void ADC_PLL_Clock_Mode_Config(void)
1187:../firmware/n32g430_std_periph_driver/src/n32g430_adc.c **** {   
 3265              		.loc 1 1187 1
 3266              		.cfi_startproc
 3267              		@ args = 0, pretend = 0, frame = 0
 3268              		@ frame_needed = 1, uses_anonymous_args = 0
 3269              		@ link register save eliminated.
 3270 0000 80B4     		push	{r7}
 3271              	.LCFI249:
 3272              		.cfi_def_cfa_offset 4
 3273              		.cfi_offset 7, -4
 3274 0002 00AF     		add	r7, sp, #0
 3275              	.LCFI250:
 3276              		.cfi_def_cfa_register 7
1188:../firmware/n32g430_std_periph_driver/src/n32g430_adc.c ****     /* Set the ADC_CTRL3 CKMOD bit to select clock mode*/
1189:../firmware/n32g430_std_periph_driver/src/n32g430_adc.c ****     ADC->CTRL3 |= ADC_CLOCK_PLL;  
 3277              		.loc 1 1189 8
 3278 0004 054B     		ldr	r3, .L200
 3279 0006 9B6D     		ldr	r3, [r3, #88]
 3280 0008 044A     		ldr	r2, .L200
 3281              		.loc 1 1189 16
 3282 000a 43F01003 		orr	r3, r3, #16
 3283 000e 9365     		str	r3, [r2, #88]
1190:../firmware/n32g430_std_periph_driver/src/n32g430_adc.c **** }
 3284              		.loc 1 1190 1
 3285 0010 00BF     		nop
 3286 0012 BD46     		mov	sp, r7
 3287              	.LCFI251:
 3288              		.cfi_def_cfa_register 13
 3289              		@ sp needed
 3290 0014 5DF8047B 		ldr	r7, [sp], #4
 3291              	.LCFI252:
 3292              		.cfi_restore 7
 3293              		.cfi_def_cfa_offset 0
 3294 0018 7047     		bx	lr
 3295              	.L201:
 3296 001a 00BF     		.align	2
 3297              	.L200:
ARM GAS  C:\Users\ZShuai\AppData\Local\Temp\ccI2BPXx.s 			page 79


 3298 001c 00080240 		.word	1073874944
 3299              		.cfi_endproc
 3300              	.LFE179:
 3302              		.section	.text.ADC_Calibration_Auto_Load_Enable,"ax",%progbits
 3303              		.align	1
 3304              		.global	ADC_Calibration_Auto_Load_Enable
 3305              		.syntax unified
 3306              		.thumb
 3307              		.thumb_func
 3309              	ADC_Calibration_Auto_Load_Enable:
 3310              	.LFB180:
1191:../firmware/n32g430_std_periph_driver/src/n32g430_adc.c **** 
1192:../firmware/n32g430_std_periph_driver/src/n32g430_adc.c **** /**
1193:../firmware/n32g430_std_periph_driver/src/n32g430_adc.c **** *\*\name    ADC_Calibration_Auto_Load_Enable.
1194:../firmware/n32g430_std_periph_driver/src/n32g430_adc.c **** *\*\fun     Enable ADC Calibration Auto Load mode.
1195:../firmware/n32g430_std_periph_driver/src/n32g430_adc.c **** *\*\return  none
1196:../firmware/n32g430_std_periph_driver/src/n32g430_adc.c **** **/
1197:../firmware/n32g430_std_periph_driver/src/n32g430_adc.c **** void ADC_Calibration_Auto_Load_Enable(void)
1198:../firmware/n32g430_std_periph_driver/src/n32g430_adc.c **** {   
 3311              		.loc 1 1198 1
 3312              		.cfi_startproc
 3313              		@ args = 0, pretend = 0, frame = 0
 3314              		@ frame_needed = 1, uses_anonymous_args = 0
 3315              		@ link register save eliminated.
 3316 0000 80B4     		push	{r7}
 3317              	.LCFI253:
 3318              		.cfi_def_cfa_offset 4
 3319              		.cfi_offset 7, -4
 3320 0002 00AF     		add	r7, sp, #0
 3321              	.LCFI254:
 3322              		.cfi_def_cfa_register 7
1199:../firmware/n32g430_std_periph_driver/src/n32g430_adc.c ****     /* Set the ADC_CTRL3 CALALD bit to enable or disable ADC Calibration Auto Load */
1200:../firmware/n32g430_std_periph_driver/src/n32g430_adc.c ****     ADC->CTRL3 |= ADC_CALALD_ENABLE;
 3323              		.loc 1 1200 8
 3324 0004 054B     		ldr	r3, .L203
 3325 0006 9B6D     		ldr	r3, [r3, #88]
 3326 0008 044A     		ldr	r2, .L203
 3327              		.loc 1 1200 16
 3328 000a 43F00803 		orr	r3, r3, #8
 3329 000e 9365     		str	r3, [r2, #88]
1201:../firmware/n32g430_std_periph_driver/src/n32g430_adc.c **** }
 3330              		.loc 1 1201 1
 3331 0010 00BF     		nop
 3332 0012 BD46     		mov	sp, r7
 3333              	.LCFI255:
 3334              		.cfi_def_cfa_register 13
 3335              		@ sp needed
 3336 0014 5DF8047B 		ldr	r7, [sp], #4
 3337              	.LCFI256:
 3338              		.cfi_restore 7
 3339              		.cfi_def_cfa_offset 0
 3340 0018 7047     		bx	lr
 3341              	.L204:
 3342 001a 00BF     		.align	2
 3343              	.L203:
 3344 001c 00080240 		.word	1073874944
 3345              		.cfi_endproc
ARM GAS  C:\Users\ZShuai\AppData\Local\Temp\ccI2BPXx.s 			page 80


 3346              	.LFE180:
 3348              		.section	.text.ADC_Calibration_Auto_Load_Disable,"ax",%progbits
 3349              		.align	1
 3350              		.global	ADC_Calibration_Auto_Load_Disable
 3351              		.syntax unified
 3352              		.thumb
 3353              		.thumb_func
 3355              	ADC_Calibration_Auto_Load_Disable:
 3356              	.LFB181:
1202:../firmware/n32g430_std_periph_driver/src/n32g430_adc.c **** 
1203:../firmware/n32g430_std_periph_driver/src/n32g430_adc.c **** /**
1204:../firmware/n32g430_std_periph_driver/src/n32g430_adc.c **** *\*\name    ADC_Calibration_Auto_Load_Disable.
1205:../firmware/n32g430_std_periph_driver/src/n32g430_adc.c **** *\*\fun     Disable ADC Calibration Auto Load mode.
1206:../firmware/n32g430_std_periph_driver/src/n32g430_adc.c **** *\*\return  none
1207:../firmware/n32g430_std_periph_driver/src/n32g430_adc.c **** **/
1208:../firmware/n32g430_std_periph_driver/src/n32g430_adc.c **** void ADC_Calibration_Auto_Load_Disable(void)
1209:../firmware/n32g430_std_periph_driver/src/n32g430_adc.c **** {   
 3357              		.loc 1 1209 1
 3358              		.cfi_startproc
 3359              		@ args = 0, pretend = 0, frame = 0
 3360              		@ frame_needed = 1, uses_anonymous_args = 0
 3361              		@ link register save eliminated.
 3362 0000 80B4     		push	{r7}
 3363              	.LCFI257:
 3364              		.cfi_def_cfa_offset 4
 3365              		.cfi_offset 7, -4
 3366 0002 00AF     		add	r7, sp, #0
 3367              	.LCFI258:
 3368              		.cfi_def_cfa_register 7
1210:../firmware/n32g430_std_periph_driver/src/n32g430_adc.c ****     /* Clear the ADC_CTRL3 CALALD bit */
1211:../firmware/n32g430_std_periph_driver/src/n32g430_adc.c ****     ADC->CTRL3 &= ADC_CALALD_DISABLE;
 3369              		.loc 1 1211 8
