ARM GAS  C:\Users\ZShuai\AppData\Local\Temp\cc66iswH.s 			page 1


   1              		.cpu cortex-m4
   2              		.arch armv7e-m
   3              		.fpu fpv4-sp-d16
   4              		.eabi_attribute 27, 1
   5              		.eabi_attribute 28, 1
   6              		.eabi_attribute 20, 1
   7              		.eabi_attribute 21, 1
   8              		.eabi_attribute 23, 3
   9              		.eabi_attribute 24, 1
  10              		.eabi_attribute 25, 1
  11              		.eabi_attribute 26, 1
  12              		.eabi_attribute 30, 6
  13              		.eabi_attribute 34, 1
  14              		.eabi_attribute 18, 4
  15              		.file	"n32g430_iwdg.c"
  16              		.text
  17              	.Ltext0:
  18              		.cfi_sections	.debug_frame
  19              		.file 1 "../firmware/n32g430_std_periph_driver/src/n32g430_iwdg.c"
  20              		.section	.text.IWDG_Write_Protection_Disable,"ax",%progbits
  21              		.align	1
  22              		.global	IWDG_Write_Protection_Disable
  23              		.syntax unified
  24              		.thumb
  25              		.thumb_func
  27              	IWDG_Write_Protection_Disable:
  28              	.LFB130:
   1:../firmware/n32g430_std_periph_driver/src/n32g430_iwdg.c **** /**
   2:../firmware/n32g430_std_periph_driver/src/n32g430_iwdg.c **** *     Copyright (c) 2022, Nations Technologies Inc.
   3:../firmware/n32g430_std_periph_driver/src/n32g430_iwdg.c **** * 
   4:../firmware/n32g430_std_periph_driver/src/n32g430_iwdg.c **** *     All rights reserved.
   5:../firmware/n32g430_std_periph_driver/src/n32g430_iwdg.c **** *
   6:../firmware/n32g430_std_periph_driver/src/n32g430_iwdg.c **** *     This software is the exclusive property of Nations Technologies Inc. (Hereinafter 
   7:../firmware/n32g430_std_periph_driver/src/n32g430_iwdg.c **** * referred to as NATIONS). This software, and the product of NATIONS described herein 
   8:../firmware/n32g430_std_periph_driver/src/n32g430_iwdg.c **** * (Hereinafter referred to as the Product) are owned by NATIONS under the laws and treaties
   9:../firmware/n32g430_std_periph_driver/src/n32g430_iwdg.c **** * of the People’s Republic of China and other applicable jurisdictions worldwide.
  10:../firmware/n32g430_std_periph_driver/src/n32g430_iwdg.c **** *
  11:../firmware/n32g430_std_periph_driver/src/n32g430_iwdg.c **** *     NATIONS does not grant any license under its patents, copyrights, trademarks, or other 
  12:../firmware/n32g430_std_periph_driver/src/n32g430_iwdg.c **** * intellectual property rights. Names and brands of third party may be mentioned or referred 
  13:../firmware/n32g430_std_periph_driver/src/n32g430_iwdg.c **** * thereto (if any) for identification purposes only.
  14:../firmware/n32g430_std_periph_driver/src/n32g430_iwdg.c **** *
  15:../firmware/n32g430_std_periph_driver/src/n32g430_iwdg.c **** *     NATIONS reserves the right to make changes, corrections, enhancements, modifications, and 
  16:../firmware/n32g430_std_periph_driver/src/n32g430_iwdg.c **** * improvements to this software at any time without notice. Please contact NATIONS and obtain 
  17:../firmware/n32g430_std_periph_driver/src/n32g430_iwdg.c **** * the latest version of this software before placing orders.
  18:../firmware/n32g430_std_periph_driver/src/n32g430_iwdg.c **** 
  19:../firmware/n32g430_std_periph_driver/src/n32g430_iwdg.c **** *     Although NATIONS has attempted to provide accurate and reliable information, NATIONS assumes 
  20:../firmware/n32g430_std_periph_driver/src/n32g430_iwdg.c **** * no responsibility for the accuracy and reliability of this software.
  21:../firmware/n32g430_std_periph_driver/src/n32g430_iwdg.c **** * 
  22:../firmware/n32g430_std_periph_driver/src/n32g430_iwdg.c **** *     It is the responsibility of the user of this software to properly design, program, and test 
  23:../firmware/n32g430_std_periph_driver/src/n32g430_iwdg.c **** * the functionality and safety of any application made of this information and any resulting produc
  24:../firmware/n32g430_std_periph_driver/src/n32g430_iwdg.c **** * In no event shall NATIONS be liable for any direct, indirect, incidental, special,exemplary, or 
  25:../firmware/n32g430_std_periph_driver/src/n32g430_iwdg.c **** * consequential damages arising in any way out of the use of this software or the Product.
  26:../firmware/n32g430_std_periph_driver/src/n32g430_iwdg.c **** *
  27:../firmware/n32g430_std_periph_driver/src/n32g430_iwdg.c **** *     NATIONS Products are neither intended nor warranted for usage in systems or equipment, any
  28:../firmware/n32g430_std_periph_driver/src/n32g430_iwdg.c **** * malfunction or failure of which may cause loss of human life, bodily injury or severe property 
  29:../firmware/n32g430_std_periph_driver/src/n32g430_iwdg.c **** * damage. Such applications are deemed, “Insecure Usage”.
  30:../firmware/n32g430_std_periph_driver/src/n32g430_iwdg.c **** *
ARM GAS  C:\Users\ZShuai\AppData\Local\Temp\cc66iswH.s 			page 2


  31:../firmware/n32g430_std_periph_driver/src/n32g430_iwdg.c **** *     All Insecure Usage shall be made at user’s risk. User shall indemnify NATIONS and hold NATI
  32:../firmware/n32g430_std_periph_driver/src/n32g430_iwdg.c **** * harmless from and against all claims, costs, damages, and other liabilities, arising from or rela
  33:../firmware/n32g430_std_periph_driver/src/n32g430_iwdg.c **** * to any customer’s Insecure Usage.
  34:../firmware/n32g430_std_periph_driver/src/n32g430_iwdg.c **** 
  35:../firmware/n32g430_std_periph_driver/src/n32g430_iwdg.c **** *     Any express or implied warranty with regard to this software or the Product, including,but no
  36:../firmware/n32g430_std_periph_driver/src/n32g430_iwdg.c **** * limited to, the warranties of merchantability, fitness for a particular purpose and non-infringem
  37:../firmware/n32g430_std_periph_driver/src/n32g430_iwdg.c **** * are disclaimed to the fullest extent permitted by law.
  38:../firmware/n32g430_std_periph_driver/src/n32g430_iwdg.c **** 
  39:../firmware/n32g430_std_periph_driver/src/n32g430_iwdg.c **** *     Unless otherwise explicitly permitted by NATIONS, anyone may not duplicate, modify, transcrib
  40:../firmware/n32g430_std_periph_driver/src/n32g430_iwdg.c **** * or otherwise distribute this software for any purposes, in whole or in part.
  41:../firmware/n32g430_std_periph_driver/src/n32g430_iwdg.c **** *
  42:../firmware/n32g430_std_periph_driver/src/n32g430_iwdg.c **** *     NATIONS products and technologies shall not be used for or incorporated into any products or 
  43:../firmware/n32g430_std_periph_driver/src/n32g430_iwdg.c **** * whose manufacture, use, or sale is prohibited under any applicable domestic or foreign laws or re
  44:../firmware/n32g430_std_periph_driver/src/n32g430_iwdg.c **** * User shall comply with any applicable export control laws and regulations promulgated and adminis
  45:../firmware/n32g430_std_periph_driver/src/n32g430_iwdg.c **** * the governments of any countries asserting jurisdiction over the parties or transactions.
  46:../firmware/n32g430_std_periph_driver/src/n32g430_iwdg.c **** **/
  47:../firmware/n32g430_std_periph_driver/src/n32g430_iwdg.c ****  
  48:../firmware/n32g430_std_periph_driver/src/n32g430_iwdg.c **** /**
  49:../firmware/n32g430_std_periph_driver/src/n32g430_iwdg.c **** *\*\file n32g430_iwdg.c
  50:../firmware/n32g430_std_periph_driver/src/n32g430_iwdg.c **** *\*\author Nations
  51:../firmware/n32g430_std_periph_driver/src/n32g430_iwdg.c **** *\*\version v1.0.0
  52:../firmware/n32g430_std_periph_driver/src/n32g430_iwdg.c **** *\*\copyright Copyright (c) 2022, Nations Technologies Inc. All rights reserved.
  53:../firmware/n32g430_std_periph_driver/src/n32g430_iwdg.c **** **/
  54:../firmware/n32g430_std_periph_driver/src/n32g430_iwdg.c **** 
  55:../firmware/n32g430_std_periph_driver/src/n32g430_iwdg.c **** #include "n32g430_iwdg.h"
  56:../firmware/n32g430_std_periph_driver/src/n32g430_iwdg.c **** 
  57:../firmware/n32g430_std_periph_driver/src/n32g430_iwdg.c **** 
  58:../firmware/n32g430_std_periph_driver/src/n32g430_iwdg.c **** /**
  59:../firmware/n32g430_std_periph_driver/src/n32g430_iwdg.c **** *\*\name    IWDG_Write_Protection_Disable.
  60:../firmware/n32g430_std_periph_driver/src/n32g430_iwdg.c **** *\*\fun     Disable write protection to IWDG_PREDIV and IWDG_RELV registers.
  61:../firmware/n32g430_std_periph_driver/src/n32g430_iwdg.c **** *\*\param   none
  62:../firmware/n32g430_std_periph_driver/src/n32g430_iwdg.c **** *\*\return  none
  63:../firmware/n32g430_std_periph_driver/src/n32g430_iwdg.c **** **/
  64:../firmware/n32g430_std_periph_driver/src/n32g430_iwdg.c **** void IWDG_Write_Protection_Disable(void)
  65:../firmware/n32g430_std_periph_driver/src/n32g430_iwdg.c **** {
  29              		.loc 1 65 1
  30              		.cfi_startproc
  31              		@ args = 0, pretend = 0, frame = 0
  32              		@ frame_needed = 1, uses_anonymous_args = 0
  33              		@ link register save eliminated.
  34 0000 80B4     		push	{r7}
  35              	.LCFI0:
  36              		.cfi_def_cfa_offset 4
  37              		.cfi_offset 7, -4
  38 0002 00AF     		add	r7, sp, #0
  39              	.LCFI1:
  40              		.cfi_def_cfa_register 7
  66:../firmware/n32g430_std_periph_driver/src/n32g430_iwdg.c ****     IWDG->KEY = IWDG_WRITE_CONFIG_ENABLE;
  41              		.loc 1 66 9
  42 0004 044B     		ldr	r3, .L2
  43              		.loc 1 66 15
  44 0006 45F25552 		movw	r2, #21845
  45 000a 1A60     		str	r2, [r3]
  67:../firmware/n32g430_std_periph_driver/src/n32g430_iwdg.c **** }
  46              		.loc 1 67 1
  47 000c 00BF     		nop
  48 000e BD46     		mov	sp, r7
ARM GAS  C:\Users\ZShuai\AppData\Local\Temp\cc66iswH.s 			page 3


  49              	.LCFI2:
  50              		.cfi_def_cfa_register 13
  51              		@ sp needed
  52 0010 5DF8047B 		ldr	r7, [sp], #4
  53              	.LCFI3:
  54              		.cfi_restore 7
  55              		.cfi_def_cfa_offset 0
  56 0014 7047     		bx	lr
  57              	.L3:
  58 0016 00BF     		.align	2
  59              	.L2:
  60 0018 00300040 		.word	1073754112
  61              		.cfi_endproc
  62              	.LFE130:
  64              		.section	.text.IWDG_Write_Protection_Enable,"ax",%progbits
  65              		.align	1
  66              		.global	IWDG_Write_Protection_Enable
  67              		.syntax unified
  68              		.thumb
  69              		.thumb_func
  71              	IWDG_Write_Protection_Enable:
  72              	.LFB131:
  68:../firmware/n32g430_std_periph_driver/src/n32g430_iwdg.c **** 
  69:../firmware/n32g430_std_periph_driver/src/n32g430_iwdg.c **** 
  70:../firmware/n32g430_std_periph_driver/src/n32g430_iwdg.c **** /**
  71:../firmware/n32g430_std_periph_driver/src/n32g430_iwdg.c **** *\*\name    IWDG_Write_Protection_Enable.
  72:../firmware/n32g430_std_periph_driver/src/n32g430_iwdg.c **** *\*\fun     Enable write protection to IWDG_PREDIV and IWDG_RELV registers.
  73:../firmware/n32g430_std_periph_driver/src/n32g430_iwdg.c **** *\*\param   none
  74:../firmware/n32g430_std_periph_driver/src/n32g430_iwdg.c **** *\*\return  none
  75:../firmware/n32g430_std_periph_driver/src/n32g430_iwdg.c **** **/
  76:../firmware/n32g430_std_periph_driver/src/n32g430_iwdg.c **** void IWDG_Write_Protection_Enable(void)
  77:../firmware/n32g430_std_periph_driver/src/n32g430_iwdg.c **** {
  73              		.loc 1 77 1
  74              		.cfi_startproc
  75              		@ args = 0, pretend = 0, frame = 0
  76              		@ frame_needed = 1, uses_anonymous_args = 0
  77              		@ link register save eliminated.
  78 0000 80B4     		push	{r7}
  79              	.LCFI4:
  80              		.cfi_def_cfa_offset 4
  81              		.cfi_offset 7, -4
  82 0002 00AF     		add	r7, sp, #0
  83              	.LCFI5:
  84              		.cfi_def_cfa_register 7
  78:../firmware/n32g430_std_periph_driver/src/n32g430_iwdg.c ****     IWDG->KEY = IWDG_WRITE_CONFIG_DISABLE;
  85              		.loc 1 78 9
  86 0004 034B     		ldr	r3, .L5
  87              		.loc 1 78 15
  88 0006 0022     		movs	r2, #0
  89 0008 1A60     		str	r2, [r3]
  79:../firmware/n32g430_std_periph_driver/src/n32g430_iwdg.c **** }
  90              		.loc 1 79 1
  91 000a 00BF     		nop
  92 000c BD46     		mov	sp, r7
  93              	.LCFI6:
  94              		.cfi_def_cfa_register 13
  95              		@ sp needed
ARM GAS  C:\Users\ZShuai\AppData\Local\Temp\cc66iswH.s 			page 4


  96 000e 5DF8047B 		ldr	r7, [sp], #4
  97              	.LCFI7:
  98              		.cfi_restore 7
  99              		.cfi_def_cfa_offset 0
 100 0012 7047     		bx	lr
 101              	.L6:
 102              		.align	2
 103              	.L5:
 104 0014 00300040 		.word	1073754112
 105              		.cfi_endproc
 106              	.LFE131:
 108              		.section	.text.IWDG_Prescaler_Division_Set,"ax",%progbits
 109              		.align	1
 110              		.global	IWDG_Prescaler_Division_Set
 111              		.syntax unified
 112              		.thumb
 113              		.thumb_func
 115              	IWDG_Prescaler_Division_Set:
 116              	.LFB132:
  80:../firmware/n32g430_std_periph_driver/src/n32g430_iwdg.c **** 
  81:../firmware/n32g430_std_periph_driver/src/n32g430_iwdg.c **** 
  82:../firmware/n32g430_std_periph_driver/src/n32g430_iwdg.c **** /**
  83:../firmware/n32g430_std_periph_driver/src/n32g430_iwdg.c **** *\*\name    IWDG_Prescaler_Division_Set.
  84:../firmware/n32g430_std_periph_driver/src/n32g430_iwdg.c **** *\*\fun     IWDG_Prescaler specifies the IWDG prescaler value.
  85:../firmware/n32g430_std_periph_driver/src/n32g430_iwdg.c **** *\*\param   IWDG_prescaler :
  86:../firmware/n32g430_std_periph_driver/src/n32g430_iwdg.c **** *\*\          - IWDG_CONFIG_PRESCALER_DIV4 
  87:../firmware/n32g430_std_periph_driver/src/n32g430_iwdg.c **** *\*\          - IWDG_CONFIG_PRESCALER_DIV8
  88:../firmware/n32g430_std_periph_driver/src/n32g430_iwdg.c **** *\*\          - IWDG_CONFIG_PRESCALER_DIV16
  89:../firmware/n32g430_std_periph_driver/src/n32g430_iwdg.c **** *\*\          - IWDG_CONFIG_PRESCALER_DIV32
  90:../firmware/n32g430_std_periph_driver/src/n32g430_iwdg.c **** *\*\          - IWDG_CONFIG_PRESCALER_DIV64
  91:../firmware/n32g430_std_periph_driver/src/n32g430_iwdg.c **** *\*\          - IWDG_CONFIG_PRESCALER_DIV128
  92:../firmware/n32g430_std_periph_driver/src/n32g430_iwdg.c **** *\*\          - IWDG_CONFIG_PRESCALER_DIV256
  93:../firmware/n32g430_std_periph_driver/src/n32g430_iwdg.c **** *\*\return  none
  94:../firmware/n32g430_std_periph_driver/src/n32g430_iwdg.c **** **/
  95:../firmware/n32g430_std_periph_driver/src/n32g430_iwdg.c **** void IWDG_Prescaler_Division_Set(IWDG_CONFIG_PRESCALER IWDG_prescaler)
  96:../firmware/n32g430_std_periph_driver/src/n32g430_iwdg.c **** {
 117              		.loc 1 96 1
 118              		.cfi_startproc
 119              		@ args = 0, pretend = 0, frame = 8
 120              		@ frame_needed = 1, uses_anonymous_args = 0
 121              		@ link register save eliminated.
 122 0000 80B4     		push	{r7}
 123              	.LCFI8:
 124              		.cfi_def_cfa_offset 4
 125              		.cfi_offset 7, -4
 126 0002 83B0     		sub	sp, sp, #12
 127              	.LCFI9:
 128              		.cfi_def_cfa_offset 16
 129 0004 00AF     		add	r7, sp, #0
 130              	.LCFI10:
 131              		.cfi_def_cfa_register 7
 132 0006 0346     		mov	r3, r0
 133 0008 FB71     		strb	r3, [r7, #7]
  97:../firmware/n32g430_std_periph_driver/src/n32g430_iwdg.c ****     IWDG->PREDIV = IWDG_prescaler;
 134              		.loc 1 97 9
 135 000a 054A     		ldr	r2, .L8
 136              		.loc 1 97 18
ARM GAS  C:\Users\ZShuai\AppData\Local\Temp\cc66iswH.s 			page 5


 137 000c 97F90730 		ldrsb	r3, [r7, #7]
 138 0010 5360     		str	r3, [r2, #4]
  98:../firmware/n32g430_std_periph_driver/src/n32g430_iwdg.c **** }
 139              		.loc 1 98 1
 140 0012 00BF     		nop
 141 0014 0C37     		adds	r7, r7, #12
 142              	.LCFI11:
 143              		.cfi_def_cfa_offset 4
 144 0016 BD46     		mov	sp, r7
 145              	.LCFI12:
 146              		.cfi_def_cfa_register 13
 147              		@ sp needed
 148 0018 5DF8047B 		ldr	r7, [sp], #4
 149              	.LCFI13:
 150              		.cfi_restore 7
 151              		.cfi_def_cfa_offset 0
 152 001c 7047     		bx	lr
 153              	.L9:
 154 001e 00BF     		.align	2
 155              	.L8:
 156 0020 00300040 		.word	1073754112
 157              		.cfi_endproc
 158              	.LFE132:
 160              		.section	.text.IWDG_Counter_Reload,"ax",%progbits
 161              		.align	1
 162              		.global	IWDG_Counter_Reload
 163              		.syntax unified
 164              		.thumb
 165              		.thumb_func
 167              	IWDG_Counter_Reload:
 168              	.LFB133:
  99:../firmware/n32g430_std_periph_driver/src/n32g430_iwdg.c **** 
 100:../firmware/n32g430_std_periph_driver/src/n32g430_iwdg.c **** 
 101:../firmware/n32g430_std_periph_driver/src/n32g430_iwdg.c **** /**
 102:../firmware/n32g430_std_periph_driver/src/n32g430_iwdg.c **** *\*\name    IWDG_Counter_Reload.
 103:../firmware/n32g430_std_periph_driver/src/n32g430_iwdg.c **** *\*\fun     Sets IWDG reload value.
 104:../firmware/n32g430_std_periph_driver/src/n32g430_iwdg.c **** *\*\param   reload_value :
 105:../firmware/n32g430_std_periph_driver/src/n32g430_iwdg.c **** *\*\          -0x000 ~ 0xFFF
 106:../firmware/n32g430_std_periph_driver/src/n32g430_iwdg.c **** *\*\return  none
 107:../firmware/n32g430_std_periph_driver/src/n32g430_iwdg.c **** **/
 108:../firmware/n32g430_std_periph_driver/src/n32g430_iwdg.c **** void IWDG_Counter_Reload(uint16_t reload_value)
 109:../firmware/n32g430_std_periph_driver/src/n32g430_iwdg.c **** {
 169              		.loc 1 109 1
 170              		.cfi_startproc
 171              		@ args = 0, pretend = 0, frame = 8
 172              		@ frame_needed = 1, uses_anonymous_args = 0
 173              		@ link register save eliminated.
 174 0000 80B4     		push	{r7}
 175              	.LCFI14:
 176              		.cfi_def_cfa_offset 4
 177              		.cfi_offset 7, -4
 178 0002 83B0     		sub	sp, sp, #12
 179              	.LCFI15:
 180              		.cfi_def_cfa_offset 16
 181 0004 00AF     		add	r7, sp, #0
 182              	.LCFI16:
 183              		.cfi_def_cfa_register 7
ARM GAS  C:\Users\ZShuai\AppData\Local\Temp\cc66iswH.s 			page 6


 184 0006 0346     		mov	r3, r0
 185 0008 FB80     		strh	r3, [r7, #6]	@ movhi
 110:../firmware/n32g430_std_periph_driver/src/n32g430_iwdg.c ****     IWDG->RELV = reload_value;
 186              		.loc 1 110 9
 187 000a 044A     		ldr	r2, .L11
 188              		.loc 1 110 16
 189 000c FB88     		ldrh	r3, [r7, #6]
 190 000e 9360     		str	r3, [r2, #8]
 111:../firmware/n32g430_std_periph_driver/src/n32g430_iwdg.c **** }
 191              		.loc 1 111 1
 192 0010 00BF     		nop
 193 0012 0C37     		adds	r7, r7, #12
 194              	.LCFI17:
 195              		.cfi_def_cfa_offset 4
 196 0014 BD46     		mov	sp, r7
 197              	.LCFI18:
 198              		.cfi_def_cfa_register 13
 199              		@ sp needed
 200 0016 5DF8047B 		ldr	r7, [sp], #4
 201              	.LCFI19:
 202              		.cfi_restore 7
 203              		.cfi_def_cfa_offset 0
 204 001a 7047     		bx	lr
 205              	.L12:
 206              		.align	2
 207              	.L11:
 208 001c 00300040 		.word	1073754112
 209              		.cfi_endproc
 210              	.LFE133:
 212              		.section	.text.IWDG_Key_Reload,"ax",%progbits
 213              		.align	1
 214              		.global	IWDG_Key_Reload
 215              		.syntax unified
 216              		.thumb
 217              		.thumb_func
 219              	IWDG_Key_Reload:
 220              	.LFB134:
 112:../firmware/n32g430_std_periph_driver/src/n32g430_iwdg.c **** 
 113:../firmware/n32g430_std_periph_driver/src/n32g430_iwdg.c **** 
 114:../firmware/n32g430_std_periph_driver/src/n32g430_iwdg.c **** /**
 115:../firmware/n32g430_std_periph_driver/src/n32g430_iwdg.c **** *\*\name    IWDG_Key_Reload.
 116:../firmware/n32g430_std_periph_driver/src/n32g430_iwdg.c **** *\*\fun     Reload IWDG counter with value defined in IWDG_RELV register.
 117:../firmware/n32g430_std_periph_driver/src/n32g430_iwdg.c **** *\*\return  none
 118:../firmware/n32g430_std_periph_driver/src/n32g430_iwdg.c **** **/
 119:../firmware/n32g430_std_periph_driver/src/n32g430_iwdg.c **** void IWDG_Key_Reload(void)
 120:../firmware/n32g430_std_periph_driver/src/n32g430_iwdg.c **** {
 221              		.loc 1 120 1
 222              		.cfi_startproc
 223              		@ args = 0, pretend = 0, frame = 0
 224              		@ frame_needed = 1, uses_anonymous_args = 0
 225              		@ link register save eliminated.
 226 0000 80B4     		push	{r7}
 227              	.LCFI20:
 228              		.cfi_def_cfa_offset 4
 229              		.cfi_offset 7, -4
 230 0002 00AF     		add	r7, sp, #0
 231              	.LCFI21:
ARM GAS  C:\Users\ZShuai\AppData\Local\Temp\cc66iswH.s 			page 7


 232              		.cfi_def_cfa_register 7
 121:../firmware/n32g430_std_periph_driver/src/n32g430_iwdg.c ****     IWDG->KEY = KEY_RELOAD_COUNTER;
 233              		.loc 1 121 9
 234 0004 044B     		ldr	r3, .L14
 235              		.loc 1 121 15
 236 0006 4AF6AA22 		movw	r2, #43690
 237 000a 1A60     		str	r2, [r3]
 122:../firmware/n32g430_std_periph_driver/src/n32g430_iwdg.c **** }
 238              		.loc 1 122 1
 239 000c 00BF     		nop
 240 000e BD46     		mov	sp, r7
 241              	.LCFI22:
 242              		.cfi_def_cfa_register 13
 243              		@ sp needed
 244 0010 5DF8047B 		ldr	r7, [sp], #4
 245              	.LCFI23:
 246              		.cfi_restore 7
 247              		.cfi_def_cfa_offset 0
 248 0014 7047     		bx	lr
 249              	.L15:
 250 0016 00BF     		.align	2
 251              	.L14:
 252 0018 00300040 		.word	1073754112
 253              		.cfi_endproc
 254              	.LFE134:
 256              		.section	.text.IWDG_Enable,"ax",%progbits
 257              		.align	1
 258              		.global	IWDG_Enable
 259              		.syntax unified
 260              		.thumb
 261              		.thumb_func
 263              	IWDG_Enable:
 264              	.LFB135:
 123:../firmware/n32g430_std_periph_driver/src/n32g430_iwdg.c **** 
 124:../firmware/n32g430_std_periph_driver/src/n32g430_iwdg.c **** 
 125:../firmware/n32g430_std_periph_driver/src/n32g430_iwdg.c **** /**
 126:../firmware/n32g430_std_periph_driver/src/n32g430_iwdg.c **** *\*\name    IWDG_Enable.
 127:../firmware/n32g430_std_periph_driver/src/n32g430_iwdg.c **** *\*\fun     Start watch dog counter.
 128:../firmware/n32g430_std_periph_driver/src/n32g430_iwdg.c **** *\*\return  none
 129:../firmware/n32g430_std_periph_driver/src/n32g430_iwdg.c **** **/
 130:../firmware/n32g430_std_periph_driver/src/n32g430_iwdg.c **** void IWDG_Enable(void)
 131:../firmware/n32g430_std_periph_driver/src/n32g430_iwdg.c **** {
 265              		.loc 1 131 1
 266              		.cfi_startproc
 267              		@ args = 0, pretend = 0, frame = 0
 268              		@ frame_needed = 1, uses_anonymous_args = 0
 269              		@ link register save eliminated.
 270 0000 80B4     		push	{r7}
 271              	.LCFI24:
 272              		.cfi_def_cfa_offset 4
 273              		.cfi_offset 7, -4
 274 0002 00AF     		add	r7, sp, #0
 275              	.LCFI25:
 276              		.cfi_def_cfa_register 7
 132:../firmware/n32g430_std_periph_driver/src/n32g430_iwdg.c ****     IWDG->KEY = KEY_ENABLE_COUNTER;
 277              		.loc 1 132 9
 278 0004 044B     		ldr	r3, .L17
ARM GAS  C:\Users\ZShuai\AppData\Local\Temp\cc66iswH.s 			page 8


 279              		.loc 1 132 15
 280 0006 4CF6CC42 		movw	r2, #52428
 281 000a 1A60     		str	r2, [r3]
 133:../firmware/n32g430_std_periph_driver/src/n32g430_iwdg.c **** }
 282              		.loc 1 133 1
 283 000c 00BF     		nop
 284 000e BD46     		mov	sp, r7
 285              	.LCFI26:
 286              		.cfi_def_cfa_register 13
 287              		@ sp needed
 288 0010 5DF8047B 		ldr	r7, [sp], #4
 289              	.LCFI27:
 290              		.cfi_restore 7
 291              		.cfi_def_cfa_offset 0
 292 0014 7047     		bx	lr
 293              	.L18:
 294 0016 00BF     		.align	2
 295              	.L17:
 296 0018 00300040 		.word	1073754112
 297              		.cfi_endproc
 298              	.LFE135:
 300              		.section	.text.IWDG_Freeze_Enable,"ax",%progbits
 301              		.align	1
 302              		.global	IWDG_Freeze_Enable
 303              		.syntax unified
 304              		.thumb
 305              		.thumb_func
 307              	IWDG_Freeze_Enable:
 308              	.LFB136:
 134:../firmware/n32g430_std_periph_driver/src/n32g430_iwdg.c **** 
 135:../firmware/n32g430_std_periph_driver/src/n32g430_iwdg.c **** /**
 136:../firmware/n32g430_std_periph_driver/src/n32g430_iwdg.c **** *\*\name    IWDG_Freeze_Enable.
 137:../firmware/n32g430_std_periph_driver/src/n32g430_iwdg.c **** *\*\fun     Freeze and stop IWDG while IWDG is running.
 138:../firmware/n32g430_std_periph_driver/src/n32g430_iwdg.c **** *\*\return  none
 139:../firmware/n32g430_std_periph_driver/src/n32g430_iwdg.c **** **/
 140:../firmware/n32g430_std_periph_driver/src/n32g430_iwdg.c **** void IWDG_Freeze_Enable(void)
 141:../firmware/n32g430_std_periph_driver/src/n32g430_iwdg.c **** {
 309              		.loc 1 141 1
 310              		.cfi_startproc
 311              		@ args = 0, pretend = 0, frame = 0
 312              		@ frame_needed = 1, uses_anonymous_args = 0
 313              		@ link register save eliminated.
 314 0000 80B4     		push	{r7}
 315              	.LCFI28:
 316              		.cfi_def_cfa_offset 4
 317              		.cfi_offset 7, -4
 318 0002 00AF     		add	r7, sp, #0
 319              	.LCFI29:
 320              		.cfi_def_cfa_register 7
 142:../firmware/n32g430_std_periph_driver/src/n32g430_iwdg.c ****     IWDG->KEY = IWDG_FREEZE;
 321              		.loc 1 142 9
 322 0004 044B     		ldr	r3, .L20
 323              		.loc 1 142 15
 324 0006 44F26752 		movw	r2, #17767
 325 000a 1A60     		str	r2, [r3]
 143:../firmware/n32g430_std_periph_driver/src/n32g430_iwdg.c **** }
 326              		.loc 1 143 1
ARM GAS  C:\Users\ZShuai\AppData\Local\Temp\cc66iswH.s 			page 9


 327 000c 00BF     		nop
 328 000e BD46     		mov	sp, r7
 329              	.LCFI30:
 330              		.cfi_def_cfa_register 13
 331              		@ sp needed
 332 0010 5DF8047B 		ldr	r7, [sp], #4
 333              	.LCFI31:
 334              		.cfi_restore 7
 335              		.cfi_def_cfa_offset 0
 336 0014 7047     		bx	lr
 337              	.L21:
 338 0016 00BF     		.align	2
 339              	.L20:
 340 0018 00300040 		.word	1073754112
 341              		.cfi_endproc
 342              	.LFE136:
 344              		.section	.text.IWDG_Restore_From_Freeze,"ax",%progbits
 345              		.align	1
 346              		.global	IWDG_Restore_From_Freeze
 347              		.syntax unified
 348              		.thumb
 349              		.thumb_func
 351              	IWDG_Restore_From_Freeze:
 352              	.LFB137:
 144:../firmware/n32g430_std_periph_driver/src/n32g430_iwdg.c **** 
 145:../firmware/n32g430_std_periph_driver/src/n32g430_iwdg.c **** 
 146:../firmware/n32g430_std_periph_driver/src/n32g430_iwdg.c **** /**
 147:../firmware/n32g430_std_periph_driver/src/n32g430_iwdg.c **** *\*\name    IWDG_Restore_From_Freeze.
 148:../firmware/n32g430_std_periph_driver/src/n32g430_iwdg.c **** *\*\fun     Restore from run time feeze.
 149:../firmware/n32g430_std_periph_driver/src/n32g430_iwdg.c **** *\*\return  none
 150:../firmware/n32g430_std_periph_driver/src/n32g430_iwdg.c **** **/
 151:../firmware/n32g430_std_periph_driver/src/n32g430_iwdg.c **** void IWDG_Restore_From_Freeze(void)
 152:../firmware/n32g430_std_periph_driver/src/n32g430_iwdg.c **** {
 353              		.loc 1 152 1
 354              		.cfi_startproc
 355              		@ args = 0, pretend = 0, frame = 0
 356              		@ frame_needed = 1, uses_anonymous_args = 0
 357              		@ link register save eliminated.
 358 0000 80B4     		push	{r7}
 359              	.LCFI32:
 360              		.cfi_def_cfa_offset 4
 361              		.cfi_offset 7, -4
 362 0002 00AF     		add	r7, sp, #0
 363              	.LCFI33:
 364              		.cfi_def_cfa_register 7
 153:../firmware/n32g430_std_periph_driver/src/n32g430_iwdg.c ****     IWDG->KEY = IWDG_UNFREEZE;
 365              		.loc 1 153 9
 366 0004 044B     		ldr	r3, .L23
 367              		.loc 1 153 15
 368 0006 48F6AB12 		movw	r2, #35243
 369 000a 1A60     		str	r2, [r3]
 154:../firmware/n32g430_std_periph_driver/src/n32g430_iwdg.c **** }
 370              		.loc 1 154 1
 371 000c 00BF     		nop
 372 000e BD46     		mov	sp, r7
 373              	.LCFI34:
 374              		.cfi_def_cfa_register 13
ARM GAS  C:\Users\ZShuai\AppData\Local\Temp\cc66iswH.s 			page 10


 375              		@ sp needed
 376 0010 5DF8047B 		ldr	r7, [sp], #4
 377              	.LCFI35:
 378              		.cfi_restore 7
 379              		.cfi_def_cfa_offset 0
 380 0014 7047     		bx	lr
 381              	.L24:
 382 0016 00BF     		.align	2
 383              	.L23:
 384 0018 00300040 		.word	1073754112
 385              		.cfi_endproc
 386              	.LFE137:
 388              		.section	.text.IWDG_Status_Get,"ax",%progbits
 389              		.align	1
 390              		.global	IWDG_Status_Get
 391              		.syntax unified
 392              		.thumb
 393              		.thumb_func
 395              	IWDG_Status_Get:
 396              	.LFB138:
 155:../firmware/n32g430_std_periph_driver/src/n32g430_iwdg.c **** 
 156:../firmware/n32g430_std_periph_driver/src/n32g430_iwdg.c **** 
 157:../firmware/n32g430_std_periph_driver/src/n32g430_iwdg.c **** /**
 158:../firmware/n32g430_std_periph_driver/src/n32g430_iwdg.c **** *\*\name    IWDG_Status_Get.
 159:../firmware/n32g430_std_periph_driver/src/n32g430_iwdg.c **** *\*\fun     Checks whether the specified IWDG flag is set or not.
 160:../firmware/n32g430_std_periph_driver/src/n32g430_iwdg.c **** *\*\param   IWDG_flag :
 161:../firmware/n32g430_std_periph_driver/src/n32g430_iwdg.c **** *\*\          - IWDG_PVU_FLAG
 162:../firmware/n32g430_std_periph_driver/src/n32g430_iwdg.c **** *\*\          - IWDG_CRVU_FLAG
 163:../firmware/n32g430_std_periph_driver/src/n32g430_iwdg.c **** *\*\return  FlagStatus :
 164:../firmware/n32g430_std_periph_driver/src/n32g430_iwdg.c **** *\*\          - RESET
 165:../firmware/n32g430_std_periph_driver/src/n32g430_iwdg.c **** *\*\          - SET
 166:../firmware/n32g430_std_periph_driver/src/n32g430_iwdg.c **** **/
 167:../firmware/n32g430_std_periph_driver/src/n32g430_iwdg.c **** FlagStatus IWDG_Status_Get(IWDG_STATUS_FLAG IWDG_flag)
 168:../firmware/n32g430_std_periph_driver/src/n32g430_iwdg.c **** {
 397              		.loc 1 168 1
 398              		.cfi_startproc
 399              		@ args = 0, pretend = 0, frame = 8
 400              		@ frame_needed = 1, uses_anonymous_args = 0
 401              		@ link register save eliminated.
 402 0000 80B4     		push	{r7}
 403              	.LCFI36:
 404              		.cfi_def_cfa_offset 4
 405              		.cfi_offset 7, -4
 406 0002 83B0     		sub	sp, sp, #12
 407              	.LCFI37:
 408              		.cfi_def_cfa_offset 16
 409 0004 00AF     		add	r7, sp, #0
 410              	.LCFI38:
 411              		.cfi_def_cfa_register 7
 412 0006 0346     		mov	r3, r0
 413 0008 FB71     		strb	r3, [r7, #7]
 169:../firmware/n32g430_std_periph_driver/src/n32g430_iwdg.c ****     if((IWDG->STS & IWDG_flag) != (uint32_t)RESET)
 414              		.loc 1 169 13
 415 000a 074B     		ldr	r3, .L28
 416 000c DA68     		ldr	r2, [r3, #12]
 417              		.loc 1 169 19
 418 000e FB79     		ldrb	r3, [r7, #7]	@ zero_extendqisi2
ARM GAS  C:\Users\ZShuai\AppData\Local\Temp\cc66iswH.s 			page 11


 419 0010 1340     		ands	r3, r3, r2
 420              		.loc 1 169 7
 421 0012 002B     		cmp	r3, #0
 422 0014 01D0     		beq	.L26
 170:../firmware/n32g430_std_periph_driver/src/n32g430_iwdg.c ****     {
 171:../firmware/n32g430_std_periph_driver/src/n32g430_iwdg.c ****         return SET;
 423              		.loc 1 171 16
 424 0016 0123     		movs	r3, #1
 425 0018 00E0     		b	.L27
 426              	.L26:
 172:../firmware/n32g430_std_periph_driver/src/n32g430_iwdg.c ****     }
 173:../firmware/n32g430_std_periph_driver/src/n32g430_iwdg.c ****     else
 174:../firmware/n32g430_std_periph_driver/src/n32g430_iwdg.c ****     {
 175:../firmware/n32g430_std_periph_driver/src/n32g430_iwdg.c ****         return RESET;
 427              		.loc 1 175 16
 428 001a 0023     		movs	r3, #0
 429              	.L27:
 176:../firmware/n32g430_std_periph_driver/src/n32g430_iwdg.c ****     }
 177:../firmware/n32g430_std_periph_driver/src/n32g430_iwdg.c **** }
 430              		.loc 1 177 1
 431 001c 1846     		mov	r0, r3
 432 001e 0C37     		adds	r7, r7, #12
 433              	.LCFI39:
 434              		.cfi_def_cfa_offset 4
 435 0020 BD46     		mov	sp, r7
 436              	.LCFI40:
 437              		.cfi_def_cfa_register 13
 438              		@ sp needed
 439 0022 5DF8047B 		ldr	r7, [sp], #4
 440              	.LCFI41:
 441              		.cfi_restore 7
 442              		.cfi_def_cfa_offset 0
 443 0026 7047     		bx	lr
 444              	.L29:
 445              		.align	2
 446              	.L28:
 447 0028 00300040 		.word	1073754112
 448              		.cfi_endproc
 449              	.LFE138:
 451              		.text
 452              	.Letext0:
 453              		.file 2 "d:\\program files (x86)\\arm gnu toolchain arm-none-eabi\\12.3 rel1\\arm-none-eabi\\inclu
 454              		.file 3 "d:\\program files (x86)\\arm gnu toolchain arm-none-eabi\\12.3 rel1\\arm-none-eabi\\inclu
 455              		.file 4 "../firmware/CMSIS/device/n32g430.h"
 456              		.file 5 "../firmware/n32g430_std_periph_driver/inc/n32g430_iwdg.h"
ARM GAS  C:\Users\ZShuai\AppData\Local\Temp\cc66iswH.s 			page 12

