ARM GAS  C:\Users\ZShuai\AppData\Local\Temp\ccdVPhW1.s 			page 1


   1              		.cpu cortex-m4
   2              		.arch armv7e-m
   3              		.fpu fpv4-sp-d16
   4              		.eabi_attribute 27, 1
   5              		.eabi_attribute 28, 1
   6              		.eabi_attribute 20, 1
   7              		.eabi_attribute 21, 1
   8              		.eabi_attribute 23, 3
   9              		.eabi_attribute 24, 1
  10              		.eabi_attribute 25, 1
  11              		.eabi_attribute 26, 1
  12              		.eabi_attribute 30, 6
  13              		.eabi_attribute 34, 1
  14              		.eabi_attribute 18, 4
  15              		.file	"n32g430_exti.c"
  16              		.text
  17              	.Ltext0:
  18              		.cfi_sections	.debug_frame
  19              		.file 1 "../firmware/n32g430_std_periph_driver/src/n32g430_exti.c"
  20              		.section	.text.EXTI_Reset,"ax",%progbits
  21              		.align	1
  22              		.global	EXTI_Reset
  23              		.syntax unified
  24              		.thumb
  25              		.thumb_func
  27              	EXTI_Reset:
  28              	.LFB130:
   1:../firmware/n32g430_std_periph_driver/src/n32g430_exti.c **** /**
   2:../firmware/n32g430_std_periph_driver/src/n32g430_exti.c **** *     Copyright (c) 2022, Nations Technologies Inc.
   3:../firmware/n32g430_std_periph_driver/src/n32g430_exti.c **** * 
   4:../firmware/n32g430_std_periph_driver/src/n32g430_exti.c **** *     All rights reserved.
   5:../firmware/n32g430_std_periph_driver/src/n32g430_exti.c **** *
   6:../firmware/n32g430_std_periph_driver/src/n32g430_exti.c **** *     This software is the exclusive property of Nations Technologies Inc. (Hereinafter 
   7:../firmware/n32g430_std_periph_driver/src/n32g430_exti.c **** * referred to as NATIONS). This software, and the product of NATIONS described herein 
   8:../firmware/n32g430_std_periph_driver/src/n32g430_exti.c **** * (Hereinafter referred to as the Product) are owned by NATIONS under the laws and treaties
   9:../firmware/n32g430_std_periph_driver/src/n32g430_exti.c **** * of the People's Republic of China and other applicable jurisdictions worldwide.
  10:../firmware/n32g430_std_periph_driver/src/n32g430_exti.c **** *
  11:../firmware/n32g430_std_periph_driver/src/n32g430_exti.c **** *     NATIONS does not grant any license under its patents, copyrights, trademarks, or other 
  12:../firmware/n32g430_std_periph_driver/src/n32g430_exti.c **** * intellectual property rights. Names and brands of third party may be mentioned or referred 
  13:../firmware/n32g430_std_periph_driver/src/n32g430_exti.c **** * thereto (if any) for identification purposes only.
  14:../firmware/n32g430_std_periph_driver/src/n32g430_exti.c **** *
  15:../firmware/n32g430_std_periph_driver/src/n32g430_exti.c **** *     NATIONS reserves the right to make changes, corrections, enhancements, modifications, and 
  16:../firmware/n32g430_std_periph_driver/src/n32g430_exti.c **** * improvements to this software at any time without notice. Please contact NATIONS and obtain 
  17:../firmware/n32g430_std_periph_driver/src/n32g430_exti.c **** * the latest version of this software before placing orders.
  18:../firmware/n32g430_std_periph_driver/src/n32g430_exti.c **** 
  19:../firmware/n32g430_std_periph_driver/src/n32g430_exti.c **** *     Although NATIONS has attempted to provide accurate and reliable information, NATIONS assumes 
  20:../firmware/n32g430_std_periph_driver/src/n32g430_exti.c **** * no responsibility for the accuracy and reliability of this software.
  21:../firmware/n32g430_std_periph_driver/src/n32g430_exti.c **** * 
  22:../firmware/n32g430_std_periph_driver/src/n32g430_exti.c **** *     It is the responsibility of the user of this software to properly design, program, and test 
  23:../firmware/n32g430_std_periph_driver/src/n32g430_exti.c **** * the functionality and safety of any application made of this information and any resulting produc
  24:../firmware/n32g430_std_periph_driver/src/n32g430_exti.c **** * In no event shall NATIONS be liable for any direct, indirect, incidental, special,exemplary, or 
  25:../firmware/n32g430_std_periph_driver/src/n32g430_exti.c **** * consequential damages arising in any way out of the use of this software or the Product.
  26:../firmware/n32g430_std_periph_driver/src/n32g430_exti.c **** *
  27:../firmware/n32g430_std_periph_driver/src/n32g430_exti.c **** *     NATIONS Products are neither intended nor warranted for usage in systems or equipment, any
  28:../firmware/n32g430_std_periph_driver/src/n32g430_exti.c **** * malfunction or failure of which may cause loss of human life, bodily injury or severe property 
  29:../firmware/n32g430_std_periph_driver/src/n32g430_exti.c **** * damage. Such applications are deemed, "Insecure Usage".
  30:../firmware/n32g430_std_periph_driver/src/n32g430_exti.c **** *
ARM GAS  C:\Users\ZShuai\AppData\Local\Temp\ccdVPhW1.s 			page 2


  31:../firmware/n32g430_std_periph_driver/src/n32g430_exti.c **** *     All Insecure Usage shall be made at user's risk. User shall indemnify NATIONS and hold NATION
  32:../firmware/n32g430_std_periph_driver/src/n32g430_exti.c **** * harmless from and against all claims, costs, damages, and other liabilities, arising from or rela
  33:../firmware/n32g430_std_periph_driver/src/n32g430_exti.c **** * to any customer's Insecure Usage.
  34:../firmware/n32g430_std_periph_driver/src/n32g430_exti.c **** 
  35:../firmware/n32g430_std_periph_driver/src/n32g430_exti.c **** *     Any express or implied warranty with regard to this software or the Product, including,but no
  36:../firmware/n32g430_std_periph_driver/src/n32g430_exti.c **** * limited to, the warranties of merchantability, fitness for a particular purpose and non-infringem
  37:../firmware/n32g430_std_periph_driver/src/n32g430_exti.c **** * are disclaimed to the fullest extent permitted by law.
  38:../firmware/n32g430_std_periph_driver/src/n32g430_exti.c **** 
  39:../firmware/n32g430_std_periph_driver/src/n32g430_exti.c **** *     Unless otherwise explicitly permitted by NATIONS, anyone may not duplicate, modify, transcrib
  40:../firmware/n32g430_std_periph_driver/src/n32g430_exti.c **** * or otherwise distribute this software for any purposes, in whole or in part.
  41:../firmware/n32g430_std_periph_driver/src/n32g430_exti.c **** *
  42:../firmware/n32g430_std_periph_driver/src/n32g430_exti.c **** *     NATIONS products and technologies shall not be used for or incorporated into any products or 
  43:../firmware/n32g430_std_periph_driver/src/n32g430_exti.c **** * whose manufacture, use, or sale is prohibited under any applicable domestic or foreign laws or re
  44:../firmware/n32g430_std_periph_driver/src/n32g430_exti.c **** * User shall comply with any applicable export control laws and regulations promulgated and adminis
  45:../firmware/n32g430_std_periph_driver/src/n32g430_exti.c **** * the governments of any countries asserting jurisdiction over the parties or transactions.
  46:../firmware/n32g430_std_periph_driver/src/n32g430_exti.c **** **/
  47:../firmware/n32g430_std_periph_driver/src/n32g430_exti.c **** 
  48:../firmware/n32g430_std_periph_driver/src/n32g430_exti.c **** /**
  49:../firmware/n32g430_std_periph_driver/src/n32g430_exti.c **** *\*\file n32g430_exti.c
  50:../firmware/n32g430_std_periph_driver/src/n32g430_exti.c **** *\*\author Nations
  51:../firmware/n32g430_std_periph_driver/src/n32g430_exti.c **** *\*\version v1.0.0
  52:../firmware/n32g430_std_periph_driver/src/n32g430_exti.c **** *\*\copyright Copyright (c) 2022, Nations Technologies Inc. All rights reserved.
  53:../firmware/n32g430_std_periph_driver/src/n32g430_exti.c **** **/
  54:../firmware/n32g430_std_periph_driver/src/n32g430_exti.c **** 
  55:../firmware/n32g430_std_periph_driver/src/n32g430_exti.c **** #include "n32g430_exti.h"
  56:../firmware/n32g430_std_periph_driver/src/n32g430_exti.c **** 
  57:../firmware/n32g430_std_periph_driver/src/n32g430_exti.c **** 
  58:../firmware/n32g430_std_periph_driver/src/n32g430_exti.c **** /**
  59:../firmware/n32g430_std_periph_driver/src/n32g430_exti.c **** *\*\name    EXTI_Reset.
  60:../firmware/n32g430_std_periph_driver/src/n32g430_exti.c **** *\*\fun     Reset the EXTI registers.
  61:../firmware/n32g430_std_periph_driver/src/n32g430_exti.c **** *\*\return  none
  62:../firmware/n32g430_std_periph_driver/src/n32g430_exti.c **** **/
  63:../firmware/n32g430_std_periph_driver/src/n32g430_exti.c **** void EXTI_Reset(void)
  64:../firmware/n32g430_std_periph_driver/src/n32g430_exti.c **** {
  29              		.loc 1 64 1
  30              		.cfi_startproc
  31              		@ args = 0, pretend = 0, frame = 0
  32              		@ frame_needed = 1, uses_anonymous_args = 0
  33              		@ link register save eliminated.
  34 0000 80B4     		push	{r7}
  35              	.LCFI0:
  36              		.cfi_def_cfa_offset 4
  37              		.cfi_offset 7, -4
  38 0002 00AF     		add	r7, sp, #0
  39              	.LCFI1:
  40              		.cfi_def_cfa_register 7
  65:../firmware/n32g430_std_periph_driver/src/n32g430_exti.c ****     EXTI->IMASK  = 0x00000000;
  41              		.loc 1 65 9
  42 0004 0A4B     		ldr	r3, .L2
  43              		.loc 1 65 18
  44 0006 0022     		movs	r2, #0
  45 0008 1A60     		str	r2, [r3]
  66:../firmware/n32g430_std_periph_driver/src/n32g430_exti.c ****     EXTI->EMASK  = 0x00000000;
  46              		.loc 1 66 9
  47 000a 094B     		ldr	r3, .L2
  48              		.loc 1 66 18
  49 000c 0022     		movs	r2, #0
ARM GAS  C:\Users\ZShuai\AppData\Local\Temp\ccdVPhW1.s 			page 3


  50 000e 5A60     		str	r2, [r3, #4]
  67:../firmware/n32g430_std_periph_driver/src/n32g430_exti.c ****     EXTI->RT_CFG = 0x00000000;
  51              		.loc 1 67 9
  52 0010 074B     		ldr	r3, .L2
  53              		.loc 1 67 18
  54 0012 0022     		movs	r2, #0
  55 0014 9A60     		str	r2, [r3, #8]
  68:../firmware/n32g430_std_periph_driver/src/n32g430_exti.c ****     EXTI->FT_CFG = 0x00000000;
  56              		.loc 1 68 9
  57 0016 064B     		ldr	r3, .L2
  58              		.loc 1 68 18
  59 0018 0022     		movs	r2, #0
  60 001a DA60     		str	r2, [r3, #12]
  69:../firmware/n32g430_std_periph_driver/src/n32g430_exti.c ****     EXTI->PEND   = 0x00FFFFFF;
  61              		.loc 1 69 9
  62 001c 044B     		ldr	r3, .L2
  63              		.loc 1 69 18
  64 001e 6FF07F42 		mvn	r2, #-16777216
  65 0022 5A61     		str	r2, [r3, #20]
  70:../firmware/n32g430_std_periph_driver/src/n32g430_exti.c **** }
  66              		.loc 1 70 1
  67 0024 00BF     		nop
  68 0026 BD46     		mov	sp, r7
  69              	.LCFI2:
  70              		.cfi_def_cfa_register 13
  71              		@ sp needed
  72 0028 5DF8047B 		ldr	r7, [sp], #4
  73              	.LCFI3:
  74              		.cfi_restore 7
  75              		.cfi_def_cfa_offset 0
  76 002c 7047     		bx	lr
  77              	.L3:
  78 002e 00BF     		.align	2
  79              	.L2:
  80 0030 00040140 		.word	1073808384
  81              		.cfi_endproc
  82              	.LFE130:
  84              		.section	.text.EXTI_Peripheral_Initializes,"ax",%progbits
  85              		.align	1
  86              		.global	EXTI_Peripheral_Initializes
  87              		.syntax unified
  88              		.thumb
  89              		.thumb_func
  91              	EXTI_Peripheral_Initializes:
  92              	.LFB131:
  71:../firmware/n32g430_std_periph_driver/src/n32g430_exti.c **** 
  72:../firmware/n32g430_std_periph_driver/src/n32g430_exti.c **** /**
  73:../firmware/n32g430_std_periph_driver/src/n32g430_exti.c **** *\*\name    EXTI_Peripheral_Initializes.
  74:../firmware/n32g430_std_periph_driver/src/n32g430_exti.c **** *\*\fun     Initializes the EXTI according to EXTI_InitStruct.
  75:../firmware/n32g430_std_periph_driver/src/n32g430_exti.c **** *\*\param   EXTI_InitStruct :
  76:../firmware/n32g430_std_periph_driver/src/n32g430_exti.c **** *\*\          - EXTI_Mode
  77:../firmware/n32g430_std_periph_driver/src/n32g430_exti.c **** *\*\            - EXTI_Mode_Interrupt
  78:../firmware/n32g430_std_periph_driver/src/n32g430_exti.c **** *\*\            - EXTI_Mode_Event
  79:../firmware/n32g430_std_periph_driver/src/n32g430_exti.c **** *\*\          - EXTI_Trigger
  80:../firmware/n32g430_std_periph_driver/src/n32g430_exti.c **** *\*\            - EXTI_Trigger_Rising
  81:../firmware/n32g430_std_periph_driver/src/n32g430_exti.c **** *\*\            - EXTI_Trigger_Falling
  82:../firmware/n32g430_std_periph_driver/src/n32g430_exti.c **** *\*\            - EXTI_Trigger_Rising_Falling
ARM GAS  C:\Users\ZShuai\AppData\Local\Temp\ccdVPhW1.s 			page 4


  83:../firmware/n32g430_std_periph_driver/src/n32g430_exti.c **** *\*\          - EXTI_Line
  84:../firmware/n32g430_std_periph_driver/src/n32g430_exti.c **** *\*\            - EXTI_LINE0              
  85:../firmware/n32g430_std_periph_driver/src/n32g430_exti.c **** *\*\            - EXTI_LINE1            
  86:../firmware/n32g430_std_periph_driver/src/n32g430_exti.c **** *\*\            - EXTI_LINE2              
  87:../firmware/n32g430_std_periph_driver/src/n32g430_exti.c **** *\*\            - EXTI_LINE3             
  88:../firmware/n32g430_std_periph_driver/src/n32g430_exti.c **** *\*\            - EXTI_LINE4              
  89:../firmware/n32g430_std_periph_driver/src/n32g430_exti.c **** *\*\            - EXTI_LINE5 
  90:../firmware/n32g430_std_periph_driver/src/n32g430_exti.c **** *\*\            - EXTI_LINE6              
  91:../firmware/n32g430_std_periph_driver/src/n32g430_exti.c **** *\*\            - EXTI_LINE7                
  92:../firmware/n32g430_std_periph_driver/src/n32g430_exti.c **** *\*\            - EXTI_LINE8              
  93:../firmware/n32g430_std_periph_driver/src/n32g430_exti.c **** *\*\            - EXTI_LINE9              
  94:../firmware/n32g430_std_periph_driver/src/n32g430_exti.c **** *\*\            - EXTI_LINE10              
  95:../firmware/n32g430_std_periph_driver/src/n32g430_exti.c **** *\*\            - EXTI_LINE11            
  96:../firmware/n32g430_std_periph_driver/src/n32g430_exti.c **** *\*\            - EXTI_LINE12            
  97:../firmware/n32g430_std_periph_driver/src/n32g430_exti.c **** *\*\            - EXTI_LINE13   
  98:../firmware/n32g430_std_periph_driver/src/n32g430_exti.c **** *\*\            - EXTI_LINE14
  99:../firmware/n32g430_std_periph_driver/src/n32g430_exti.c **** *\*\            - EXTI_LINE15   
 100:../firmware/n32g430_std_periph_driver/src/n32g430_exti.c **** *\*\            - EXTI_LINE16   
 101:../firmware/n32g430_std_periph_driver/src/n32g430_exti.c **** *\*\            - EXTI_LINE17   
 102:../firmware/n32g430_std_periph_driver/src/n32g430_exti.c **** *\*\            - EXTI_LINE18   
 103:../firmware/n32g430_std_periph_driver/src/n32g430_exti.c **** *\*\            - EXTI_LINE19     
 104:../firmware/n32g430_std_periph_driver/src/n32g430_exti.c **** *\*\            - EXTI_LINE20   
 105:../firmware/n32g430_std_periph_driver/src/n32g430_exti.c **** *\*\            - EXTI_LINE21   
 106:../firmware/n32g430_std_periph_driver/src/n32g430_exti.c **** *\*\            - EXTI_LINE22 
 107:../firmware/n32g430_std_periph_driver/src/n32g430_exti.c **** *\*\            - EXTI_LINE23  
 108:../firmware/n32g430_std_periph_driver/src/n32g430_exti.c **** *\*\          - EXTI_LineCmd
 109:../firmware/n32g430_std_periph_driver/src/n32g430_exti.c **** *\*\            - ENABLE
 110:../firmware/n32g430_std_periph_driver/src/n32g430_exti.c **** *\*\            - DISABLE
 111:../firmware/n32g430_std_periph_driver/src/n32g430_exti.c **** *\*\return  none
 112:../firmware/n32g430_std_periph_driver/src/n32g430_exti.c **** **/
 113:../firmware/n32g430_std_periph_driver/src/n32g430_exti.c **** void EXTI_Peripheral_Initializes(EXTI_InitType* EXTI_InitStruct)
 114:../firmware/n32g430_std_periph_driver/src/n32g430_exti.c **** {
  93              		.loc 1 114 1
  94              		.cfi_startproc
  95              		@ args = 0, pretend = 0, frame = 8
  96              		@ frame_needed = 1, uses_anonymous_args = 0
  97 0000 80B5     		push	{r7, lr}
  98              	.LCFI4:
  99              		.cfi_def_cfa_offset 8
 100              		.cfi_offset 7, -8
 101              		.cfi_offset 14, -4
 102 0002 82B0     		sub	sp, sp, #8
 103              	.LCFI5:
 104              		.cfi_def_cfa_offset 16
 105 0004 00AF     		add	r7, sp, #0
 106              	.LCFI6:
 107              		.cfi_def_cfa_register 7
 108 0006 7860     		str	r0, [r7, #4]
 115:../firmware/n32g430_std_periph_driver/src/n32g430_exti.c ****     EXTI_Work_Mode_Config(EXTI_InitStruct->EXTI_Line,EXTI_InitStruct->EXTI_Mode);
 109              		.loc 1 115 5
 110 0008 7B68     		ldr	r3, [r7, #4]
 111 000a 1A68     		ldr	r2, [r3]
 112              		.loc 1 115 69
 113 000c 7B68     		ldr	r3, [r7, #4]
 114 000e 1B79     		ldrb	r3, [r3, #4]	@ zero_extendqisi2
 115              		.loc 1 115 5
 116 0010 1946     		mov	r1, r3
ARM GAS  C:\Users\ZShuai\AppData\Local\Temp\ccdVPhW1.s 			page 5


 117 0012 1046     		mov	r0, r2
 118 0014 FFF7FEFF 		bl	EXTI_Work_Mode_Config
 116:../firmware/n32g430_std_periph_driver/src/n32g430_exti.c ****     EXTI_Trigger_Config(EXTI_InitStruct->EXTI_Line,EXTI_InitStruct->EXTI_Trigger);
 119              		.loc 1 116 5
 120 0018 7B68     		ldr	r3, [r7, #4]
 121 001a 1A68     		ldr	r2, [r3]
 122              		.loc 1 116 67
 123 001c 7B68     		ldr	r3, [r7, #4]
 124 001e 5B79     		ldrb	r3, [r3, #5]	@ zero_extendqisi2
 125              		.loc 1 116 5
 126 0020 1946     		mov	r1, r3
 127 0022 1046     		mov	r0, r2
 128 0024 FFF7FEFF 		bl	EXTI_Trigger_Config
 117:../firmware/n32g430_std_periph_driver/src/n32g430_exti.c ****     EXTI_LineCmd_Disable(EXTI_InitStruct->EXTI_Line,EXTI_InitStruct->EXTI_LineCmd,EXTI_InitStruct->
 129              		.loc 1 117 5
 130 0028 7B68     		ldr	r3, [r7, #4]
 131 002a 1868     		ldr	r0, [r3]
 132              		.loc 1 117 68
 133 002c 7B68     		ldr	r3, [r7, #4]
 134 002e 9B79     		ldrb	r3, [r3, #6]	@ zero_extendqisi2
 135              		.loc 1 117 5
 136 0030 1946     		mov	r1, r3
 137              		.loc 1 117 98
 138 0032 7B68     		ldr	r3, [r7, #4]
 139 0034 1B79     		ldrb	r3, [r3, #4]	@ zero_extendqisi2
 140              		.loc 1 117 5
 141 0036 1A46     		mov	r2, r3
 142 0038 FFF7FEFF 		bl	EXTI_LineCmd_Disable
 118:../firmware/n32g430_std_periph_driver/src/n32g430_exti.c **** }
 143              		.loc 1 118 1
 144 003c 00BF     		nop
 145 003e 0837     		adds	r7, r7, #8
 146              	.LCFI7:
 147              		.cfi_def_cfa_offset 8
 148 0040 BD46     		mov	sp, r7
 149              	.LCFI8:
 150              		.cfi_def_cfa_register 13
 151              		@ sp needed
 152 0042 80BD     		pop	{r7, pc}
 153              		.cfi_endproc
 154              	.LFE131:
 156              		.section	.text.EXTI_Work_Mode_Config,"ax",%progbits
 157              		.align	1
 158              		.global	EXTI_Work_Mode_Config
 159              		.syntax unified
 160              		.thumb
 161              		.thumb_func
 163              	EXTI_Work_Mode_Config:
 164              	.LFB132:
 119:../firmware/n32g430_std_periph_driver/src/n32g430_exti.c **** 
 120:../firmware/n32g430_std_periph_driver/src/n32g430_exti.c **** /**
 121:../firmware/n32g430_std_periph_driver/src/n32g430_exti.c **** *\*\name    EXTI_Work_Mode_Config.
 122:../firmware/n32g430_std_periph_driver/src/n32g430_exti.c **** *\*\fun     Config the EXTI according to EXTI_Mode.
 123:../firmware/n32g430_std_periph_driver/src/n32g430_exti.c **** *\*\param   exti_mode :
 124:../firmware/n32g430_std_periph_driver/src/n32g430_exti.c **** *\*\            - EXTI_Mode_Interrupt
 125:../firmware/n32g430_std_periph_driver/src/n32g430_exti.c **** *\*\            - EXTI_Mode_Event
 126:../firmware/n32g430_std_periph_driver/src/n32g430_exti.c **** *\*\param   exti_line :
ARM GAS  C:\Users\ZShuai\AppData\Local\Temp\ccdVPhW1.s 			page 6


 127:../firmware/n32g430_std_periph_driver/src/n32g430_exti.c **** *\*\            - EXTI_LINE0              
 128:../firmware/n32g430_std_periph_driver/src/n32g430_exti.c **** *\*\            - EXTI_LINE1            
 129:../firmware/n32g430_std_periph_driver/src/n32g430_exti.c **** *\*\            - EXTI_LINE2              
 130:../firmware/n32g430_std_periph_driver/src/n32g430_exti.c **** *\*\            - EXTI_LINE3             
 131:../firmware/n32g430_std_periph_driver/src/n32g430_exti.c **** *\*\            - EXTI_LINE4              
 132:../firmware/n32g430_std_periph_driver/src/n32g430_exti.c **** *\*\            - EXTI_LINE5 
 133:../firmware/n32g430_std_periph_driver/src/n32g430_exti.c **** *\*\            - EXTI_LINE6              
 134:../firmware/n32g430_std_periph_driver/src/n32g430_exti.c **** *\*\            - EXTI_LINE7                
 135:../firmware/n32g430_std_periph_driver/src/n32g430_exti.c **** *\*\            - EXTI_LINE8              
 136:../firmware/n32g430_std_periph_driver/src/n32g430_exti.c **** *\*\            - EXTI_LINE9              
 137:../firmware/n32g430_std_periph_driver/src/n32g430_exti.c **** *\*\            - EXTI_LINE10              
 138:../firmware/n32g430_std_periph_driver/src/n32g430_exti.c **** *\*\            - EXTI_LINE11            
 139:../firmware/n32g430_std_periph_driver/src/n32g430_exti.c **** *\*\            - EXTI_LINE12            
 140:../firmware/n32g430_std_periph_driver/src/n32g430_exti.c **** *\*\            - EXTI_LINE13   
 141:../firmware/n32g430_std_periph_driver/src/n32g430_exti.c **** *\*\            - EXTI_LINE14
 142:../firmware/n32g430_std_periph_driver/src/n32g430_exti.c **** *\*\            - EXTI_LINE15   
 143:../firmware/n32g430_std_periph_driver/src/n32g430_exti.c **** *\*\            - EXTI_LINE16   
 144:../firmware/n32g430_std_periph_driver/src/n32g430_exti.c **** *\*\            - EXTI_LINE17   
 145:../firmware/n32g430_std_periph_driver/src/n32g430_exti.c **** *\*\            - EXTI_LINE18   
 146:../firmware/n32g430_std_periph_driver/src/n32g430_exti.c **** *\*\            - EXTI_LINE19     
 147:../firmware/n32g430_std_periph_driver/src/n32g430_exti.c **** *\*\            - EXTI_LINE20   
 148:../firmware/n32g430_std_periph_driver/src/n32g430_exti.c **** *\*\            - EXTI_LINE21   
 149:../firmware/n32g430_std_periph_driver/src/n32g430_exti.c **** *\*\            - EXTI_LINE22 
 150:../firmware/n32g430_std_periph_driver/src/n32g430_exti.c **** *\*\            - EXTI_LINE23 
 151:../firmware/n32g430_std_periph_driver/src/n32g430_exti.c **** *\*\return  none
 152:../firmware/n32g430_std_periph_driver/src/n32g430_exti.c **** **/
 153:../firmware/n32g430_std_periph_driver/src/n32g430_exti.c **** void EXTI_Work_Mode_Config(uint32_t exti_line,uint32_t exti_mode)
 154:../firmware/n32g430_std_periph_driver/src/n32g430_exti.c **** {
 165              		.loc 1 154 1
 166              		.cfi_startproc
 167              		@ args = 0, pretend = 0, frame = 16
 168              		@ frame_needed = 1, uses_anonymous_args = 0
 169              		@ link register save eliminated.
 170 0000 80B4     		push	{r7}
 171              	.LCFI9:
 172              		.cfi_def_cfa_offset 4
 173              		.cfi_offset 7, -4
 174 0002 85B0     		sub	sp, sp, #20
 175              	.LCFI10:
 176              		.cfi_def_cfa_offset 24
 177 0004 00AF     		add	r7, sp, #0
 178              	.LCFI11:
 179              		.cfi_def_cfa_register 7
 180 0006 7860     		str	r0, [r7, #4]
 181 0008 3960     		str	r1, [r7]
 155:../firmware/n32g430_std_periph_driver/src/n32g430_exti.c ****     uint32_t temp_value = 0;    
 182              		.loc 1 155 14
 183 000a 0023     		movs	r3, #0
 184 000c FB60     		str	r3, [r7, #12]
 156:../firmware/n32g430_std_periph_driver/src/n32g430_exti.c ****     temp_value = (uint32_t)EXTI_BASE;    
 185              		.loc 1 156 16
 186 000e 104B     		ldr	r3, .L6
 187 0010 FB60     		str	r3, [r7, #12]
 157:../firmware/n32g430_std_periph_driver/src/n32g430_exti.c ****     /* Clear work mode configuration */
 158:../firmware/n32g430_std_periph_driver/src/n32g430_exti.c ****     EXTI->IMASK &= ~exti_line;
 188              		.loc 1 158 9
 189 0012 0F4B     		ldr	r3, .L6
ARM GAS  C:\Users\ZShuai\AppData\Local\Temp\ccdVPhW1.s 			page 7


 190 0014 1A68     		ldr	r2, [r3]
 191              		.loc 1 158 20
 192 0016 7B68     		ldr	r3, [r7, #4]
 193 0018 DB43     		mvns	r3, r3
 194              		.loc 1 158 9
 195 001a 0D49     		ldr	r1, .L6
 196              		.loc 1 158 17
 197 001c 1340     		ands	r3, r3, r2
 198 001e 0B60     		str	r3, [r1]
 159:../firmware/n32g430_std_periph_driver/src/n32g430_exti.c ****     EXTI->EMASK &= ~exti_line;
 199              		.loc 1 159 9
 200 0020 0B4B     		ldr	r3, .L6
 201 0022 5A68     		ldr	r2, [r3, #4]
 202              		.loc 1 159 20
 203 0024 7B68     		ldr	r3, [r7, #4]
 204 0026 DB43     		mvns	r3, r3
 205              		.loc 1 159 9
 206 0028 0949     		ldr	r1, .L6
 207              		.loc 1 159 17
 208 002a 1340     		ands	r3, r3, r2
 209 002c 4B60     		str	r3, [r1, #4]
 160:../firmware/n32g430_std_periph_driver/src/n32g430_exti.c ****    /* Select the work mode */
 161:../firmware/n32g430_std_periph_driver/src/n32g430_exti.c ****     temp_value += exti_mode;
 210              		.loc 1 161 16
 211 002e FA68     		ldr	r2, [r7, #12]
 212 0030 3B68     		ldr	r3, [r7]
 213 0032 1344     		add	r3, r3, r2
 214 0034 FB60     		str	r3, [r7, #12]
 162:../firmware/n32g430_std_periph_driver/src/n32g430_exti.c ****     *(__IO uint32_t*)temp_value |= exti_line;
 215              		.loc 1 162 5
 216 0036 FB68     		ldr	r3, [r7, #12]
 217 0038 1968     		ldr	r1, [r3]
 218 003a FB68     		ldr	r3, [r7, #12]
 219              		.loc 1 162 33
 220 003c 7A68     		ldr	r2, [r7, #4]
 221 003e 0A43     		orrs	r2, r2, r1
 222 0040 1A60     		str	r2, [r3]
 163:../firmware/n32g430_std_periph_driver/src/n32g430_exti.c **** }
 223              		.loc 1 163 1
 224 0042 00BF     		nop
 225 0044 1437     		adds	r7, r7, #20
 226              	.LCFI12:
 227              		.cfi_def_cfa_offset 4
 228 0046 BD46     		mov	sp, r7
 229              	.LCFI13:
 230              		.cfi_def_cfa_register 13
 231              		@ sp needed
 232 0048 5DF8047B 		ldr	r7, [sp], #4
 233              	.LCFI14:
 234              		.cfi_restore 7
 235              		.cfi_def_cfa_offset 0
 236 004c 7047     		bx	lr
 237              	.L7:
 238 004e 00BF     		.align	2
 239              	.L6:
 240 0050 00040140 		.word	1073808384
 241              		.cfi_endproc
ARM GAS  C:\Users\ZShuai\AppData\Local\Temp\ccdVPhW1.s 			page 8


 242              	.LFE132:
 244              		.section	.text.EXTI_Trigger_Config,"ax",%progbits
 245              		.align	1
 246              		.global	EXTI_Trigger_Config
 247              		.syntax unified
 248              		.thumb
 249              		.thumb_func
 251              	EXTI_Trigger_Config:
 252              	.LFB133:
 164:../firmware/n32g430_std_periph_driver/src/n32g430_exti.c **** 
 165:../firmware/n32g430_std_periph_driver/src/n32g430_exti.c **** /**
 166:../firmware/n32g430_std_periph_driver/src/n32g430_exti.c **** *\*\name    EXTI_EXTI_Trigger_Config.
 167:../firmware/n32g430_std_periph_driver/src/n32g430_exti.c **** *\*\fun     Config the EXTI according to EXTI_Trigger.
 168:../firmware/n32g430_std_periph_driver/src/n32g430_exti.c **** *\*\param   exti_trigger :
 169:../firmware/n32g430_std_periph_driver/src/n32g430_exti.c **** *\*\            - EXTI_Trigger_Rising
 170:../firmware/n32g430_std_periph_driver/src/n32g430_exti.c **** *\*\            - EXTI_Trigger_Falling
 171:../firmware/n32g430_std_periph_driver/src/n32g430_exti.c **** *\*\            - EXTI_Trigger_Rising_Falling
 172:../firmware/n32g430_std_periph_driver/src/n32g430_exti.c **** *\*\param   exti_line :
 173:../firmware/n32g430_std_periph_driver/src/n32g430_exti.c **** *\*\            - EXTI_LINE0              
 174:../firmware/n32g430_std_periph_driver/src/n32g430_exti.c **** *\*\            - EXTI_LINE1            
 175:../firmware/n32g430_std_periph_driver/src/n32g430_exti.c **** *\*\            - EXTI_LINE2              
 176:../firmware/n32g430_std_periph_driver/src/n32g430_exti.c **** *\*\            - EXTI_LINE3             
 177:../firmware/n32g430_std_periph_driver/src/n32g430_exti.c **** *\*\            - EXTI_LINE4              
 178:../firmware/n32g430_std_periph_driver/src/n32g430_exti.c **** *\*\            - EXTI_LINE5 
 179:../firmware/n32g430_std_periph_driver/src/n32g430_exti.c **** *\*\            - EXTI_LINE6              
 180:../firmware/n32g430_std_periph_driver/src/n32g430_exti.c **** *\*\            - EXTI_LINE7                
 181:../firmware/n32g430_std_periph_driver/src/n32g430_exti.c **** *\*\            - EXTI_LINE8              
 182:../firmware/n32g430_std_periph_driver/src/n32g430_exti.c **** *\*\            - EXTI_LINE9              
 183:../firmware/n32g430_std_periph_driver/src/n32g430_exti.c **** *\*\            - EXTI_LINE10              
 184:../firmware/n32g430_std_periph_driver/src/n32g430_exti.c **** *\*\            - EXTI_LINE11            
 185:../firmware/n32g430_std_periph_driver/src/n32g430_exti.c **** *\*\            - EXTI_LINE12            
 186:../firmware/n32g430_std_periph_driver/src/n32g430_exti.c **** *\*\            - EXTI_LINE13   
 187:../firmware/n32g430_std_periph_driver/src/n32g430_exti.c **** *\*\            - EXTI_LINE14
 188:../firmware/n32g430_std_periph_driver/src/n32g430_exti.c **** *\*\            - EXTI_LINE15   
 189:../firmware/n32g430_std_periph_driver/src/n32g430_exti.c **** *\*\            - EXTI_LINE16   
 190:../firmware/n32g430_std_periph_driver/src/n32g430_exti.c **** *\*\            - EXTI_LINE17   
 191:../firmware/n32g430_std_periph_driver/src/n32g430_exti.c **** *\*\            - EXTI_LINE18   
 192:../firmware/n32g430_std_periph_driver/src/n32g430_exti.c **** *\*\            - EXTI_LINE19     
 193:../firmware/n32g430_std_periph_driver/src/n32g430_exti.c **** *\*\            - EXTI_LINE20   
 194:../firmware/n32g430_std_periph_driver/src/n32g430_exti.c **** *\*\            - EXTI_LINE21  
 195:../firmware/n32g430_std_periph_driver/src/n32g430_exti.c **** *\*\            - EXTI_LINE22
 196:../firmware/n32g430_std_periph_driver/src/n32g430_exti.c **** *\*\            - EXTI_LINE23
 197:../firmware/n32g430_std_periph_driver/src/n32g430_exti.c **** *\*\return  none
 198:../firmware/n32g430_std_periph_driver/src/n32g430_exti.c **** **/
 199:../firmware/n32g430_std_periph_driver/src/n32g430_exti.c **** void EXTI_Trigger_Config(uint32_t exti_line,uint32_t exti_trigger)
 200:../firmware/n32g430_std_periph_driver/src/n32g430_exti.c **** {
 253              		.loc 1 200 1
 254              		.cfi_startproc
 255              		@ args = 0, pretend = 0, frame = 16
 256              		@ frame_needed = 1, uses_anonymous_args = 0
 257              		@ link register save eliminated.
 258 0000 80B4     		push	{r7}
 259              	.LCFI15:
 260              		.cfi_def_cfa_offset 4
 261              		.cfi_offset 7, -4
 262 0002 85B0     		sub	sp, sp, #20
 263              	.LCFI16:
ARM GAS  C:\Users\ZShuai\AppData\Local\Temp\ccdVPhW1.s 			page 9


 264              		.cfi_def_cfa_offset 24
 265 0004 00AF     		add	r7, sp, #0
 266              	.LCFI17:
 267              		.cfi_def_cfa_register 7
 268 0006 7860     		str	r0, [r7, #4]
 269 0008 3960     		str	r1, [r7]
 201:../firmware/n32g430_std_periph_driver/src/n32g430_exti.c ****     uint32_t temp_value = 0;    
 270              		.loc 1 201 14
 271 000a 0023     		movs	r3, #0
 272 000c FB60     		str	r3, [r7, #12]
 202:../firmware/n32g430_std_periph_driver/src/n32g430_exti.c ****     temp_value = (uint32_t)EXTI_BASE;      
 273              		.loc 1 202 16
 274 000e 194B     		ldr	r3, .L12
 275 0010 FB60     		str	r3, [r7, #12]
 203:../firmware/n32g430_std_periph_driver/src/n32g430_exti.c ****     /* Clear Rising Falling edge configuration */
 204:../firmware/n32g430_std_periph_driver/src/n32g430_exti.c ****     EXTI->RT_CFG &= ~exti_line;
 276              		.loc 1 204 9
 277 0012 184B     		ldr	r3, .L12
 278 0014 9A68     		ldr	r2, [r3, #8]
 279              		.loc 1 204 21
 280 0016 7B68     		ldr	r3, [r7, #4]
 281 0018 DB43     		mvns	r3, r3
 282              		.loc 1 204 9
 283 001a 1649     		ldr	r1, .L12
 284              		.loc 1 204 18
 285 001c 1340     		ands	r3, r3, r2
 286 001e 8B60     		str	r3, [r1, #8]
 205:../firmware/n32g430_std_periph_driver/src/n32g430_exti.c ****     EXTI->FT_CFG &= ~exti_line;
 287              		.loc 1 205 9
 288 0020 144B     		ldr	r3, .L12
 289 0022 DA68     		ldr	r2, [r3, #12]
 290              		.loc 1 205 21
 291 0024 7B68     		ldr	r3, [r7, #4]
 292 0026 DB43     		mvns	r3, r3
 293              		.loc 1 205 9
 294 0028 1249     		ldr	r1, .L12
 295              		.loc 1 205 18
 296 002a 1340     		ands	r3, r3, r2
 297 002c CB60     		str	r3, [r1, #12]
 206:../firmware/n32g430_std_periph_driver/src/n32g430_exti.c **** 
 207:../firmware/n32g430_std_periph_driver/src/n32g430_exti.c ****    /* Select the trigger method */
 208:../firmware/n32g430_std_periph_driver/src/n32g430_exti.c ****     if(exti_trigger == EXTI_Trigger_Rising_Falling)
 298              		.loc 1 208 7
 299 002e 3B68     		ldr	r3, [r7]
 300 0030 102B     		cmp	r3, #16
 301 0032 0CD1     		bne	.L9
 209:../firmware/n32g430_std_periph_driver/src/n32g430_exti.c ****     {
 210:../firmware/n32g430_std_periph_driver/src/n32g430_exti.c ****         EXTI->RT_CFG |= exti_line;
 302              		.loc 1 210 13
 303 0034 0F4B     		ldr	r3, .L12
 304 0036 9A68     		ldr	r2, [r3, #8]
 305 0038 0E49     		ldr	r1, .L12
 306              		.loc 1 210 22
 307 003a 7B68     		ldr	r3, [r7, #4]
 308 003c 1343     		orrs	r3, r3, r2
 309 003e 8B60     		str	r3, [r1, #8]
 211:../firmware/n32g430_std_periph_driver/src/n32g430_exti.c ****         EXTI->FT_CFG |= exti_line;
ARM GAS  C:\Users\ZShuai\AppData\Local\Temp\ccdVPhW1.s 			page 10


 310              		.loc 1 211 13
 311 0040 0C4B     		ldr	r3, .L12
 312 0042 DA68     		ldr	r2, [r3, #12]
 313 0044 0B49     		ldr	r1, .L12
 314              		.loc 1 211 22
 315 0046 7B68     		ldr	r3, [r7, #4]
 316 0048 1343     		orrs	r3, r3, r2
 317 004a CB60     		str	r3, [r1, #12]
 212:../firmware/n32g430_std_periph_driver/src/n32g430_exti.c ****     }
 213:../firmware/n32g430_std_periph_driver/src/n32g430_exti.c ****     else
 214:../firmware/n32g430_std_periph_driver/src/n32g430_exti.c ****     {
 215:../firmware/n32g430_std_periph_driver/src/n32g430_exti.c ****         temp_value = (uint32_t)EXTI_BASE;
 216:../firmware/n32g430_std_periph_driver/src/n32g430_exti.c ****         temp_value += exti_trigger;
 217:../firmware/n32g430_std_periph_driver/src/n32g430_exti.c **** 
 218:../firmware/n32g430_std_periph_driver/src/n32g430_exti.c ****         *(__IO uint32_t*)temp_value |= exti_line;      
 219:../firmware/n32g430_std_periph_driver/src/n32g430_exti.c ****     }    
 220:../firmware/n32g430_std_periph_driver/src/n32g430_exti.c **** 
 221:../firmware/n32g430_std_periph_driver/src/n32g430_exti.c **** }
 318              		.loc 1 221 1
 319 004c 0BE0     		b	.L11
 320              	.L9:
 215:../firmware/n32g430_std_periph_driver/src/n32g430_exti.c ****         temp_value += exti_trigger;
 321              		.loc 1 215 20
 322 004e 094B     		ldr	r3, .L12
 323 0050 FB60     		str	r3, [r7, #12]
 216:../firmware/n32g430_std_periph_driver/src/n32g430_exti.c **** 
 324              		.loc 1 216 20
 325 0052 FA68     		ldr	r2, [r7, #12]
 326 0054 3B68     		ldr	r3, [r7]
 327 0056 1344     		add	r3, r3, r2
 328 0058 FB60     		str	r3, [r7, #12]
 218:../firmware/n32g430_std_periph_driver/src/n32g430_exti.c ****     }    
 329              		.loc 1 218 9
 330 005a FB68     		ldr	r3, [r7, #12]
 331 005c 1968     		ldr	r1, [r3]
 332 005e FB68     		ldr	r3, [r7, #12]
 218:../firmware/n32g430_std_periph_driver/src/n32g430_exti.c ****     }    
 333              		.loc 1 218 37
 334 0060 7A68     		ldr	r2, [r7, #4]
 335 0062 0A43     		orrs	r2, r2, r1
 336 0064 1A60     		str	r2, [r3]
 337              	.L11:
 338              		.loc 1 221 1
 339 0066 00BF     		nop
 340 0068 1437     		adds	r7, r7, #20
 341              	.LCFI18:
 342              		.cfi_def_cfa_offset 4
 343 006a BD46     		mov	sp, r7
 344              	.LCFI19:
 345              		.cfi_def_cfa_register 13
 346              		@ sp needed
 347 006c 5DF8047B 		ldr	r7, [sp], #4
 348              	.LCFI20:
 349              		.cfi_restore 7
 350              		.cfi_def_cfa_offset 0
 351 0070 7047     		bx	lr
 352              	.L13:
ARM GAS  C:\Users\ZShuai\AppData\Local\Temp\ccdVPhW1.s 			page 11


 353 0072 00BF     		.align	2
 354              	.L12:
 355 0074 00040140 		.word	1073808384
 356              		.cfi_endproc
 357              	.LFE133:
 359              		.section	.text.EXTI_LineCmd_Disable,"ax",%progbits
 360              		.align	1
 361              		.global	EXTI_LineCmd_Disable
 362              		.syntax unified
 363              		.thumb
 364              		.thumb_func
 366              	EXTI_LineCmd_Disable:
 367              	.LFB134:
 222:../firmware/n32g430_std_periph_driver/src/n32g430_exti.c **** 
 223:../firmware/n32g430_std_periph_driver/src/n32g430_exti.c **** /**
 224:../firmware/n32g430_std_periph_driver/src/n32g430_exti.c **** *\*\name    EXTI_EXTI_LineCmd_Disable.
 225:../firmware/n32g430_std_periph_driver/src/n32g430_exti.c **** *\*\fun     Config the EXTI according to EXTI_LineCmd.
 226:../firmware/n32g430_std_periph_driver/src/n32g430_exti.c **** *\*\param   exti_linecmd :   
 227:../firmware/n32g430_std_periph_driver/src/n32g430_exti.c **** *\*\            - ENABLE
 228:../firmware/n32g430_std_periph_driver/src/n32g430_exti.c **** *\*\            - DISABLE
 229:../firmware/n32g430_std_periph_driver/src/n32g430_exti.c **** *\*\param   exti_mode :
 230:../firmware/n32g430_std_periph_driver/src/n32g430_exti.c **** *\*\            - EXTI_Mode_Interrupt
 231:../firmware/n32g430_std_periph_driver/src/n32g430_exti.c **** *\*\            - EXTI_Mode_Event
 232:../firmware/n32g430_std_periph_driver/src/n32g430_exti.c **** *\*\param   exti_line :
 233:../firmware/n32g430_std_periph_driver/src/n32g430_exti.c **** *\*\            - EXTI_LINE0              
 234:../firmware/n32g430_std_periph_driver/src/n32g430_exti.c **** *\*\            - EXTI_LINE1            
 235:../firmware/n32g430_std_periph_driver/src/n32g430_exti.c **** *\*\            - EXTI_LINE2              
 236:../firmware/n32g430_std_periph_driver/src/n32g430_exti.c **** *\*\            - EXTI_LINE3             
 237:../firmware/n32g430_std_periph_driver/src/n32g430_exti.c **** *\*\            - EXTI_LINE4              
 238:../firmware/n32g430_std_periph_driver/src/n32g430_exti.c **** *\*\            - EXTI_LINE5 
 239:../firmware/n32g430_std_periph_driver/src/n32g430_exti.c **** *\*\            - EXTI_LINE6              
 240:../firmware/n32g430_std_periph_driver/src/n32g430_exti.c **** *\*\            - EXTI_LINE7                
 241:../firmware/n32g430_std_periph_driver/src/n32g430_exti.c **** *\*\            - EXTI_LINE8              
 242:../firmware/n32g430_std_periph_driver/src/n32g430_exti.c **** *\*\            - EXTI_LINE9              
 243:../firmware/n32g430_std_periph_driver/src/n32g430_exti.c **** *\*\            - EXTI_LINE10              
 244:../firmware/n32g430_std_periph_driver/src/n32g430_exti.c **** *\*\            - EXTI_LINE11            
 245:../firmware/n32g430_std_periph_driver/src/n32g430_exti.c **** *\*\            - EXTI_LINE12            
 246:../firmware/n32g430_std_periph_driver/src/n32g430_exti.c **** *\*\            - EXTI_LINE13   
 247:../firmware/n32g430_std_periph_driver/src/n32g430_exti.c **** *\*\            - EXTI_LINE14
 248:../firmware/n32g430_std_periph_driver/src/n32g430_exti.c **** *\*\            - EXTI_LINE15   
 249:../firmware/n32g430_std_periph_driver/src/n32g430_exti.c **** *\*\            - EXTI_LINE16   
 250:../firmware/n32g430_std_periph_driver/src/n32g430_exti.c **** *\*\            - EXTI_LINE17   
 251:../firmware/n32g430_std_periph_driver/src/n32g430_exti.c **** *\*\            - EXTI_LINE18   
 252:../firmware/n32g430_std_periph_driver/src/n32g430_exti.c **** *\*\            - EXTI_LINE19     
 253:../firmware/n32g430_std_periph_driver/src/n32g430_exti.c **** *\*\            - EXTI_LINE20   
 254:../firmware/n32g430_std_periph_driver/src/n32g430_exti.c **** *\*\            - EXTI_LINE21 
 255:../firmware/n32g430_std_periph_driver/src/n32g430_exti.c **** *\*\            - EXTI_LINE22
 256:../firmware/n32g430_std_periph_driver/src/n32g430_exti.c **** *\*\            - EXTI_LINE23 
 257:../firmware/n32g430_std_periph_driver/src/n32g430_exti.c **** *\*\return  none
 258:../firmware/n32g430_std_periph_driver/src/n32g430_exti.c **** **/
 259:../firmware/n32g430_std_periph_driver/src/n32g430_exti.c **** void EXTI_LineCmd_Disable(uint32_t exti_line,uint32_t exti_linecmd,uint32_t exti_mode)
 260:../firmware/n32g430_std_periph_driver/src/n32g430_exti.c **** {
 368              		.loc 1 260 1
 369              		.cfi_startproc
 370              		@ args = 0, pretend = 0, frame = 24
 371              		@ frame_needed = 1, uses_anonymous_args = 0
 372              		@ link register save eliminated.
ARM GAS  C:\Users\ZShuai\AppData\Local\Temp\ccdVPhW1.s 			page 12


 373 0000 80B4     		push	{r7}
 374              	.LCFI21:
 375              		.cfi_def_cfa_offset 4
 376              		.cfi_offset 7, -4
 377 0002 87B0     		sub	sp, sp, #28
 378              	.LCFI22:
 379              		.cfi_def_cfa_offset 32
 380 0004 00AF     		add	r7, sp, #0
 381              	.LCFI23:
 382              		.cfi_def_cfa_register 7
 383 0006 F860     		str	r0, [r7, #12]
 384 0008 B960     		str	r1, [r7, #8]
 385 000a 7A60     		str	r2, [r7, #4]
 261:../firmware/n32g430_std_periph_driver/src/n32g430_exti.c ****     uint32_t temp_value = 0;    
 386              		.loc 1 261 14
 387 000c 0023     		movs	r3, #0
 388 000e 7B61     		str	r3, [r7, #20]
 262:../firmware/n32g430_std_periph_driver/src/n32g430_exti.c ****     temp_value = (uint32_t)EXTI_BASE;    
 389              		.loc 1 262 16
 390 0010 0A4B     		ldr	r3, .L17
 391 0012 7B61     		str	r3, [r7, #20]
 263:../firmware/n32g430_std_periph_driver/src/n32g430_exti.c ****      /* Disable the selected external lines */
 264:../firmware/n32g430_std_periph_driver/src/n32g430_exti.c ****     if(exti_linecmd == DISABLE)
 392              		.loc 1 264 7
 393 0014 BB68     		ldr	r3, [r7, #8]
 394 0016 002B     		cmp	r3, #0
 395 0018 0AD1     		bne	.L16
 265:../firmware/n32g430_std_periph_driver/src/n32g430_exti.c ****     {
 266:../firmware/n32g430_std_periph_driver/src/n32g430_exti.c ****         temp_value += exti_mode;
 396              		.loc 1 266 20
 397 001a 7A69     		ldr	r2, [r7, #20]
 398 001c 7B68     		ldr	r3, [r7, #4]
 399 001e 1344     		add	r3, r3, r2
 400 0020 7B61     		str	r3, [r7, #20]
 267:../firmware/n32g430_std_periph_driver/src/n32g430_exti.c ****         /* Disable the selected external lines */
 268:../firmware/n32g430_std_periph_driver/src/n32g430_exti.c ****         *(__IO uint32_t*)temp_value &= ~exti_line;             
 401              		.loc 1 268 9
 402 0022 7B69     		ldr	r3, [r7, #20]
 403 0024 1968     		ldr	r1, [r3]
 404              		.loc 1 268 40
 405 0026 FB68     		ldr	r3, [r7, #12]
 406 0028 DA43     		mvns	r2, r3
 407              		.loc 1 268 9
 408 002a 7B69     		ldr	r3, [r7, #20]
 409              		.loc 1 268 37
 410 002c 0A40     		ands	r2, r2, r1
 411 002e 1A60     		str	r2, [r3]
 412              	.L16:
 269:../firmware/n32g430_std_periph_driver/src/n32g430_exti.c ****     }
 270:../firmware/n32g430_std_periph_driver/src/n32g430_exti.c **** }
 413              		.loc 1 270 1
 414 0030 00BF     		nop
 415 0032 1C37     		adds	r7, r7, #28
 416              	.LCFI24:
 417              		.cfi_def_cfa_offset 4
 418 0034 BD46     		mov	sp, r7
 419              	.LCFI25:
ARM GAS  C:\Users\ZShuai\AppData\Local\Temp\ccdVPhW1.s 			page 13


 420              		.cfi_def_cfa_register 13
 421              		@ sp needed
 422 0036 5DF8047B 		ldr	r7, [sp], #4
 423              	.LCFI26:
 424              		.cfi_restore 7
 425              		.cfi_def_cfa_offset 0
 426 003a 7047     		bx	lr
 427              	.L18:
 428              		.align	2
 429              	.L17:
 430 003c 00040140 		.word	1073808384
 431              		.cfi_endproc
 432              	.LFE134:
 434              		.section	.text.EXTI_Structure_Initializes,"ax",%progbits
 435              		.align	1
 436              		.global	EXTI_Structure_Initializes
 437              		.syntax unified
 438              		.thumb
 439              		.thumb_func
 441              	EXTI_Structure_Initializes:
 442              	.LFB135:
 271:../firmware/n32g430_std_periph_driver/src/n32g430_exti.c **** 
 272:../firmware/n32g430_std_periph_driver/src/n32g430_exti.c **** 
 273:../firmware/n32g430_std_periph_driver/src/n32g430_exti.c **** /**
 274:../firmware/n32g430_std_periph_driver/src/n32g430_exti.c **** *\*\name    EXTI_Structure_Initializes.
 275:../firmware/n32g430_std_periph_driver/src/n32g430_exti.c **** *\*\fun     Fills each EXTI_InitStruct member with its default value.
 276:../firmware/n32g430_std_periph_driver/src/n32g430_exti.c **** *\*\param   EXTI_InitStruct :   
 277:../firmware/n32g430_std_periph_driver/src/n32g430_exti.c **** *\*\            - EXTI_Line
 278:../firmware/n32g430_std_periph_driver/src/n32g430_exti.c **** *\*\            - EXTI_Mode
 279:../firmware/n32g430_std_periph_driver/src/n32g430_exti.c **** *\*\            - EXTI_Trigger
 280:../firmware/n32g430_std_periph_driver/src/n32g430_exti.c **** *\*\            - EXTI_LineCmd  
 281:../firmware/n32g430_std_periph_driver/src/n32g430_exti.c **** *\*\return  none
 282:../firmware/n32g430_std_periph_driver/src/n32g430_exti.c **** **/
 283:../firmware/n32g430_std_periph_driver/src/n32g430_exti.c **** void EXTI_Structure_Initializes(EXTI_InitType* EXTI_InitStruct)
 284:../firmware/n32g430_std_periph_driver/src/n32g430_exti.c **** {
 443              		.loc 1 284 1
 444              		.cfi_startproc
 445              		@ args = 0, pretend = 0, frame = 8
 446              		@ frame_needed = 1, uses_anonymous_args = 0
 447              		@ link register save eliminated.
 448 0000 80B4     		push	{r7}
 449              	.LCFI27:
 450              		.cfi_def_cfa_offset 4
 451              		.cfi_offset 7, -4
 452 0002 83B0     		sub	sp, sp, #12
 453              	.LCFI28:
 454              		.cfi_def_cfa_offset 16
 455 0004 00AF     		add	r7, sp, #0
 456              	.LCFI29:
 457              		.cfi_def_cfa_register 7
 458 0006 7860     		str	r0, [r7, #4]
 285:../firmware/n32g430_std_periph_driver/src/n32g430_exti.c ****     EXTI_InitStruct->EXTI_Line    = EXTI_LINENONE;
 459              		.loc 1 285 35
 460 0008 7B68     		ldr	r3, [r7, #4]
 461 000a 0022     		movs	r2, #0
 462 000c 1A60     		str	r2, [r3]
 286:../firmware/n32g430_std_periph_driver/src/n32g430_exti.c ****     EXTI_InitStruct->EXTI_Mode    = EXTI_Mode_Interrupt;
ARM GAS  C:\Users\ZShuai\AppData\Local\Temp\ccdVPhW1.s 			page 14


 463              		.loc 1 286 35
 464 000e 7B68     		ldr	r3, [r7, #4]
 465 0010 0022     		movs	r2, #0
 466 0012 1A71     		strb	r2, [r3, #4]
 287:../firmware/n32g430_std_periph_driver/src/n32g430_exti.c ****     EXTI_InitStruct->EXTI_Trigger = EXTI_Trigger_Falling;
 467              		.loc 1 287 35
 468 0014 7B68     		ldr	r3, [r7, #4]
 469 0016 0C22     		movs	r2, #12
 470 0018 5A71     		strb	r2, [r3, #5]
 288:../firmware/n32g430_std_periph_driver/src/n32g430_exti.c ****     EXTI_InitStruct->EXTI_LineCmd = DISABLE;
 471              		.loc 1 288 35
 472 001a 7B68     		ldr	r3, [r7, #4]
 473 001c 0022     		movs	r2, #0
 474 001e 9A71     		strb	r2, [r3, #6]
 289:../firmware/n32g430_std_periph_driver/src/n32g430_exti.c **** }
 475              		.loc 1 289 1
 476 0020 00BF     		nop
 477 0022 0C37     		adds	r7, r7, #12
 478              	.LCFI30:
 479              		.cfi_def_cfa_offset 4
 480 0024 BD46     		mov	sp, r7
 481              	.LCFI31:
 482              		.cfi_def_cfa_register 13
 483              		@ sp needed
 484 0026 5DF8047B 		ldr	r7, [sp], #4
 485              	.LCFI32:
 486              		.cfi_restore 7
 487              		.cfi_def_cfa_offset 0
 488 002a 7047     		bx	lr
 489              		.cfi_endproc
 490              	.LFE135:
 492              		.section	.text.EXTI_Software_Interrupt_Trigger,"ax",%progbits
 493              		.align	1
 494              		.global	EXTI_Software_Interrupt_Trigger
 495              		.syntax unified
 496              		.thumb
 497              		.thumb_func
 499              	EXTI_Software_Interrupt_Trigger:
 500              	.LFB136:
 290:../firmware/n32g430_std_periph_driver/src/n32g430_exti.c **** 
 291:../firmware/n32g430_std_periph_driver/src/n32g430_exti.c **** 
 292:../firmware/n32g430_std_periph_driver/src/n32g430_exti.c **** /**
 293:../firmware/n32g430_std_periph_driver/src/n32g430_exti.c **** *\*\name    EXTI_Software_Interrupt_Trigger.
 294:../firmware/n32g430_std_periph_driver/src/n32g430_exti.c **** *\*\fun     Generates a Software interrupt.
 295:../firmware/n32g430_std_periph_driver/src/n32g430_exti.c **** *\*\param   exti_line :   
 296:../firmware/n32g430_std_periph_driver/src/n32g430_exti.c **** *\*\            - EXTI_LINE0              
 297:../firmware/n32g430_std_periph_driver/src/n32g430_exti.c **** *\*\            - EXTI_LINE1            
 298:../firmware/n32g430_std_periph_driver/src/n32g430_exti.c **** *\*\            - EXTI_LINE2              
 299:../firmware/n32g430_std_periph_driver/src/n32g430_exti.c **** *\*\            - EXTI_LINE3             
 300:../firmware/n32g430_std_periph_driver/src/n32g430_exti.c **** *\*\            - EXTI_LINE4              
 301:../firmware/n32g430_std_periph_driver/src/n32g430_exti.c **** *\*\            - EXTI_LINE5 
 302:../firmware/n32g430_std_periph_driver/src/n32g430_exti.c **** *\*\            - EXTI_LINE6              
 303:../firmware/n32g430_std_periph_driver/src/n32g430_exti.c **** *\*\            - EXTI_LINE7                
 304:../firmware/n32g430_std_periph_driver/src/n32g430_exti.c **** *\*\            - EXTI_LINE8              
 305:../firmware/n32g430_std_periph_driver/src/n32g430_exti.c **** *\*\            - EXTI_LINE9              
 306:../firmware/n32g430_std_periph_driver/src/n32g430_exti.c **** *\*\            - EXTI_LINE10              
 307:../firmware/n32g430_std_periph_driver/src/n32g430_exti.c **** *\*\            - EXTI_LINE11            
ARM GAS  C:\Users\ZShuai\AppData\Local\Temp\ccdVPhW1.s 			page 15


 308:../firmware/n32g430_std_periph_driver/src/n32g430_exti.c **** *\*\            - EXTI_LINE12            
 309:../firmware/n32g430_std_periph_driver/src/n32g430_exti.c **** *\*\            - EXTI_LINE13   
 310:../firmware/n32g430_std_periph_driver/src/n32g430_exti.c **** *\*\            - EXTI_LINE14
 311:../firmware/n32g430_std_periph_driver/src/n32g430_exti.c **** *\*\            - EXTI_LINE15   
 312:../firmware/n32g430_std_periph_driver/src/n32g430_exti.c **** *\*\            - EXTI_LINE16   
 313:../firmware/n32g430_std_periph_driver/src/n32g430_exti.c **** *\*\            - EXTI_LINE17   
 314:../firmware/n32g430_std_periph_driver/src/n32g430_exti.c **** *\*\            - EXTI_LINE18   
 315:../firmware/n32g430_std_periph_driver/src/n32g430_exti.c **** *\*\            - EXTI_LINE19     
 316:../firmware/n32g430_std_periph_driver/src/n32g430_exti.c **** *\*\            - EXTI_LINE20   
 317:../firmware/n32g430_std_periph_driver/src/n32g430_exti.c **** *\*\            - EXTI_LINE21 
 318:../firmware/n32g430_std_periph_driver/src/n32g430_exti.c **** *\*\            - EXTI_LINE22
 319:../firmware/n32g430_std_periph_driver/src/n32g430_exti.c **** *\*\            - EXTI_LINE23
 320:../firmware/n32g430_std_periph_driver/src/n32g430_exti.c **** *\*\return  none
 321:../firmware/n32g430_std_periph_driver/src/n32g430_exti.c **** **/
 322:../firmware/n32g430_std_periph_driver/src/n32g430_exti.c **** void EXTI_Software_Interrupt_Trigger(uint32_t exti_line)
 323:../firmware/n32g430_std_periph_driver/src/n32g430_exti.c **** {
 501              		.loc 1 323 1
 502              		.cfi_startproc
 503              		@ args = 0, pretend = 0, frame = 8
 504              		@ frame_needed = 1, uses_anonymous_args = 0
 505              		@ link register save eliminated.
 506 0000 80B4     		push	{r7}
 507              	.LCFI33:
 508              		.cfi_def_cfa_offset 4
 509              		.cfi_offset 7, -4
 510 0002 83B0     		sub	sp, sp, #12
 511              	.LCFI34:
 512              		.cfi_def_cfa_offset 16
 513 0004 00AF     		add	r7, sp, #0
 514              	.LCFI35:
 515              		.cfi_def_cfa_register 7
 516 0006 7860     		str	r0, [r7, #4]
 324:../firmware/n32g430_std_periph_driver/src/n32g430_exti.c ****     /* Set the EXTI_SWIE ON bit, The EXTI generates a Software interrupt */
 325:../firmware/n32g430_std_periph_driver/src/n32g430_exti.c ****     EXTI->SWIE |= exti_line;
 517              		.loc 1 325 9
 518 0008 054B     		ldr	r3, .L21
 519 000a 1A69     		ldr	r2, [r3, #16]
 520 000c 0449     		ldr	r1, .L21
 521              		.loc 1 325 16
 522 000e 7B68     		ldr	r3, [r7, #4]
 523 0010 1343     		orrs	r3, r3, r2
 524 0012 0B61     		str	r3, [r1, #16]
 326:../firmware/n32g430_std_periph_driver/src/n32g430_exti.c **** }
 525              		.loc 1 326 1
 526 0014 00BF     		nop
 527 0016 0C37     		adds	r7, r7, #12
 528              	.LCFI36:
 529              		.cfi_def_cfa_offset 4
 530 0018 BD46     		mov	sp, r7
 531              	.LCFI37:
 532              		.cfi_def_cfa_register 13
 533              		@ sp needed
 534 001a 5DF8047B 		ldr	r7, [sp], #4
 535              	.LCFI38:
 536              		.cfi_restore 7
 537              		.cfi_def_cfa_offset 0
 538 001e 7047     		bx	lr
ARM GAS  C:\Users\ZShuai\AppData\Local\Temp\ccdVPhW1.s 			page 16


 539              	.L22:
 540              		.align	2
 541              	.L21:
 542 0020 00040140 		.word	1073808384
 543              		.cfi_endproc
 544              	.LFE136:
 546              		.section	.text.EXTI_Flag_Status_Get,"ax",%progbits
 547              		.align	1
 548              		.global	EXTI_Flag_Status_Get
 549              		.syntax unified
 550              		.thumb
 551              		.thumb_func
 553              	EXTI_Flag_Status_Get:
 554              	.LFB137:
 327:../firmware/n32g430_std_periph_driver/src/n32g430_exti.c **** 
 328:../firmware/n32g430_std_periph_driver/src/n32g430_exti.c **** 
 329:../firmware/n32g430_std_periph_driver/src/n32g430_exti.c **** 
 330:../firmware/n32g430_std_periph_driver/src/n32g430_exti.c **** /**
 331:../firmware/n32g430_std_periph_driver/src/n32g430_exti.c **** *\*\name    EXTI_Flag_Status_Get.
 332:../firmware/n32g430_std_periph_driver/src/n32g430_exti.c **** *\*\fun     Get EXTI line flag status.
 333:../firmware/n32g430_std_periph_driver/src/n32g430_exti.c **** *\*\param   exti_line :   
 334:../firmware/n32g430_std_periph_driver/src/n32g430_exti.c **** *\*\            - EXTI_LINE0              
 335:../firmware/n32g430_std_periph_driver/src/n32g430_exti.c **** *\*\            - EXTI_LINE1            
 336:../firmware/n32g430_std_periph_driver/src/n32g430_exti.c **** *\*\            - EXTI_LINE2              
 337:../firmware/n32g430_std_periph_driver/src/n32g430_exti.c **** *\*\            - EXTI_LINE3             
 338:../firmware/n32g430_std_periph_driver/src/n32g430_exti.c **** *\*\            - EXTI_LINE4              
 339:../firmware/n32g430_std_periph_driver/src/n32g430_exti.c **** *\*\            - EXTI_LINE5 
 340:../firmware/n32g430_std_periph_driver/src/n32g430_exti.c **** *\*\            - EXTI_LINE6              
 341:../firmware/n32g430_std_periph_driver/src/n32g430_exti.c **** *\*\            - EXTI_LINE7                
 342:../firmware/n32g430_std_periph_driver/src/n32g430_exti.c **** *\*\            - EXTI_LINE8              
 343:../firmware/n32g430_std_periph_driver/src/n32g430_exti.c **** *\*\            - EXTI_LINE9              
 344:../firmware/n32g430_std_periph_driver/src/n32g430_exti.c **** *\*\            - EXTI_LINE10              
 345:../firmware/n32g430_std_periph_driver/src/n32g430_exti.c **** *\*\            - EXTI_LINE11            
 346:../firmware/n32g430_std_periph_driver/src/n32g430_exti.c **** *\*\            - EXTI_LINE12            
 347:../firmware/n32g430_std_periph_driver/src/n32g430_exti.c **** *\*\            - EXTI_LINE13   
 348:../firmware/n32g430_std_periph_driver/src/n32g430_exti.c **** *\*\            - EXTI_LINE14
 349:../firmware/n32g430_std_periph_driver/src/n32g430_exti.c **** *\*\            - EXTI_LINE15   
 350:../firmware/n32g430_std_periph_driver/src/n32g430_exti.c **** *\*\            - EXTI_LINE16   
 351:../firmware/n32g430_std_periph_driver/src/n32g430_exti.c **** *\*\            - EXTI_LINE17   
 352:../firmware/n32g430_std_periph_driver/src/n32g430_exti.c **** *\*\            - EXTI_LINE18   
 353:../firmware/n32g430_std_periph_driver/src/n32g430_exti.c **** *\*\            - EXTI_LINE19     
 354:../firmware/n32g430_std_periph_driver/src/n32g430_exti.c **** *\*\            - EXTI_LINE20   
 355:../firmware/n32g430_std_periph_driver/src/n32g430_exti.c **** *\*\            - EXTI_LINE21 
 356:../firmware/n32g430_std_periph_driver/src/n32g430_exti.c **** *\*\            - EXTI_LINE22
 357:../firmware/n32g430_std_periph_driver/src/n32g430_exti.c **** *\*\            - EXTI_LINE23
 358:../firmware/n32g430_std_periph_driver/src/n32g430_exti.c **** *\*\return  SET or RESET
 359:../firmware/n32g430_std_periph_driver/src/n32g430_exti.c **** **/
 360:../firmware/n32g430_std_periph_driver/src/n32g430_exti.c **** FlagStatus EXTI_Flag_Status_Get(uint32_t exti_line)
 361:../firmware/n32g430_std_periph_driver/src/n32g430_exti.c **** {
 555              		.loc 1 361 1
 556              		.cfi_startproc
 557              		@ args = 0, pretend = 0, frame = 8
 558              		@ frame_needed = 1, uses_anonymous_args = 0
 559              		@ link register save eliminated.
 560 0000 80B4     		push	{r7}
 561              	.LCFI39:
 562              		.cfi_def_cfa_offset 4
ARM GAS  C:\Users\ZShuai\AppData\Local\Temp\ccdVPhW1.s 			page 17


 563              		.cfi_offset 7, -4
 564 0002 83B0     		sub	sp, sp, #12
 565              	.LCFI40:
 566              		.cfi_def_cfa_offset 16
 567 0004 00AF     		add	r7, sp, #0
 568              	.LCFI41:
 569              		.cfi_def_cfa_register 7
 570 0006 7860     		str	r0, [r7, #4]
 362:../firmware/n32g430_std_periph_driver/src/n32g430_exti.c ****     if ((EXTI->PEND & exti_line) != (uint32_t)RESET)
 571              		.loc 1 362 14
 572 0008 074B     		ldr	r3, .L26
 573 000a 5A69     		ldr	r2, [r3, #20]
 574              		.loc 1 362 21
 575 000c 7B68     		ldr	r3, [r7, #4]
 576 000e 1340     		ands	r3, r3, r2
 577              		.loc 1 362 8
 578 0010 002B     		cmp	r3, #0
 579 0012 01D0     		beq	.L24
 363:../firmware/n32g430_std_periph_driver/src/n32g430_exti.c ****     {
 364:../firmware/n32g430_std_periph_driver/src/n32g430_exti.c ****         /* EXTI line flag status is set */
 365:../firmware/n32g430_std_periph_driver/src/n32g430_exti.c ****         return SET;
 580              		.loc 1 365 16
 581 0014 0123     		movs	r3, #1
 582 0016 00E0     		b	.L25
 583              	.L24:
 366:../firmware/n32g430_std_periph_driver/src/n32g430_exti.c ****     }
 367:../firmware/n32g430_std_periph_driver/src/n32g430_exti.c ****     else
 368:../firmware/n32g430_std_periph_driver/src/n32g430_exti.c ****     {
 369:../firmware/n32g430_std_periph_driver/src/n32g430_exti.c ****         /* EXTI line flag status is reset */
 370:../firmware/n32g430_std_periph_driver/src/n32g430_exti.c ****         return RESET;
 584              		.loc 1 370 16
 585 0018 0023     		movs	r3, #0
 586              	.L25:
 371:../firmware/n32g430_std_periph_driver/src/n32g430_exti.c ****     }
 372:../firmware/n32g430_std_periph_driver/src/n32g430_exti.c **** }
 587              		.loc 1 372 1
 588 001a 1846     		mov	r0, r3
 589 001c 0C37     		adds	r7, r7, #12
 590              	.LCFI42:
 591              		.cfi_def_cfa_offset 4
 592 001e BD46     		mov	sp, r7
 593              	.LCFI43:
 594              		.cfi_def_cfa_register 13
 595              		@ sp needed
 596 0020 5DF8047B 		ldr	r7, [sp], #4
 597              	.LCFI44:
 598              		.cfi_restore 7
 599              		.cfi_def_cfa_offset 0
 600 0024 7047     		bx	lr
 601              	.L27:
 602 0026 00BF     		.align	2
 603              	.L26:
 604 0028 00040140 		.word	1073808384
 605              		.cfi_endproc
 606              	.LFE137:
 608              		.section	.text.EXTI_Flag_Status_Clear,"ax",%progbits
 609              		.align	1
ARM GAS  C:\Users\ZShuai\AppData\Local\Temp\ccdVPhW1.s 			page 18


 610              		.global	EXTI_Flag_Status_Clear
 611              		.syntax unified
 612              		.thumb
 613              		.thumb_func
 615              	EXTI_Flag_Status_Clear:
 616              	.LFB138:
 373:../firmware/n32g430_std_periph_driver/src/n32g430_exti.c **** 
 374:../firmware/n32g430_std_periph_driver/src/n32g430_exti.c **** /**
 375:../firmware/n32g430_std_periph_driver/src/n32g430_exti.c **** *\*\name    EXTI_Flag_Status_Clear.
 376:../firmware/n32g430_std_periph_driver/src/n32g430_exti.c **** *\*\fun     Clear EXTI line flag status.
 377:../firmware/n32g430_std_periph_driver/src/n32g430_exti.c **** *\*\param   exti_line :   
 378:../firmware/n32g430_std_periph_driver/src/n32g430_exti.c **** *\*\            - EXTI_LINE0              
 379:../firmware/n32g430_std_periph_driver/src/n32g430_exti.c **** *\*\            - EXTI_LINE1            
 380:../firmware/n32g430_std_periph_driver/src/n32g430_exti.c **** *\*\            - EXTI_LINE2              
 381:../firmware/n32g430_std_periph_driver/src/n32g430_exti.c **** *\*\            - EXTI_LINE3             
 382:../firmware/n32g430_std_periph_driver/src/n32g430_exti.c **** *\*\            - EXTI_LINE4              
 383:../firmware/n32g430_std_periph_driver/src/n32g430_exti.c **** *\*\            - EXTI_LINE5 
 384:../firmware/n32g430_std_periph_driver/src/n32g430_exti.c **** *\*\            - EXTI_LINE6              
 385:../firmware/n32g430_std_periph_driver/src/n32g430_exti.c **** *\*\            - EXTI_LINE7                
 386:../firmware/n32g430_std_periph_driver/src/n32g430_exti.c **** *\*\            - EXTI_LINE8              
 387:../firmware/n32g430_std_periph_driver/src/n32g430_exti.c **** *\*\            - EXTI_LINE9              
 388:../firmware/n32g430_std_periph_driver/src/n32g430_exti.c **** *\*\            - EXTI_LINE10              
 389:../firmware/n32g430_std_periph_driver/src/n32g430_exti.c **** *\*\            - EXTI_LINE11            
 390:../firmware/n32g430_std_periph_driver/src/n32g430_exti.c **** *\*\            - EXTI_LINE12            
 391:../firmware/n32g430_std_periph_driver/src/n32g430_exti.c **** *\*\            - EXTI_LINE13   
 392:../firmware/n32g430_std_periph_driver/src/n32g430_exti.c **** *\*\            - EXTI_LINE14
 393:../firmware/n32g430_std_periph_driver/src/n32g430_exti.c **** *\*\            - EXTI_LINE15   
 394:../firmware/n32g430_std_periph_driver/src/n32g430_exti.c **** *\*\            - EXTI_LINE16   
 395:../firmware/n32g430_std_periph_driver/src/n32g430_exti.c **** *\*\            - EXTI_LINE17   
 396:../firmware/n32g430_std_periph_driver/src/n32g430_exti.c **** *\*\            - EXTI_LINE18   
 397:../firmware/n32g430_std_periph_driver/src/n32g430_exti.c **** *\*\            - EXTI_LINE19     
 398:../firmware/n32g430_std_periph_driver/src/n32g430_exti.c **** *\*\            - EXTI_LINE20   
 399:../firmware/n32g430_std_periph_driver/src/n32g430_exti.c **** *\*\            - EXTI_LINE21 
 400:../firmware/n32g430_std_periph_driver/src/n32g430_exti.c **** *\*\            - EXTI_LINE22
 401:../firmware/n32g430_std_periph_driver/src/n32g430_exti.c **** *\*\            - EXTI_LINE23
 402:../firmware/n32g430_std_periph_driver/src/n32g430_exti.c **** *\*\return  none
 403:../firmware/n32g430_std_periph_driver/src/n32g430_exti.c **** **/
 404:../firmware/n32g430_std_periph_driver/src/n32g430_exti.c **** void EXTI_Flag_Status_Clear(uint32_t exti_line)
 405:../firmware/n32g430_std_periph_driver/src/n32g430_exti.c **** {
 617              		.loc 1 405 1
 618              		.cfi_startproc
 619              		@ args = 0, pretend = 0, frame = 8
 620              		@ frame_needed = 1, uses_anonymous_args = 0
 621              		@ link register save eliminated.
 622 0000 80B4     		push	{r7}
 623              	.LCFI45:
 624              		.cfi_def_cfa_offset 4
 625              		.cfi_offset 7, -4
 626 0002 83B0     		sub	sp, sp, #12
 627              	.LCFI46:
 628              		.cfi_def_cfa_offset 16
 629 0004 00AF     		add	r7, sp, #0
 630              	.LCFI47:
 631              		.cfi_def_cfa_register 7
 632 0006 7860     		str	r0, [r7, #4]
 406:../firmware/n32g430_std_periph_driver/src/n32g430_exti.c ****     /* Clear EXTI line flag status. */
 407:../firmware/n32g430_std_periph_driver/src/n32g430_exti.c ****     EXTI->PEND = exti_line;
ARM GAS  C:\Users\ZShuai\AppData\Local\Temp\ccdVPhW1.s 			page 19


 633              		.loc 1 407 9
 634 0008 044A     		ldr	r2, .L29
 635              		.loc 1 407 16
 636 000a 7B68     		ldr	r3, [r7, #4]
 637 000c 5361     		str	r3, [r2, #20]
 408:../firmware/n32g430_std_periph_driver/src/n32g430_exti.c **** }
 638              		.loc 1 408 1
 639 000e 00BF     		nop
 640 0010 0C37     		adds	r7, r7, #12
 641              	.LCFI48:
 642              		.cfi_def_cfa_offset 4
 643 0012 BD46     		mov	sp, r7
 644              	.LCFI49:
 645              		.cfi_def_cfa_register 13
 646              		@ sp needed
 647 0014 5DF8047B 		ldr	r7, [sp], #4
 648              	.LCFI50:
 649              		.cfi_restore 7
 650              		.cfi_def_cfa_offset 0
 651 0018 7047     		bx	lr
 652              	.L30:
 653 001a 00BF     		.align	2
 654              	.L29:
 655 001c 00040140 		.word	1073808384
 656              		.cfi_endproc
 657              	.LFE138:
 659              		.section	.text.EXTI_Interrupt_Status_Get,"ax",%progbits
 660              		.align	1
 661              		.global	EXTI_Interrupt_Status_Get
 662              		.syntax unified
 663              		.thumb
 664              		.thumb_func
 666              	EXTI_Interrupt_Status_Get:
 667              	.LFB139:
 409:../firmware/n32g430_std_periph_driver/src/n32g430_exti.c **** 
 410:../firmware/n32g430_std_periph_driver/src/n32g430_exti.c **** 
 411:../firmware/n32g430_std_periph_driver/src/n32g430_exti.c **** 
 412:../firmware/n32g430_std_periph_driver/src/n32g430_exti.c **** 
 413:../firmware/n32g430_std_periph_driver/src/n32g430_exti.c **** /**
 414:../firmware/n32g430_std_periph_driver/src/n32g430_exti.c **** *\*\name    EXTI_Interrupt_Status_Get.
 415:../firmware/n32g430_std_periph_driver/src/n32g430_exti.c **** *\*\fun     GET EXTI line interrupt status.
 416:../firmware/n32g430_std_periph_driver/src/n32g430_exti.c **** *\*\param   exti_line :   
 417:../firmware/n32g430_std_periph_driver/src/n32g430_exti.c **** *\*\            - EXTI_LINE0              
 418:../firmware/n32g430_std_periph_driver/src/n32g430_exti.c **** *\*\            - EXTI_LINE1            
 419:../firmware/n32g430_std_periph_driver/src/n32g430_exti.c **** *\*\            - EXTI_LINE2              
 420:../firmware/n32g430_std_periph_driver/src/n32g430_exti.c **** *\*\            - EXTI_LINE3             
 421:../firmware/n32g430_std_periph_driver/src/n32g430_exti.c **** *\*\            - EXTI_LINE4              
 422:../firmware/n32g430_std_periph_driver/src/n32g430_exti.c **** *\*\            - EXTI_LINE5 
 423:../firmware/n32g430_std_periph_driver/src/n32g430_exti.c **** *\*\            - EXTI_LINE6              
 424:../firmware/n32g430_std_periph_driver/src/n32g430_exti.c **** *\*\            - EXTI_LINE7                
 425:../firmware/n32g430_std_periph_driver/src/n32g430_exti.c **** *\*\            - EXTI_LINE8              
 426:../firmware/n32g430_std_periph_driver/src/n32g430_exti.c **** *\*\            - EXTI_LINE9              
 427:../firmware/n32g430_std_periph_driver/src/n32g430_exti.c **** *\*\            - EXTI_LINE10              
 428:../firmware/n32g430_std_periph_driver/src/n32g430_exti.c **** *\*\            - EXTI_LINE11            
 429:../firmware/n32g430_std_periph_driver/src/n32g430_exti.c **** *\*\            - EXTI_LINE12            
 430:../firmware/n32g430_std_periph_driver/src/n32g430_exti.c **** *\*\            - EXTI_LINE13   
 431:../firmware/n32g430_std_periph_driver/src/n32g430_exti.c **** *\*\            - EXTI_LINE14
ARM GAS  C:\Users\ZShuai\AppData\Local\Temp\ccdVPhW1.s 			page 20


 432:../firmware/n32g430_std_periph_driver/src/n32g430_exti.c **** *\*\            - EXTI_LINE15   
 433:../firmware/n32g430_std_periph_driver/src/n32g430_exti.c **** *\*\            - EXTI_LINE16   
 434:../firmware/n32g430_std_periph_driver/src/n32g430_exti.c **** *\*\            - EXTI_LINE17   
 435:../firmware/n32g430_std_periph_driver/src/n32g430_exti.c **** *\*\            - EXTI_LINE18   
 436:../firmware/n32g430_std_periph_driver/src/n32g430_exti.c **** *\*\            - EXTI_LINE19     
 437:../firmware/n32g430_std_periph_driver/src/n32g430_exti.c **** *\*\            - EXTI_LINE20   
 438:../firmware/n32g430_std_periph_driver/src/n32g430_exti.c **** *\*\            - EXTI_LINE21 
 439:../firmware/n32g430_std_periph_driver/src/n32g430_exti.c **** *\*\            - EXTI_LINE22
 440:../firmware/n32g430_std_periph_driver/src/n32g430_exti.c **** *\*\            - EXTI_LINE23
 441:../firmware/n32g430_std_periph_driver/src/n32g430_exti.c **** *\*\return  SET or RESET
 442:../firmware/n32g430_std_periph_driver/src/n32g430_exti.c **** **/
 443:../firmware/n32g430_std_periph_driver/src/n32g430_exti.c **** INTStatus EXTI_Interrupt_Status_Get(uint32_t exti_line)
 444:../firmware/n32g430_std_periph_driver/src/n32g430_exti.c **** {
 668              		.loc 1 444 1
 669              		.cfi_startproc
 670              		@ args = 0, pretend = 0, frame = 8
 671              		@ frame_needed = 1, uses_anonymous_args = 0
 672              		@ link register save eliminated.
 673 0000 80B4     		push	{r7}
 674              	.LCFI51:
 675              		.cfi_def_cfa_offset 4
 676              		.cfi_offset 7, -4
 677 0002 83B0     		sub	sp, sp, #12
 678              	.LCFI52:
 679              		.cfi_def_cfa_offset 16
 680 0004 00AF     		add	r7, sp, #0
 681              	.LCFI53:
 682              		.cfi_def_cfa_register 7
 683 0006 7860     		str	r0, [r7, #4]
 445:../firmware/n32g430_std_periph_driver/src/n32g430_exti.c **** 
 446:../firmware/n32g430_std_periph_driver/src/n32g430_exti.c **** 
 447:../firmware/n32g430_std_periph_driver/src/n32g430_exti.c ****     if (((EXTI->PEND & exti_line) != (uint32_t)RESET) && ((EXTI->IMASK & exti_line) != (uint32_t)RE
 684              		.loc 1 447 15
 685 0008 0A4B     		ldr	r3, .L34
 686 000a 5A69     		ldr	r2, [r3, #20]
 687              		.loc 1 447 22
 688 000c 7B68     		ldr	r3, [r7, #4]
 689 000e 1340     		ands	r3, r3, r2
 690              		.loc 1 447 8
 691 0010 002B     		cmp	r3, #0
 692 0012 07D0     		beq	.L32
 693              		.loc 1 447 64 discriminator 1
 694 0014 074B     		ldr	r3, .L34
 695 0016 1A68     		ldr	r2, [r3]
 696              		.loc 1 447 72 discriminator 1
 697 0018 7B68     		ldr	r3, [r7, #4]
 698 001a 1340     		ands	r3, r3, r2
 699              		.loc 1 447 55 discriminator 1
 700 001c 002B     		cmp	r3, #0
 701 001e 01D0     		beq	.L32
 448:../firmware/n32g430_std_periph_driver/src/n32g430_exti.c ****     {
 449:../firmware/n32g430_std_periph_driver/src/n32g430_exti.c ****         /* EXTI line interrupt status is set */
 450:../firmware/n32g430_std_periph_driver/src/n32g430_exti.c ****         return SET;
 702              		.loc 1 450 16
 703 0020 0123     		movs	r3, #1
 704 0022 00E0     		b	.L33
 705              	.L32:
ARM GAS  C:\Users\ZShuai\AppData\Local\Temp\ccdVPhW1.s 			page 21


 451:../firmware/n32g430_std_periph_driver/src/n32g430_exti.c ****     }
 452:../firmware/n32g430_std_periph_driver/src/n32g430_exti.c ****     else
 453:../firmware/n32g430_std_periph_driver/src/n32g430_exti.c ****     {
 454:../firmware/n32g430_std_periph_driver/src/n32g430_exti.c ****         /* EXTI line interrupt status is reset */
 455:../firmware/n32g430_std_periph_driver/src/n32g430_exti.c ****         return RESET;
 706              		.loc 1 455 16
 707 0024 0023     		movs	r3, #0
 708              	.L33:
 456:../firmware/n32g430_std_periph_driver/src/n32g430_exti.c ****     }
 457:../firmware/n32g430_std_periph_driver/src/n32g430_exti.c **** 
 458:../firmware/n32g430_std_periph_driver/src/n32g430_exti.c **** }
 709              		.loc 1 458 1
 710 0026 1846     		mov	r0, r3
 711 0028 0C37     		adds	r7, r7, #12
 712              	.LCFI54:
 713              		.cfi_def_cfa_offset 4
 714 002a BD46     		mov	sp, r7
 715              	.LCFI55:
 716              		.cfi_def_cfa_register 13
 717              		@ sp needed
 718 002c 5DF8047B 		ldr	r7, [sp], #4
 719              	.LCFI56:
 720              		.cfi_restore 7
 721              		.cfi_def_cfa_offset 0
 722 0030 7047     		bx	lr
 723              	.L35:
 724 0032 00BF     		.align	2
 725              	.L34:
 726 0034 00040140 		.word	1073808384
 727              		.cfi_endproc
 728              	.LFE139:
 730              		.section	.text.EXTI_Interrupt_Status_Clear,"ax",%progbits
 731              		.align	1
 732              		.global	EXTI_Interrupt_Status_Clear
 733              		.syntax unified
 734              		.thumb
 735              		.thumb_func
 737              	EXTI_Interrupt_Status_Clear:
 738              	.LFB140:
 459:../firmware/n32g430_std_periph_driver/src/n32g430_exti.c **** 
 460:../firmware/n32g430_std_periph_driver/src/n32g430_exti.c **** 
 461:../firmware/n32g430_std_periph_driver/src/n32g430_exti.c **** /**
 462:../firmware/n32g430_std_periph_driver/src/n32g430_exti.c **** *\*\name    EXTI_Interrupt_Status_Clear.
 463:../firmware/n32g430_std_periph_driver/src/n32g430_exti.c **** *\*\fun     Clear EXTI line interrupt pend bit.
 464:../firmware/n32g430_std_periph_driver/src/n32g430_exti.c **** *\*\param   exti_line :   
 465:../firmware/n32g430_std_periph_driver/src/n32g430_exti.c **** *\*\            - EXTI_LINE0              
 466:../firmware/n32g430_std_periph_driver/src/n32g430_exti.c **** *\*\            - EXTI_LINE1            
 467:../firmware/n32g430_std_periph_driver/src/n32g430_exti.c **** *\*\            - EXTI_LINE2              
 468:../firmware/n32g430_std_periph_driver/src/n32g430_exti.c **** *\*\            - EXTI_LINE3             
 469:../firmware/n32g430_std_periph_driver/src/n32g430_exti.c **** *\*\            - EXTI_LINE4              
 470:../firmware/n32g430_std_periph_driver/src/n32g430_exti.c **** *\*\            - EXTI_LINE5 
 471:../firmware/n32g430_std_periph_driver/src/n32g430_exti.c **** *\*\            - EXTI_LINE6              
 472:../firmware/n32g430_std_periph_driver/src/n32g430_exti.c **** *\*\            - EXTI_LINE7                
 473:../firmware/n32g430_std_periph_driver/src/n32g430_exti.c **** *\*\            - EXTI_LINE8              
 474:../firmware/n32g430_std_periph_driver/src/n32g430_exti.c **** *\*\            - EXTI_LINE9              
 475:../firmware/n32g430_std_periph_driver/src/n32g430_exti.c **** *\*\            - EXTI_LINE10              
 476:../firmware/n32g430_std_periph_driver/src/n32g430_exti.c **** *\*\            - EXTI_LINE11            
ARM GAS  C:\Users\ZShuai\AppData\Local\Temp\ccdVPhW1.s 			page 22


 477:../firmware/n32g430_std_periph_driver/src/n32g430_exti.c **** *\*\            - EXTI_LINE12            
 478:../firmware/n32g430_std_periph_driver/src/n32g430_exti.c **** *\*\            - EXTI_LINE13   
 479:../firmware/n32g430_std_periph_driver/src/n32g430_exti.c **** *\*\            - EXTI_LINE14
 480:../firmware/n32g430_std_periph_driver/src/n32g430_exti.c **** *\*\            - EXTI_LINE15   
 481:../firmware/n32g430_std_periph_driver/src/n32g430_exti.c **** *\*\            - EXTI_LINE16   
 482:../firmware/n32g430_std_periph_driver/src/n32g430_exti.c **** *\*\            - EXTI_LINE17   
 483:../firmware/n32g430_std_periph_driver/src/n32g430_exti.c **** *\*\            - EXTI_LINE18   
 484:../firmware/n32g430_std_periph_driver/src/n32g430_exti.c **** *\*\            - EXTI_LINE19     
 485:../firmware/n32g430_std_periph_driver/src/n32g430_exti.c **** *\*\            - EXTI_LINE20   
 486:../firmware/n32g430_std_periph_driver/src/n32g430_exti.c **** *\*\            - EXTI_LINE21 
 487:../firmware/n32g430_std_periph_driver/src/n32g430_exti.c **** *\*\            - EXTI_LINE22
 488:../firmware/n32g430_std_periph_driver/src/n32g430_exti.c **** *\*\            - EXTI_LINE23
 489:../firmware/n32g430_std_periph_driver/src/n32g430_exti.c **** *\*\return  none
 490:../firmware/n32g430_std_periph_driver/src/n32g430_exti.c **** **/
 491:../firmware/n32g430_std_periph_driver/src/n32g430_exti.c **** void EXTI_Interrupt_Status_Clear(uint32_t exti_line)
 492:../firmware/n32g430_std_periph_driver/src/n32g430_exti.c **** {
 739              		.loc 1 492 1
 740              		.cfi_startproc
 741              		@ args = 0, pretend = 0, frame = 8
 742              		@ frame_needed = 1, uses_anonymous_args = 0
 743              		@ link register save eliminated.
 744 0000 80B4     		push	{r7}
 745              	.LCFI57:
 746              		.cfi_def_cfa_offset 4
 747              		.cfi_offset 7, -4
 748 0002 83B0     		sub	sp, sp, #12
 749              	.LCFI58:
 750              		.cfi_def_cfa_offset 16
 751 0004 00AF     		add	r7, sp, #0
 752              	.LCFI59:
 753              		.cfi_def_cfa_register 7
 754 0006 7860     		str	r0, [r7, #4]
 493:../firmware/n32g430_std_periph_driver/src/n32g430_exti.c **** 
 494:../firmware/n32g430_std_periph_driver/src/n32g430_exti.c ****     /* Clear EXTI line interrupt pend bit. */
 495:../firmware/n32g430_std_periph_driver/src/n32g430_exti.c ****     EXTI->PEND = exti_line;
 755              		.loc 1 495 9
 756 0008 044A     		ldr	r2, .L37
 757              		.loc 1 495 16
 758 000a 7B68     		ldr	r3, [r7, #4]
 759 000c 5361     		str	r3, [r2, #20]
 496:../firmware/n32g430_std_periph_driver/src/n32g430_exti.c **** }
 760              		.loc 1 496 1
 761 000e 00BF     		nop
 762 0010 0C37     		adds	r7, r7, #12
 763              	.LCFI60:
 764              		.cfi_def_cfa_offset 4
 765 0012 BD46     		mov	sp, r7
 766              	.LCFI61:
 767              		.cfi_def_cfa_register 13
 768              		@ sp needed
 769 0014 5DF8047B 		ldr	r7, [sp], #4
 770              	.LCFI62:
 771              		.cfi_restore 7
 772              		.cfi_def_cfa_offset 0
 773 0018 7047     		bx	lr
 774              	.L38:
 775 001a 00BF     		.align	2
ARM GAS  C:\Users\ZShuai\AppData\Local\Temp\ccdVPhW1.s 			page 23


 776              	.L37:
 777 001c 00040140 		.word	1073808384
 778              		.cfi_endproc
 779              	.LFE140:
 781              		.section	.text.EXTI_RTC_Time_Stamp_Select,"ax",%progbits
 782              		.align	1
 783              		.global	EXTI_RTC_Time_Stamp_Select
 784              		.syntax unified
 785              		.thumb
 786              		.thumb_func
 788              	EXTI_RTC_Time_Stamp_Select:
 789              	.LFB141:
 497:../firmware/n32g430_std_periph_driver/src/n32g430_exti.c **** 
 498:../firmware/n32g430_std_periph_driver/src/n32g430_exti.c **** /**
 499:../firmware/n32g430_std_periph_driver/src/n32g430_exti.c **** *\*\name    EXTI_RTC_Time_Stamp_Select.
 500:../firmware/n32g430_std_periph_driver/src/n32g430_exti.c **** *\*\fun     Select the input of TimeStamp event.
 501:../firmware/n32g430_std_periph_driver/src/n32g430_exti.c **** *\*\param   exti_tssel_line :   
 502:../firmware/n32g430_std_periph_driver/src/n32g430_exti.c **** *\*\            - EXTI_TSSEL_Line0             
 503:../firmware/n32g430_std_periph_driver/src/n32g430_exti.c **** *\*\            - EXTI_TSSEL_Line1            
 504:../firmware/n32g430_std_periph_driver/src/n32g430_exti.c **** *\*\            - EXTI_TSSEL_Line2             
 505:../firmware/n32g430_std_periph_driver/src/n32g430_exti.c **** *\*\            - EXTI_TSSEL_Line3             
 506:../firmware/n32g430_std_periph_driver/src/n32g430_exti.c **** *\*\            - EXTI_TSSEL_Line4               
 507:../firmware/n32g430_std_periph_driver/src/n32g430_exti.c **** *\*\            - EXTI_TSSEL_Line5 
 508:../firmware/n32g430_std_periph_driver/src/n32g430_exti.c **** *\*\            - EXTI_TSSEL_Line6              
 509:../firmware/n32g430_std_periph_driver/src/n32g430_exti.c **** *\*\            - EXTI_TSSEL_Line7                
 510:../firmware/n32g430_std_periph_driver/src/n32g430_exti.c **** *\*\            - EXTI_TSSEL_Line8              
 511:../firmware/n32g430_std_periph_driver/src/n32g430_exti.c **** *\*\            - EXTI_TSSEL_Line9              
 512:../firmware/n32g430_std_periph_driver/src/n32g430_exti.c **** *\*\            - EXTI_TSSEL_Line10              
 513:../firmware/n32g430_std_periph_driver/src/n32g430_exti.c **** *\*\            - EXTI_TSSEL_Line11            
 514:../firmware/n32g430_std_periph_driver/src/n32g430_exti.c **** *\*\            - EXTI_TSSEL_Line12            
 515:../firmware/n32g430_std_periph_driver/src/n32g430_exti.c **** *\*\            - EXTI_TSSEL_Line13   
 516:../firmware/n32g430_std_periph_driver/src/n32g430_exti.c **** *\*\            - EXTI_TSSEL_Line14
 517:../firmware/n32g430_std_periph_driver/src/n32g430_exti.c **** *\*\            - EXTI_TSSEL_Line15   
 518:../firmware/n32g430_std_periph_driver/src/n32g430_exti.c **** *\*\return  none
 519:../firmware/n32g430_std_periph_driver/src/n32g430_exti.c **** **/
 520:../firmware/n32g430_std_periph_driver/src/n32g430_exti.c **** void EXTI_RTC_Time_Stamp_Select(uint32_t exti_tssel_line)
 521:../firmware/n32g430_std_periph_driver/src/n32g430_exti.c **** {
 790              		.loc 1 521 1
 791              		.cfi_startproc
 792              		@ args = 0, pretend = 0, frame = 8
 793              		@ frame_needed = 1, uses_anonymous_args = 0
 794              		@ link register save eliminated.
 795 0000 80B4     		push	{r7}
 796              	.LCFI63:
 797              		.cfi_def_cfa_offset 4
 798              		.cfi_offset 7, -4
 799 0002 83B0     		sub	sp, sp, #12
 800              	.LCFI64:
 801              		.cfi_def_cfa_offset 16
 802 0004 00AF     		add	r7, sp, #0
 803              	.LCFI65:
 804              		.cfi_def_cfa_register 7
 805 0006 7860     		str	r0, [r7, #4]
 522:../firmware/n32g430_std_periph_driver/src/n32g430_exti.c ****     /* Select the input of TimeStamp event */
 523:../firmware/n32g430_std_periph_driver/src/n32g430_exti.c ****     EXTI->TS_SEL &= EXTI_TSSEL_LINE_MASK;
 806              		.loc 1 523 9
 807 0008 084B     		ldr	r3, .L40
ARM GAS  C:\Users\ZShuai\AppData\Local\Temp\ccdVPhW1.s 			page 24


 808 000a 9B69     		ldr	r3, [r3, #24]
 809 000c 074B     		ldr	r3, .L40
 810              		.loc 1 523 18
 811 000e 0022     		movs	r2, #0
 812 0010 9A61     		str	r2, [r3, #24]
 524:../firmware/n32g430_std_periph_driver/src/n32g430_exti.c ****     EXTI->TS_SEL |= exti_tssel_line;
 813              		.loc 1 524 9
 814 0012 064B     		ldr	r3, .L40
 815 0014 9A69     		ldr	r2, [r3, #24]
 816 0016 0549     		ldr	r1, .L40
 817              		.loc 1 524 18
 818 0018 7B68     		ldr	r3, [r7, #4]
 819 001a 1343     		orrs	r3, r3, r2
 820 001c 8B61     		str	r3, [r1, #24]
 525:../firmware/n32g430_std_periph_driver/src/n32g430_exti.c **** }
 821              		.loc 1 525 1
 822 001e 00BF     		nop
 823 0020 0C37     		adds	r7, r7, #12
 824              	.LCFI66:
 825              		.cfi_def_cfa_offset 4
 826 0022 BD46     		mov	sp, r7
 827              	.LCFI67:
 828              		.cfi_def_cfa_register 13
 829              		@ sp needed
 830 0024 5DF8047B 		ldr	r7, [sp], #4
 831              	.LCFI68:
 832              		.cfi_restore 7
 833              		.cfi_def_cfa_offset 0
 834 0028 7047     		bx	lr
 835              	.L41:
 836 002a 00BF     		.align	2
 837              	.L40:
 838 002c 00040140 		.word	1073808384
 839              		.cfi_endproc
 840              	.LFE141:
 842              		.text
 843              	.Letext0:
 844              		.file 2 "d:\\program files (x86)\\arm gnu toolchain arm-none-eabi\\12.3 rel1\\arm-none-eabi\\inclu
 845              		.file 3 "d:\\program files (x86)\\arm gnu toolchain arm-none-eabi\\12.3 rel1\\arm-none-eabi\\inclu
 846              		.file 4 "../firmware/CMSIS/device/n32g430.h"
 847              		.file 5 "../firmware/n32g430_std_periph_driver/inc/n32g430_exti.h"
ARM GAS  C:\Users\ZShuai\AppData\Local\Temp\ccdVPhW1.s 			page 25

